---
triple:          'arm64-apple-darwin'
binary-path:     '/Users/fernando/git/jvol-rust/target/debug/deps/libjvol_rust.dylib'
relocations:
  - { offset: 0x1E, size: 0x8, addend: 0x0, symName: '__ZN86_$LT$core..marker..PhantomData$LT$T$GT$$u20$as$u20$serde_core..de..DeserializeSeed$GT$11deserialize17h0615323b4ce5aaa2E', symObjAddr: 0x0, symBinAddr: 0x2E64, symSize: 0x24 }
  - { offset: 0x3D5, size: 0x8, addend: 0x0, symName: '__ZN86_$LT$core..marker..PhantomData$LT$T$GT$$u20$as$u20$serde_core..de..DeserializeSeed$GT$11deserialize17h0615323b4ce5aaa2E', symObjAddr: 0x0, symBinAddr: 0x2E64, symSize: 0x24 }
  - { offset: 0x430, size: 0x8, addend: 0x0, symName: '__ZN86_$LT$core..marker..PhantomData$LT$T$GT$$u20$as$u20$serde_core..de..DeserializeSeed$GT$11deserialize17h07864242e27ef79fE', symObjAddr: 0x24, symBinAddr: 0x2E88, symSize: 0x24 }
  - { offset: 0x48B, size: 0x8, addend: 0x0, symName: '__ZN86_$LT$core..marker..PhantomData$LT$T$GT$$u20$as$u20$serde_core..de..DeserializeSeed$GT$11deserialize17h08721dd4c31ec62eE', symObjAddr: 0x48, symBinAddr: 0x2EAC, symSize: 0x24 }
  - { offset: 0x4E6, size: 0x8, addend: 0x0, symName: '__ZN86_$LT$core..marker..PhantomData$LT$T$GT$$u20$as$u20$serde_core..de..DeserializeSeed$GT$11deserialize17h1140d336f382ffdcE', symObjAddr: 0x6C, symBinAddr: 0x2ED0, symSize: 0x24 }
  - { offset: 0x541, size: 0x8, addend: 0x0, symName: '__ZN86_$LT$core..marker..PhantomData$LT$T$GT$$u20$as$u20$serde_core..de..DeserializeSeed$GT$11deserialize17h20637ca05ce35f13E', symObjAddr: 0x90, symBinAddr: 0x2EF4, symSize: 0x24 }
  - { offset: 0x59C, size: 0x8, addend: 0x0, symName: '__ZN86_$LT$core..marker..PhantomData$LT$T$GT$$u20$as$u20$serde_core..de..DeserializeSeed$GT$11deserialize17h33fba5d2dfb52b0aE', symObjAddr: 0xB4, symBinAddr: 0x2F18, symSize: 0x24 }
  - { offset: 0x5F7, size: 0x8, addend: 0x0, symName: '__ZN86_$LT$core..marker..PhantomData$LT$T$GT$$u20$as$u20$serde_core..de..DeserializeSeed$GT$11deserialize17h430f3e8e7ee50528E', symObjAddr: 0xD8, symBinAddr: 0x2F3C, symSize: 0x24 }
  - { offset: 0x652, size: 0x8, addend: 0x0, symName: '__ZN86_$LT$core..marker..PhantomData$LT$T$GT$$u20$as$u20$serde_core..de..DeserializeSeed$GT$11deserialize17h51466ebb26e77f44E', symObjAddr: 0xFC, symBinAddr: 0x2F60, symSize: 0x20 }
  - { offset: 0x6AD, size: 0x8, addend: 0x0, symName: '__ZN86_$LT$core..marker..PhantomData$LT$T$GT$$u20$as$u20$serde_core..de..DeserializeSeed$GT$11deserialize17h6466d86ea7b41d57E', symObjAddr: 0x11C, symBinAddr: 0x2F80, symSize: 0x24 }
  - { offset: 0x708, size: 0x8, addend: 0x0, symName: '__ZN86_$LT$core..marker..PhantomData$LT$T$GT$$u20$as$u20$serde_core..de..DeserializeSeed$GT$11deserialize17h715772be22e975e2E', symObjAddr: 0x140, symBinAddr: 0x2FA4, symSize: 0x24 }
  - { offset: 0x763, size: 0x8, addend: 0x0, symName: '__ZN86_$LT$core..marker..PhantomData$LT$T$GT$$u20$as$u20$serde_core..de..DeserializeSeed$GT$11deserialize17h905be79e5dcac2e7E', symObjAddr: 0x164, symBinAddr: 0x2FC8, symSize: 0x24 }
  - { offset: 0x7BE, size: 0x8, addend: 0x0, symName: '__ZN86_$LT$core..marker..PhantomData$LT$T$GT$$u20$as$u20$serde_core..de..DeserializeSeed$GT$11deserialize17ha23a62e9dd84e1c8E', symObjAddr: 0x188, symBinAddr: 0x2FEC, symSize: 0x24 }
  - { offset: 0x819, size: 0x8, addend: 0x0, symName: '__ZN86_$LT$core..marker..PhantomData$LT$T$GT$$u20$as$u20$serde_core..de..DeserializeSeed$GT$11deserialize17hc2762660369d51a8E', symObjAddr: 0x1AC, symBinAddr: 0x3010, symSize: 0x24 }
  - { offset: 0x874, size: 0x8, addend: 0x0, symName: '__ZN86_$LT$core..marker..PhantomData$LT$T$GT$$u20$as$u20$serde_core..de..DeserializeSeed$GT$11deserialize17he09cef783809c58fE', symObjAddr: 0x1D0, symBinAddr: 0x3034, symSize: 0x24 }
  - { offset: 0x8CF, size: 0x8, addend: 0x0, symName: '__ZN86_$LT$core..marker..PhantomData$LT$T$GT$$u20$as$u20$serde_core..de..DeserializeSeed$GT$11deserialize17he2c0c269a1470924E', symObjAddr: 0x1F4, symBinAddr: 0x3058, symSize: 0x24 }
  - { offset: 0x92A, size: 0x8, addend: 0x0, symName: '__ZN86_$LT$core..marker..PhantomData$LT$T$GT$$u20$as$u20$serde_core..de..DeserializeSeed$GT$11deserialize17he5052c468b2bcb6eE', symObjAddr: 0x218, symBinAddr: 0x307C, symSize: 0x24 }
  - { offset: 0x985, size: 0x8, addend: 0x0, symName: '__ZN86_$LT$core..marker..PhantomData$LT$T$GT$$u20$as$u20$serde_core..de..DeserializeSeed$GT$11deserialize17hee85d341a6f99fabE', symObjAddr: 0x23C, symBinAddr: 0x30A0, symSize: 0x24 }
  - { offset: 0x1B60, size: 0x8, addend: 0x0, symName: '__ZN4core3cmp5impls50_$LT$impl$u20$core..cmp..Ord$u20$for$u20$isize$GT$3cmp17hbfe9db9629c82d84E', symObjAddr: 0x0, symBinAddr: 0x30C4, symSize: 0x38 }
  - { offset: 0x1B9F, size: 0x8, addend: 0x0, symName: '__ZN4core3cmp5impls50_$LT$impl$u20$core..cmp..Ord$u20$for$u20$isize$GT$3cmp17hbfe9db9629c82d84E', symObjAddr: 0x0, symBinAddr: 0x30C4, symSize: 0x38 }
  - { offset: 0x1BE2, size: 0x8, addend: 0x0, symName: '__ZN4core3cmp5impls55_$LT$impl$u20$core..cmp..PartialOrd$u20$for$u20$f64$GT$11partial_cmp17h574175ea798f9236E', symObjAddr: 0x38, symBinAddr: 0x30FC, symSize: 0x90 }
  - { offset: 0x1C25, size: 0x8, addend: 0x0, symName: '__ZN4core3cmp5impls56_$LT$impl$u20$core..cmp..PartialEq$u20$for$u20$usize$GT$2eq17h7162dadac34c63e9E', symObjAddr: 0xC8, symBinAddr: 0x318C, symSize: 0x2C }
  - { offset: 0x1D3C, size: 0x8, addend: 0x0, symName: __ZN9jvol_rust5types9JvolDtype5iinfo17h22157248c8263838E, symObjAddr: 0x0, symBinAddr: 0x31B8, symSize: 0x110 }
  - { offset: 0x1E24, size: 0x8, addend: 0x0, symName: __ZN9jvol_rust5types9JvolDtype5iinfo17h22157248c8263838E, symObjAddr: 0x0, symBinAddr: 0x31B8, symSize: 0x110 }
  - { offset: 0x1E64, size: 0x8, addend: 0x0, symName: __ZN4pyo35impl_16extract_argument16extract_argument17h30e291bb87da5a44E, symObjAddr: 0x0, symBinAddr: 0x32C8, symSize: 0x144 }
  - { offset: 0x3B72, size: 0x8, addend: 0x0, symName: __ZN4pyo35impl_16extract_argument16extract_argument17h30e291bb87da5a44E, symObjAddr: 0x0, symBinAddr: 0x32C8, symSize: 0x144 }
  - { offset: 0x3BF8, size: 0x8, addend: 0x0, symName: __ZN4pyo35impl_16extract_argument16extract_argument17h491865775a32737aE, symObjAddr: 0x144, symBinAddr: 0x340C, symSize: 0x144 }
  - { offset: 0x3C7E, size: 0x8, addend: 0x0, symName: __ZN4pyo35impl_16extract_argument16extract_argument17h71a76df988d88290E, symObjAddr: 0x288, symBinAddr: 0x3550, symSize: 0x138 }
  - { offset: 0x3D03, size: 0x8, addend: 0x0, symName: __ZN4pyo35impl_16extract_argument16extract_argument17h7742ce8baddb50f9E, symObjAddr: 0x3C0, symBinAddr: 0x3688, symSize: 0x138 }
  - { offset: 0x3D88, size: 0x8, addend: 0x0, symName: __ZN4pyo35impl_16extract_argument16extract_argument17h873187ff81f140d1E, symObjAddr: 0x4F8, symBinAddr: 0x37C0, symSize: 0x138 }
  - { offset: 0x3E0D, size: 0x8, addend: 0x0, symName: __ZN4pyo35impl_16extract_argument16extract_argument17h9d213691a47bf036E, symObjAddr: 0x630, symBinAddr: 0x38F8, symSize: 0x138 }
  - { offset: 0x3F9B, size: 0x8, addend: 0x0, symName: '__ZN4pyo35impl_16extract_argument19FunctionDescription26extract_arguments_fastcall28_$u7b$$u7b$closure$u7d$$u7d$17ha023e780c55566f6E', symObjAddr: 0x14AC, symBinAddr: 0x4774, symSize: 0x24 }
  - { offset: 0x3FF3, size: 0x8, addend: 0x0, symName: '__ZN4pyo35impl_16extract_argument19FunctionDescription36find_keyword_parameter_in_positional28_$u7b$$u7b$closure$u7d$$u7d$17hd53b4dddcb2456d4E', symObjAddr: 0x14D0, symBinAddr: 0x4798, symSize: 0x48 }
  - { offset: 0x4053, size: 0x8, addend: 0x0, symName: '__ZN4pyo35impl_16extract_argument19FunctionDescription38find_keyword_parameter_in_keyword_only28_$u7b$$u7b$closure$u7d$$u7d$17h8f42f56db17f6ae7E', symObjAddr: 0x1518, symBinAddr: 0x47E0, symSize: 0x38 }
  - { offset: 0x4095, size: 0x8, addend: 0x0, symName: __ZN4pyo35impl_16extract_argument29extract_argument_with_default17h4772ae7d620dee71E, symObjAddr: 0x1550, symBinAddr: 0x4818, symSize: 0x8C }
  - { offset: 0x4111, size: 0x8, addend: 0x0, symName: __ZN4pyo35impl_16extract_argument29extract_argument_with_default17hd84488f757492610E, symObjAddr: 0x15DC, symBinAddr: 0x48A4, symSize: 0x8C }
  - { offset: 0x4192, size: 0x8, addend: 0x0, symName: '__ZN71_$LT$T$u20$as$u20$pyo3..impl_..extract_argument..PyFunctionArgument$GT$7extract17h33e4f944e49110b3E', symObjAddr: 0x1668, symBinAddr: 0x4930, symSize: 0x28 }
  - { offset: 0x41D1, size: 0x8, addend: 0x0, symName: '__ZN71_$LT$T$u20$as$u20$pyo3..impl_..extract_argument..PyFunctionArgument$GT$7extract17hc9360e99a7fadabaE', symObjAddr: 0x1690, symBinAddr: 0x4958, symSize: 0x28 }
  - { offset: 0x4210, size: 0x8, addend: 0x0, symName: '__ZN71_$LT$T$u20$as$u20$pyo3..impl_..extract_argument..PyFunctionArgument$GT$7extract17hd085ea1a50b62a6eE', symObjAddr: 0x16B8, symBinAddr: 0x4980, symSize: 0x28 }
  - { offset: 0x424F, size: 0x8, addend: 0x0, symName: '__ZN71_$LT$T$u20$as$u20$pyo3..impl_..extract_argument..PyFunctionArgument$GT$7extract17hd6795b2b1ca20b74E', symObjAddr: 0x16E0, symBinAddr: 0x49A8, symSize: 0x28 }
  - { offset: 0x4D9B, size: 0x8, addend: 0x0, symName: __ZN4pyo35impl_16extract_argument19FunctionDescription13handle_kwargs17hbcc2e11a07219ad4E, symObjAddr: 0x768, symBinAddr: 0x3A30, symSize: 0x70C }
  - { offset: 0x4FBA, size: 0x8, addend: 0x0, symName: __ZN4pyo35impl_16extract_argument19FunctionDescription26extract_arguments_fastcall17hed74a61125898ea7E, symObjAddr: 0xE74, symBinAddr: 0x413C, symSize: 0x638 }
  - { offset: 0x55DB, size: 0x8, addend: 0x0, symName: '__ZN101_$LT$rustfft..neon..neon_prime_butterflies..NeonF32Butterfly7$LT$T$GT$$u20$as$u20$rustfft..Length$GT$3len17hb046103e500ed64cE', symObjAddr: 0x0, symBinAddr: 0x49D0, symSize: 0x18 }
  - { offset: 0x662B, size: 0x8, addend: 0x0, symName: '__ZN101_$LT$rustfft..neon..neon_prime_butterflies..NeonF32Butterfly7$LT$T$GT$$u20$as$u20$rustfft..Length$GT$3len17hb046103e500ed64cE', symObjAddr: 0x0, symBinAddr: 0x49D0, symSize: 0x18 }
  - { offset: 0x6666, size: 0x8, addend: 0x0, symName: '__ZN101_$LT$rustfft..neon..neon_prime_butterflies..NeonF64Butterfly7$LT$T$GT$$u20$as$u20$rustfft..Length$GT$3len17hc7725e44c4a24b85E', symObjAddr: 0x18, symBinAddr: 0x49E8, symSize: 0x18 }
  - { offset: 0x66A1, size: 0x8, addend: 0x0, symName: '__ZN102_$LT$rustfft..neon..neon_prime_butterflies..NeonF32Butterfly11$LT$T$GT$$u20$as$u20$rustfft..Length$GT$3len17h6fc4c3bc1ea577afE', symObjAddr: 0x30, symBinAddr: 0x4A00, symSize: 0x18 }
  - { offset: 0x66DC, size: 0x8, addend: 0x0, symName: '__ZN102_$LT$rustfft..neon..neon_prime_butterflies..NeonF32Butterfly13$LT$T$GT$$u20$as$u20$rustfft..Length$GT$3len17hb6892e2336361432E', symObjAddr: 0x48, symBinAddr: 0x4A18, symSize: 0x18 }
  - { offset: 0x6717, size: 0x8, addend: 0x0, symName: '__ZN102_$LT$rustfft..neon..neon_prime_butterflies..NeonF32Butterfly17$LT$T$GT$$u20$as$u20$rustfft..Length$GT$3len17h0e289c8090f74327E', symObjAddr: 0x60, symBinAddr: 0x4A30, symSize: 0x18 }
  - { offset: 0x6752, size: 0x8, addend: 0x0, symName: '__ZN102_$LT$rustfft..neon..neon_prime_butterflies..NeonF32Butterfly19$LT$T$GT$$u20$as$u20$rustfft..Length$GT$3len17hbe37223138b007e5E', symObjAddr: 0x78, symBinAddr: 0x4A48, symSize: 0x18 }
  - { offset: 0x678D, size: 0x8, addend: 0x0, symName: '__ZN102_$LT$rustfft..neon..neon_prime_butterflies..NeonF32Butterfly23$LT$T$GT$$u20$as$u20$rustfft..Length$GT$3len17h195b8ed7ec52bdecE', symObjAddr: 0x90, symBinAddr: 0x4A60, symSize: 0x18 }
  - { offset: 0x67C8, size: 0x8, addend: 0x0, symName: '__ZN102_$LT$rustfft..neon..neon_prime_butterflies..NeonF32Butterfly29$LT$T$GT$$u20$as$u20$rustfft..Length$GT$3len17hf65b1d31336a9210E', symObjAddr: 0xA8, symBinAddr: 0x4A78, symSize: 0x18 }
  - { offset: 0x6803, size: 0x8, addend: 0x0, symName: '__ZN102_$LT$rustfft..neon..neon_prime_butterflies..NeonF32Butterfly31$LT$T$GT$$u20$as$u20$rustfft..Length$GT$3len17he7e4456c8964c6feE', symObjAddr: 0xC0, symBinAddr: 0x4A90, symSize: 0x18 }
  - { offset: 0x683E, size: 0x8, addend: 0x0, symName: '__ZN102_$LT$rustfft..neon..neon_prime_butterflies..NeonF64Butterfly11$LT$T$GT$$u20$as$u20$rustfft..Length$GT$3len17hd8f7cf13b1363d64E', symObjAddr: 0xD8, symBinAddr: 0x4AA8, symSize: 0x18 }
  - { offset: 0x6879, size: 0x8, addend: 0x0, symName: '__ZN102_$LT$rustfft..neon..neon_prime_butterflies..NeonF64Butterfly13$LT$T$GT$$u20$as$u20$rustfft..Length$GT$3len17h15acb8b7e8839e26E', symObjAddr: 0xF0, symBinAddr: 0x4AC0, symSize: 0x18 }
  - { offset: 0x68B4, size: 0x8, addend: 0x0, symName: '__ZN102_$LT$rustfft..neon..neon_prime_butterflies..NeonF64Butterfly17$LT$T$GT$$u20$as$u20$rustfft..Length$GT$3len17hb59b1e425131faecE', symObjAddr: 0x108, symBinAddr: 0x4AD8, symSize: 0x18 }
  - { offset: 0x68EF, size: 0x8, addend: 0x0, symName: '__ZN102_$LT$rustfft..neon..neon_prime_butterflies..NeonF64Butterfly19$LT$T$GT$$u20$as$u20$rustfft..Length$GT$3len17h21342645463c9054E', symObjAddr: 0x120, symBinAddr: 0x4AF0, symSize: 0x18 }
  - { offset: 0x692A, size: 0x8, addend: 0x0, symName: '__ZN102_$LT$rustfft..neon..neon_prime_butterflies..NeonF64Butterfly23$LT$T$GT$$u20$as$u20$rustfft..Length$GT$3len17h478e2f6dfc3f4453E', symObjAddr: 0x138, symBinAddr: 0x4B08, symSize: 0x18 }
  - { offset: 0x6965, size: 0x8, addend: 0x0, symName: '__ZN102_$LT$rustfft..neon..neon_prime_butterflies..NeonF64Butterfly29$LT$T$GT$$u20$as$u20$rustfft..Length$GT$3len17hbbcb6e8901e5ebebE', symObjAddr: 0x150, symBinAddr: 0x4B20, symSize: 0x18 }
  - { offset: 0x69A0, size: 0x8, addend: 0x0, symName: '__ZN102_$LT$rustfft..neon..neon_prime_butterflies..NeonF64Butterfly31$LT$T$GT$$u20$as$u20$rustfft..Length$GT$3len17h1200a985eca1d2f7E', symObjAddr: 0x168, symBinAddr: 0x4B38, symSize: 0x18 }
  - { offset: 0x69DB, size: 0x8, addend: 0x0, symName: '__ZN104_$LT$rustfft..neon..neon_prime_butterflies..NeonF32Butterfly7$LT$T$GT$$u20$as$u20$rustfft..Direction$GT$13fft_direction17h8e0e4b2594cfc72aE', symObjAddr: 0x180, symBinAddr: 0x4B50, symSize: 0x30 }
  - { offset: 0x6A15, size: 0x8, addend: 0x0, symName: '__ZN104_$LT$rustfft..neon..neon_prime_butterflies..NeonF32Butterfly7$LT$T$GT$$u20$as$u20$rustfft..Direction$GT$13fft_direction28_$u7b$$u7b$closure$u7d$$u7d$17hdb00145277f8892cE', symObjAddr: 0x1B0, symBinAddr: 0x4B80, symSize: 0x20 }
  - { offset: 0x6A62, size: 0x8, addend: 0x0, symName: '__ZN104_$LT$rustfft..neon..neon_prime_butterflies..NeonF64Butterfly7$LT$T$GT$$u20$as$u20$rustfft..Direction$GT$13fft_direction17h5843b31b0494b29fE', symObjAddr: 0x1D0, symBinAddr: 0x4BA0, symSize: 0x30 }
  - { offset: 0x6A9C, size: 0x8, addend: 0x0, symName: '__ZN104_$LT$rustfft..neon..neon_prime_butterflies..NeonF64Butterfly7$LT$T$GT$$u20$as$u20$rustfft..Direction$GT$13fft_direction28_$u7b$$u7b$closure$u7d$$u7d$17h429f8535bbed5fb6E', symObjAddr: 0x200, symBinAddr: 0x4BD0, symSize: 0x20 }
  - { offset: 0x6AE9, size: 0x8, addend: 0x0, symName: '__ZN105_$LT$rustfft..neon..neon_prime_butterflies..NeonF32Butterfly11$LT$T$GT$$u20$as$u20$rustfft..Direction$GT$13fft_direction17h0e1b0c1f427051c3E', symObjAddr: 0x220, symBinAddr: 0x4BF0, symSize: 0x30 }
  - { offset: 0x6B23, size: 0x8, addend: 0x0, symName: '__ZN105_$LT$rustfft..neon..neon_prime_butterflies..NeonF32Butterfly11$LT$T$GT$$u20$as$u20$rustfft..Direction$GT$13fft_direction28_$u7b$$u7b$closure$u7d$$u7d$17h8c41369583f6e534E', symObjAddr: 0x250, symBinAddr: 0x4C20, symSize: 0x20 }
  - { offset: 0x6B73, size: 0x8, addend: 0x0, symName: '__ZN105_$LT$rustfft..neon..neon_prime_butterflies..NeonF32Butterfly13$LT$T$GT$$u20$as$u20$rustfft..Direction$GT$13fft_direction17h74a556c9fbf4ae81E', symObjAddr: 0x270, symBinAddr: 0x4C40, symSize: 0x30 }
  - { offset: 0x6BAD, size: 0x8, addend: 0x0, symName: '__ZN105_$LT$rustfft..neon..neon_prime_butterflies..NeonF32Butterfly13$LT$T$GT$$u20$as$u20$rustfft..Direction$GT$13fft_direction28_$u7b$$u7b$closure$u7d$$u7d$17hefc12e12ddb828f3E', symObjAddr: 0x2A0, symBinAddr: 0x4C70, symSize: 0x20 }
  - { offset: 0x6BFD, size: 0x8, addend: 0x0, symName: '__ZN105_$LT$rustfft..neon..neon_prime_butterflies..NeonF32Butterfly17$LT$T$GT$$u20$as$u20$rustfft..Direction$GT$13fft_direction17ha19730c14538563fE', symObjAddr: 0x2C0, symBinAddr: 0x4C90, symSize: 0x30 }
  - { offset: 0x6C37, size: 0x8, addend: 0x0, symName: '__ZN105_$LT$rustfft..neon..neon_prime_butterflies..NeonF32Butterfly17$LT$T$GT$$u20$as$u20$rustfft..Direction$GT$13fft_direction28_$u7b$$u7b$closure$u7d$$u7d$17h2cd6f5487f6d34d7E', symObjAddr: 0x2F0, symBinAddr: 0x4CC0, symSize: 0x20 }
  - { offset: 0x6C87, size: 0x8, addend: 0x0, symName: '__ZN105_$LT$rustfft..neon..neon_prime_butterflies..NeonF32Butterfly19$LT$T$GT$$u20$as$u20$rustfft..Direction$GT$13fft_direction17hdc030cd0346da589E', symObjAddr: 0x310, symBinAddr: 0x4CE0, symSize: 0x30 }
  - { offset: 0x6CC1, size: 0x8, addend: 0x0, symName: '__ZN105_$LT$rustfft..neon..neon_prime_butterflies..NeonF32Butterfly19$LT$T$GT$$u20$as$u20$rustfft..Direction$GT$13fft_direction28_$u7b$$u7b$closure$u7d$$u7d$17hae11fffc4036423cE', symObjAddr: 0x340, symBinAddr: 0x4D10, symSize: 0x20 }
  - { offset: 0x6D11, size: 0x8, addend: 0x0, symName: '__ZN105_$LT$rustfft..neon..neon_prime_butterflies..NeonF32Butterfly23$LT$T$GT$$u20$as$u20$rustfft..Direction$GT$13fft_direction17h3588cf877dde66aaE', symObjAddr: 0x360, symBinAddr: 0x4D30, symSize: 0x30 }
  - { offset: 0x6D4B, size: 0x8, addend: 0x0, symName: '__ZN105_$LT$rustfft..neon..neon_prime_butterflies..NeonF32Butterfly23$LT$T$GT$$u20$as$u20$rustfft..Direction$GT$13fft_direction28_$u7b$$u7b$closure$u7d$$u7d$17h6c91c40d7805060fE', symObjAddr: 0x390, symBinAddr: 0x4D60, symSize: 0x20 }
  - { offset: 0x6D9B, size: 0x8, addend: 0x0, symName: '__ZN105_$LT$rustfft..neon..neon_prime_butterflies..NeonF32Butterfly29$LT$T$GT$$u20$as$u20$rustfft..Direction$GT$13fft_direction17h7225c58a841a55d3E', symObjAddr: 0x3B0, symBinAddr: 0x4D80, symSize: 0x30 }
  - { offset: 0x6DD5, size: 0x8, addend: 0x0, symName: '__ZN105_$LT$rustfft..neon..neon_prime_butterflies..NeonF32Butterfly29$LT$T$GT$$u20$as$u20$rustfft..Direction$GT$13fft_direction28_$u7b$$u7b$closure$u7d$$u7d$17haf0d5e72f38051ceE', symObjAddr: 0x3E0, symBinAddr: 0x4DB0, symSize: 0x20 }
  - { offset: 0x6E25, size: 0x8, addend: 0x0, symName: '__ZN105_$LT$rustfft..neon..neon_prime_butterflies..NeonF32Butterfly31$LT$T$GT$$u20$as$u20$rustfft..Direction$GT$13fft_direction17h63a960cf762c3c1bE', symObjAddr: 0x400, symBinAddr: 0x4DD0, symSize: 0x30 }
  - { offset: 0x6E5F, size: 0x8, addend: 0x0, symName: '__ZN105_$LT$rustfft..neon..neon_prime_butterflies..NeonF32Butterfly31$LT$T$GT$$u20$as$u20$rustfft..Direction$GT$13fft_direction28_$u7b$$u7b$closure$u7d$$u7d$17he3cfd250737adc7fE', symObjAddr: 0x430, symBinAddr: 0x4E00, symSize: 0x20 }
  - { offset: 0x6EAF, size: 0x8, addend: 0x0, symName: '__ZN105_$LT$rustfft..neon..neon_prime_butterflies..NeonF64Butterfly11$LT$T$GT$$u20$as$u20$rustfft..Direction$GT$13fft_direction17h8f23b884935bd12aE', symObjAddr: 0x450, symBinAddr: 0x4E20, symSize: 0x30 }
  - { offset: 0x6EE9, size: 0x8, addend: 0x0, symName: '__ZN105_$LT$rustfft..neon..neon_prime_butterflies..NeonF64Butterfly11$LT$T$GT$$u20$as$u20$rustfft..Direction$GT$13fft_direction28_$u7b$$u7b$closure$u7d$$u7d$17h16eb59a2159d1a1dE', symObjAddr: 0x480, symBinAddr: 0x4E50, symSize: 0x20 }
  - { offset: 0x6F39, size: 0x8, addend: 0x0, symName: '__ZN105_$LT$rustfft..neon..neon_prime_butterflies..NeonF64Butterfly13$LT$T$GT$$u20$as$u20$rustfft..Direction$GT$13fft_direction17h3a4d7e40291c4ce4E', symObjAddr: 0x4A0, symBinAddr: 0x4E70, symSize: 0x30 }
  - { offset: 0x6F73, size: 0x8, addend: 0x0, symName: '__ZN105_$LT$rustfft..neon..neon_prime_butterflies..NeonF64Butterfly13$LT$T$GT$$u20$as$u20$rustfft..Direction$GT$13fft_direction28_$u7b$$u7b$closure$u7d$$u7d$17hda6237dace21e883E', symObjAddr: 0x4D0, symBinAddr: 0x4EA0, symSize: 0x20 }
  - { offset: 0x6FC3, size: 0x8, addend: 0x0, symName: '__ZN105_$LT$rustfft..neon..neon_prime_butterflies..NeonF64Butterfly17$LT$T$GT$$u20$as$u20$rustfft..Direction$GT$13fft_direction17hadec7c3139c28aa1E', symObjAddr: 0x4F0, symBinAddr: 0x4EC0, symSize: 0x30 }
  - { offset: 0x6FFD, size: 0x8, addend: 0x0, symName: '__ZN105_$LT$rustfft..neon..neon_prime_butterflies..NeonF64Butterfly17$LT$T$GT$$u20$as$u20$rustfft..Direction$GT$13fft_direction28_$u7b$$u7b$closure$u7d$$u7d$17h484dd59de06a1548E', symObjAddr: 0x520, symBinAddr: 0x4EF0, symSize: 0x20 }
  - { offset: 0x704D, size: 0x8, addend: 0x0, symName: '__ZN105_$LT$rustfft..neon..neon_prime_butterflies..NeonF64Butterfly19$LT$T$GT$$u20$as$u20$rustfft..Direction$GT$13fft_direction17hc28ff8f0c86be5a6E', symObjAddr: 0x540, symBinAddr: 0x4F10, symSize: 0x30 }
  - { offset: 0x7087, size: 0x8, addend: 0x0, symName: '__ZN105_$LT$rustfft..neon..neon_prime_butterflies..NeonF64Butterfly19$LT$T$GT$$u20$as$u20$rustfft..Direction$GT$13fft_direction28_$u7b$$u7b$closure$u7d$$u7d$17h08fb7485b89db4edE', symObjAddr: 0x570, symBinAddr: 0x4F40, symSize: 0x20 }
  - { offset: 0x70D7, size: 0x8, addend: 0x0, symName: '__ZN105_$LT$rustfft..neon..neon_prime_butterflies..NeonF64Butterfly23$LT$T$GT$$u20$as$u20$rustfft..Direction$GT$13fft_direction17h013d733de44087ffE', symObjAddr: 0x590, symBinAddr: 0x4F60, symSize: 0x30 }
  - { offset: 0x7111, size: 0x8, addend: 0x0, symName: '__ZN105_$LT$rustfft..neon..neon_prime_butterflies..NeonF64Butterfly23$LT$T$GT$$u20$as$u20$rustfft..Direction$GT$13fft_direction28_$u7b$$u7b$closure$u7d$$u7d$17hef746c9b765b3c9eE', symObjAddr: 0x5C0, symBinAddr: 0x4F90, symSize: 0x20 }
  - { offset: 0x7161, size: 0x8, addend: 0x0, symName: '__ZN105_$LT$rustfft..neon..neon_prime_butterflies..NeonF64Butterfly29$LT$T$GT$$u20$as$u20$rustfft..Direction$GT$13fft_direction17hf4256d3b9c16d5baE', symObjAddr: 0x5E0, symBinAddr: 0x4FB0, symSize: 0x30 }
  - { offset: 0x719B, size: 0x8, addend: 0x0, symName: '__ZN105_$LT$rustfft..neon..neon_prime_butterflies..NeonF64Butterfly29$LT$T$GT$$u20$as$u20$rustfft..Direction$GT$13fft_direction28_$u7b$$u7b$closure$u7d$$u7d$17h0ea12248ebcdb160E', symObjAddr: 0x610, symBinAddr: 0x4FE0, symSize: 0x20 }
  - { offset: 0x71EB, size: 0x8, addend: 0x0, symName: '__ZN105_$LT$rustfft..neon..neon_prime_butterflies..NeonF64Butterfly31$LT$T$GT$$u20$as$u20$rustfft..Direction$GT$13fft_direction17hc24aad67de7e4306E', symObjAddr: 0x630, symBinAddr: 0x5000, symSize: 0x30 }
  - { offset: 0x7225, size: 0x8, addend: 0x0, symName: '__ZN105_$LT$rustfft..neon..neon_prime_butterflies..NeonF64Butterfly31$LT$T$GT$$u20$as$u20$rustfft..Direction$GT$13fft_direction28_$u7b$$u7b$closure$u7d$$u7d$17ha04a6187f7ccf373E', symObjAddr: 0x660, symBinAddr: 0x5030, symSize: 0x20 }
  - { offset: 0x7275, size: 0x8, addend: 0x0, symName: '__ZN107_$LT$rustfft..neon..neon_prime_butterflies..NeonF32Butterfly7$LT$T$GT$$u20$as$u20$rustfft..Fft$LT$T$GT$$GT$20process_with_scratch17he27ed7ccf6560c11E', symObjAddr: 0x680, symBinAddr: 0x5050, symSize: 0x6C }
  - { offset: 0x72E4, size: 0x8, addend: 0x0, symName: '__ZN107_$LT$rustfft..neon..neon_prime_butterflies..NeonF32Butterfly7$LT$T$GT$$u20$as$u20$rustfft..Fft$LT$T$GT$$GT$20process_with_scratch28_$u7b$$u7b$closure$u7d$$u7d$17h7a87e7bfc437c657E', symObjAddr: 0x6EC, symBinAddr: 0x50BC, symSize: 0x20F0 }
  - { offset: 0x8516, size: 0x8, addend: 0x0, symName: '__ZN107_$LT$rustfft..neon..neon_prime_butterflies..NeonF32Butterfly7$LT$T$GT$$u20$as$u20$rustfft..Fft$LT$T$GT$$GT$20process_with_scratch28_$u7b$$u7b$closure$u7d$$u7d$17hc46d0f694260b1fcE', symObjAddr: 0x27DC, symBinAddr: 0x71AC, symSize: 0x19C4 }
  - { offset: 0x95AE, size: 0x8, addend: 0x0, symName: '__ZN107_$LT$rustfft..neon..neon_prime_butterflies..NeonF32Butterfly7$LT$T$GT$$u20$as$u20$rustfft..Fft$LT$T$GT$$GT$23get_inplace_scratch_len17ha9911524e61933cdE', symObjAddr: 0x41A0, symBinAddr: 0x8B70, symSize: 0x14 }
  - { offset: 0x95E3, size: 0x8, addend: 0x0, symName: '__ZN107_$LT$rustfft..neon..neon_prime_butterflies..NeonF32Butterfly7$LT$T$GT$$u20$as$u20$rustfft..Fft$LT$T$GT$$GT$25get_immutable_scratch_len17h1211b441b9c431d7E', symObjAddr: 0x41B4, symBinAddr: 0x8B84, symSize: 0x14 }
  - { offset: 0x9618, size: 0x8, addend: 0x0, symName: '__ZN107_$LT$rustfft..neon..neon_prime_butterflies..NeonF32Butterfly7$LT$T$GT$$u20$as$u20$rustfft..Fft$LT$T$GT$$GT$26get_outofplace_scratch_len17h253f49ea78d49969E', symObjAddr: 0x41C8, symBinAddr: 0x8B98, symSize: 0x14 }
  - { offset: 0x964D, size: 0x8, addend: 0x0, symName: '__ZN107_$LT$rustfft..neon..neon_prime_butterflies..NeonF32Butterfly7$LT$T$GT$$u20$as$u20$rustfft..Fft$LT$T$GT$$GT$30process_immutable_with_scratch17h72cb7aeac02c36aeE', symObjAddr: 0x41DC, symBinAddr: 0x8BAC, symSize: 0xB0 }
  - { offset: 0x96E8, size: 0x8, addend: 0x0, symName: '__ZN107_$LT$rustfft..neon..neon_prime_butterflies..NeonF32Butterfly7$LT$T$GT$$u20$as$u20$rustfft..Fft$LT$T$GT$$GT$30process_immutable_with_scratch28_$u7b$$u7b$closure$u7d$$u7d$17h1a7328763f2d5907E', symObjAddr: 0x428C, symBinAddr: 0x8C5C, symSize: 0x224C }
  - { offset: 0xAB90, size: 0x8, addend: 0x0, symName: '__ZN107_$LT$rustfft..neon..neon_prime_butterflies..NeonF32Butterfly7$LT$T$GT$$u20$as$u20$rustfft..Fft$LT$T$GT$$GT$30process_immutable_with_scratch28_$u7b$$u7b$closure$u7d$$u7d$17h5eaf2aa6586a6a74E', symObjAddr: 0x64D8, symBinAddr: 0xAEA8, symSize: 0x1AE4 }
  - { offset: 0xBE9E, size: 0x8, addend: 0x0, symName: '__ZN107_$LT$rustfft..neon..neon_prime_butterflies..NeonF32Butterfly7$LT$T$GT$$u20$as$u20$rustfft..Fft$LT$T$GT$$GT$31process_outofplace_with_scratch17hfe28a63729dde444E', symObjAddr: 0x7FBC, symBinAddr: 0xC98C, symSize: 0xB0 }
  - { offset: 0xBF39, size: 0x8, addend: 0x0, symName: '__ZN107_$LT$rustfft..neon..neon_prime_butterflies..NeonF32Butterfly7$LT$T$GT$$u20$as$u20$rustfft..Fft$LT$T$GT$$GT$31process_outofplace_with_scratch28_$u7b$$u7b$closure$u7d$$u7d$17h340b52377eee5ca5E', symObjAddr: 0x806C, symBinAddr: 0xCA3C, symSize: 0x1AE4 }
  - { offset: 0xD246, size: 0x8, addend: 0x0, symName: '__ZN107_$LT$rustfft..neon..neon_prime_butterflies..NeonF32Butterfly7$LT$T$GT$$u20$as$u20$rustfft..Fft$LT$T$GT$$GT$31process_outofplace_with_scratch28_$u7b$$u7b$closure$u7d$$u7d$17hce601bbe3436bb06E', symObjAddr: 0x9B50, symBinAddr: 0xE520, symSize: 0x224C }
  - { offset: 0xE6F5, size: 0x8, addend: 0x0, symName: '__ZN107_$LT$rustfft..neon..neon_prime_butterflies..NeonF64Butterfly7$LT$T$GT$$u20$as$u20$rustfft..Fft$LT$T$GT$$GT$20process_with_scratch17h8b55bead374585feE', symObjAddr: 0xBD9C, symBinAddr: 0x1076C, symSize: 0x78 }
  - { offset: 0xE764, size: 0x8, addend: 0x0, symName: '__ZN107_$LT$rustfft..neon..neon_prime_butterflies..NeonF64Butterfly7$LT$T$GT$$u20$as$u20$rustfft..Fft$LT$T$GT$$GT$20process_with_scratch28_$u7b$$u7b$closure$u7d$$u7d$17h52c8b4ddcab7ef0aE', symObjAddr: 0xBE14, symBinAddr: 0x107E4, symSize: 0x185C }
  - { offset: 0xF74A, size: 0x8, addend: 0x0, symName: '__ZN107_$LT$rustfft..neon..neon_prime_butterflies..NeonF64Butterfly7$LT$T$GT$$u20$as$u20$rustfft..Fft$LT$T$GT$$GT$23get_inplace_scratch_len17h52c614e11048b300E', symObjAddr: 0xD670, symBinAddr: 0x12040, symSize: 0x14 }
  - { offset: 0xF77F, size: 0x8, addend: 0x0, symName: '__ZN107_$LT$rustfft..neon..neon_prime_butterflies..NeonF64Butterfly7$LT$T$GT$$u20$as$u20$rustfft..Fft$LT$T$GT$$GT$25get_immutable_scratch_len17haa212911d5062702E', symObjAddr: 0xD684, symBinAddr: 0x12054, symSize: 0x14 }
  - { offset: 0xF7B4, size: 0x8, addend: 0x0, symName: '__ZN107_$LT$rustfft..neon..neon_prime_butterflies..NeonF64Butterfly7$LT$T$GT$$u20$as$u20$rustfft..Fft$LT$T$GT$$GT$26get_outofplace_scratch_len17h431fed9ca6cfc932E', symObjAddr: 0xD698, symBinAddr: 0x12068, symSize: 0x14 }
  - { offset: 0xF7E9, size: 0x8, addend: 0x0, symName: '__ZN107_$LT$rustfft..neon..neon_prime_butterflies..NeonF64Butterfly7$LT$T$GT$$u20$as$u20$rustfft..Fft$LT$T$GT$$GT$30process_immutable_with_scratch17h3ebd3e9752c898deE', symObjAddr: 0xD6AC, symBinAddr: 0x1207C, symSize: 0xC4 }
  - { offset: 0xF884, size: 0x8, addend: 0x0, symName: '__ZN107_$LT$rustfft..neon..neon_prime_butterflies..NeonF64Butterfly7$LT$T$GT$$u20$as$u20$rustfft..Fft$LT$T$GT$$GT$30process_immutable_with_scratch28_$u7b$$u7b$closure$u7d$$u7d$17h184fe5b5cd6dc5b7E', symObjAddr: 0xD770, symBinAddr: 0x12140, symSize: 0x1A34 }
  - { offset: 0x10AE0, size: 0x8, addend: 0x0, symName: '__ZN107_$LT$rustfft..neon..neon_prime_butterflies..NeonF64Butterfly7$LT$T$GT$$u20$as$u20$rustfft..Fft$LT$T$GT$$GT$31process_outofplace_with_scratch17h01780cce85489b34E', symObjAddr: 0xF1A4, symBinAddr: 0x13B74, symSize: 0xC4 }
  - { offset: 0x10B7B, size: 0x8, addend: 0x0, symName: '__ZN107_$LT$rustfft..neon..neon_prime_butterflies..NeonF64Butterfly7$LT$T$GT$$u20$as$u20$rustfft..Fft$LT$T$GT$$GT$31process_outofplace_with_scratch28_$u7b$$u7b$closure$u7d$$u7d$17hd9dfe91e5592d94bE', symObjAddr: 0xF268, symBinAddr: 0x13C38, symSize: 0x1A34 }
  - { offset: 0x11DDD, size: 0x8, addend: 0x0, symName: '__ZN108_$LT$rustfft..neon..neon_prime_butterflies..NeonF32Butterfly11$LT$T$GT$$u20$as$u20$rustfft..Fft$LT$T$GT$$GT$20process_with_scratch17ha14e8564fef83c5cE', symObjAddr: 0x10C9C, symBinAddr: 0x1566C, symSize: 0x6C }
  - { offset: 0x11E4C, size: 0x8, addend: 0x0, symName: '__ZN108_$LT$rustfft..neon..neon_prime_butterflies..NeonF32Butterfly11$LT$T$GT$$u20$as$u20$rustfft..Fft$LT$T$GT$$GT$20process_with_scratch28_$u7b$$u7b$closure$u7d$$u7d$17had9154921b7e319fE', symObjAddr: 0x10D08, symBinAddr: 0x156D8, symSize: 0x3EEC }
  - { offset: 0x141A9, size: 0x8, addend: 0x0, symName: '__ZN108_$LT$rustfft..neon..neon_prime_butterflies..NeonF32Butterfly11$LT$T$GT$$u20$as$u20$rustfft..Fft$LT$T$GT$$GT$20process_with_scratch28_$u7b$$u7b$closure$u7d$$u7d$17hfc4eb25e52478dafE', symObjAddr: 0x14BF4, symBinAddr: 0x195C4, symSize: 0x3294 }
  - { offset: 0x16241, size: 0x8, addend: 0x0, symName: '__ZN108_$LT$rustfft..neon..neon_prime_butterflies..NeonF32Butterfly11$LT$T$GT$$u20$as$u20$rustfft..Fft$LT$T$GT$$GT$23get_inplace_scratch_len17hc2e1c0432b9f9126E', symObjAddr: 0x17E88, symBinAddr: 0x1C858, symSize: 0x14 }
  - { offset: 0x16276, size: 0x8, addend: 0x0, symName: '__ZN108_$LT$rustfft..neon..neon_prime_butterflies..NeonF32Butterfly11$LT$T$GT$$u20$as$u20$rustfft..Fft$LT$T$GT$$GT$25get_immutable_scratch_len17hd8ada37217511539E', symObjAddr: 0x17E9C, symBinAddr: 0x1C86C, symSize: 0x14 }
  - { offset: 0x162AB, size: 0x8, addend: 0x0, symName: '__ZN108_$LT$rustfft..neon..neon_prime_butterflies..NeonF32Butterfly11$LT$T$GT$$u20$as$u20$rustfft..Fft$LT$T$GT$$GT$26get_outofplace_scratch_len17h8c69a3f007e21e5dE', symObjAddr: 0x17EB0, symBinAddr: 0x1C880, symSize: 0x14 }
  - { offset: 0x162E0, size: 0x8, addend: 0x0, symName: '__ZN108_$LT$rustfft..neon..neon_prime_butterflies..NeonF32Butterfly11$LT$T$GT$$u20$as$u20$rustfft..Fft$LT$T$GT$$GT$30process_immutable_with_scratch17hb1e3da39ca4f3a47E', symObjAddr: 0x17EC4, symBinAddr: 0x1C894, symSize: 0xB0 }
  - { offset: 0x1637B, size: 0x8, addend: 0x0, symName: '__ZN108_$LT$rustfft..neon..neon_prime_butterflies..NeonF32Butterfly11$LT$T$GT$$u20$as$u20$rustfft..Fft$LT$T$GT$$GT$30process_immutable_with_scratch28_$u7b$$u7b$closure$u7d$$u7d$17h467b3a81abbe5f92E', symObjAddr: 0x17F74, symBinAddr: 0x1C944, symSize: 0x3438 }
  - { offset: 0x187EC, size: 0x8, addend: 0x0, symName: '__ZN108_$LT$rustfft..neon..neon_prime_butterflies..NeonF32Butterfly11$LT$T$GT$$u20$as$u20$rustfft..Fft$LT$T$GT$$GT$30process_immutable_with_scratch28_$u7b$$u7b$closure$u7d$$u7d$17he6584865bde6874fE', symObjAddr: 0x1B3AC, symBinAddr: 0x1FD7C, symSize: 0x40AC }
  - { offset: 0x1AF2B, size: 0x8, addend: 0x0, symName: '__ZN108_$LT$rustfft..neon..neon_prime_butterflies..NeonF32Butterfly11$LT$T$GT$$u20$as$u20$rustfft..Fft$LT$T$GT$$GT$31process_outofplace_with_scratch17h359f7c2cb83b9659E', symObjAddr: 0x1F458, symBinAddr: 0x23E28, symSize: 0xB0 }
  - { offset: 0x1AFC6, size: 0x8, addend: 0x0, symName: '__ZN108_$LT$rustfft..neon..neon_prime_butterflies..NeonF32Butterfly11$LT$T$GT$$u20$as$u20$rustfft..Fft$LT$T$GT$$GT$31process_outofplace_with_scratch28_$u7b$$u7b$closure$u7d$$u7d$17h067950f4d5eed3d5E', symObjAddr: 0x1F508, symBinAddr: 0x23ED8, symSize: 0x3438 }
  - { offset: 0x1D437, size: 0x8, addend: 0x0, symName: '__ZN108_$LT$rustfft..neon..neon_prime_butterflies..NeonF32Butterfly11$LT$T$GT$$u20$as$u20$rustfft..Fft$LT$T$GT$$GT$31process_outofplace_with_scratch28_$u7b$$u7b$closure$u7d$$u7d$17haf89ac9ff61ef224E', symObjAddr: 0x22940, symBinAddr: 0x27310, symSize: 0x40AC }
  - { offset: 0x1FB7C, size: 0x8, addend: 0x0, symName: '__ZN108_$LT$rustfft..neon..neon_prime_butterflies..NeonF32Butterfly13$LT$T$GT$$u20$as$u20$rustfft..Fft$LT$T$GT$$GT$20process_with_scratch17h4367cd14c17e2249E', symObjAddr: 0x269EC, symBinAddr: 0x2B3BC, symSize: 0x6C }
  - { offset: 0x1FBEB, size: 0x8, addend: 0x0, symName: '__ZN108_$LT$rustfft..neon..neon_prime_butterflies..NeonF32Butterfly13$LT$T$GT$$u20$as$u20$rustfft..Fft$LT$T$GT$$GT$20process_with_scratch28_$u7b$$u7b$closure$u7d$$u7d$17h486df05bd6969e51E', symObjAddr: 0x26A58, symBinAddr: 0x2B428, symSize: 0x41CC }
  - { offset: 0x226B6, size: 0x8, addend: 0x0, symName: '__ZN108_$LT$rustfft..neon..neon_prime_butterflies..NeonF32Butterfly13$LT$T$GT$$u20$as$u20$rustfft..Fft$LT$T$GT$$GT$20process_with_scratch28_$u7b$$u7b$closure$u7d$$u7d$17hce77377ef619d625E', symObjAddr: 0x2AC24, symBinAddr: 0x2F5F4, symSize: 0x5070 }
  - { offset: 0x254F8, size: 0x8, addend: 0x0, symName: '__ZN108_$LT$rustfft..neon..neon_prime_butterflies..NeonF32Butterfly13$LT$T$GT$$u20$as$u20$rustfft..Fft$LT$T$GT$$GT$23get_inplace_scratch_len17h0556d70e59b29c71E', symObjAddr: 0x2FC94, symBinAddr: 0x34664, symSize: 0x14 }
  - { offset: 0x2552D, size: 0x8, addend: 0x0, symName: '__ZN108_$LT$rustfft..neon..neon_prime_butterflies..NeonF32Butterfly13$LT$T$GT$$u20$as$u20$rustfft..Fft$LT$T$GT$$GT$25get_immutable_scratch_len17h856be7c6ad5bcba5E', symObjAddr: 0x2FCA8, symBinAddr: 0x34678, symSize: 0x14 }
  - { offset: 0x25562, size: 0x8, addend: 0x0, symName: '__ZN108_$LT$rustfft..neon..neon_prime_butterflies..NeonF32Butterfly13$LT$T$GT$$u20$as$u20$rustfft..Fft$LT$T$GT$$GT$26get_outofplace_scratch_len17h5fce75ee5540d094E', symObjAddr: 0x2FCBC, symBinAddr: 0x3468C, symSize: 0x14 }
  - { offset: 0x25597, size: 0x8, addend: 0x0, symName: '__ZN108_$LT$rustfft..neon..neon_prime_butterflies..NeonF32Butterfly13$LT$T$GT$$u20$as$u20$rustfft..Fft$LT$T$GT$$GT$30process_immutable_with_scratch17h42b81b02be9d9800E', symObjAddr: 0x2FCD0, symBinAddr: 0x346A0, symSize: 0xB0 }
  - { offset: 0x25632, size: 0x8, addend: 0x0, symName: '__ZN108_$LT$rustfft..neon..neon_prime_butterflies..NeonF32Butterfly13$LT$T$GT$$u20$as$u20$rustfft..Fft$LT$T$GT$$GT$30process_immutable_with_scratch28_$u7b$$u7b$closure$u7d$$u7d$17h5b753d1386eb4348E', symObjAddr: 0x2FD80, symBinAddr: 0x34750, symSize: 0x4418 }
  - { offset: 0x285AA, size: 0x8, addend: 0x0, symName: '__ZN108_$LT$rustfft..neon..neon_prime_butterflies..NeonF32Butterfly13$LT$T$GT$$u20$as$u20$rustfft..Fft$LT$T$GT$$GT$30process_immutable_with_scratch28_$u7b$$u7b$closure$u7d$$u7d$17hb7b06b0d9cb27dd0E', symObjAddr: 0x34198, symBinAddr: 0x38B68, symSize: 0x525C }
  - { offset: 0x2B884, size: 0x8, addend: 0x0, symName: '__ZN108_$LT$rustfft..neon..neon_prime_butterflies..NeonF32Butterfly13$LT$T$GT$$u20$as$u20$rustfft..Fft$LT$T$GT$$GT$31process_outofplace_with_scratch17h8467c2205c81fffeE', symObjAddr: 0x393F4, symBinAddr: 0x3DDC4, symSize: 0xB0 }
  - { offset: 0x2B91F, size: 0x8, addend: 0x0, symName: '__ZN108_$LT$rustfft..neon..neon_prime_butterflies..NeonF32Butterfly13$LT$T$GT$$u20$as$u20$rustfft..Fft$LT$T$GT$$GT$31process_outofplace_with_scratch28_$u7b$$u7b$closure$u7d$$u7d$17h37895ca12c5c2ee1E', symObjAddr: 0x394A4, symBinAddr: 0x3DE74, symSize: 0x525C }
  - { offset: 0x2EBF8, size: 0x8, addend: 0x0, symName: '__ZN108_$LT$rustfft..neon..neon_prime_butterflies..NeonF32Butterfly13$LT$T$GT$$u20$as$u20$rustfft..Fft$LT$T$GT$$GT$31process_outofplace_with_scratch28_$u7b$$u7b$closure$u7d$$u7d$17ha15ad0fa102910afE', symObjAddr: 0x3E700, symBinAddr: 0x430D0, symSize: 0x4418 }
  - { offset: 0x31B77, size: 0x8, addend: 0x0, symName: '__ZN108_$LT$rustfft..neon..neon_prime_butterflies..NeonF32Butterfly17$LT$T$GT$$u20$as$u20$rustfft..Fft$LT$T$GT$$GT$20process_with_scratch17h77d2ea16269f6525E', symObjAddr: 0x42B18, symBinAddr: 0x474E8, symSize: 0x6C }
  - { offset: 0x31BE6, size: 0x8, addend: 0x0, symName: '__ZN108_$LT$rustfft..neon..neon_prime_butterflies..NeonF32Butterfly17$LT$T$GT$$u20$as$u20$rustfft..Fft$LT$T$GT$$GT$20process_with_scratch28_$u7b$$u7b$closure$u7d$$u7d$17h9144deef59c2ff0eE', symObjAddr: 0x42B84, symBinAddr: 0x47554, symSize: 0x7824 }
  - { offset: 0x36348, size: 0x8, addend: 0x0, symName: '__ZN108_$LT$rustfft..neon..neon_prime_butterflies..NeonF32Butterfly17$LT$T$GT$$u20$as$u20$rustfft..Fft$LT$T$GT$$GT$20process_with_scratch28_$u7b$$u7b$closure$u7d$$u7d$17hd33f752eba7a9881E', symObjAddr: 0x4A3A8, symBinAddr: 0x4ED78, symSize: 0x652C }
  - { offset: 0x3A687, size: 0x8, addend: 0x0, symName: '__ZN108_$LT$rustfft..neon..neon_prime_butterflies..NeonF32Butterfly17$LT$T$GT$$u20$as$u20$rustfft..Fft$LT$T$GT$$GT$23get_inplace_scratch_len17hb4f014e508f32fa3E', symObjAddr: 0x508D4, symBinAddr: 0x552A4, symSize: 0x14 }
  - { offset: 0x3A6BC, size: 0x8, addend: 0x0, symName: '__ZN108_$LT$rustfft..neon..neon_prime_butterflies..NeonF32Butterfly17$LT$T$GT$$u20$as$u20$rustfft..Fft$LT$T$GT$$GT$25get_immutable_scratch_len17h907281759c786b99E', symObjAddr: 0x508E8, symBinAddr: 0x552B8, symSize: 0x14 }
  - { offset: 0x3A6F1, size: 0x8, addend: 0x0, symName: '__ZN108_$LT$rustfft..neon..neon_prime_butterflies..NeonF32Butterfly17$LT$T$GT$$u20$as$u20$rustfft..Fft$LT$T$GT$$GT$26get_outofplace_scratch_len17hdbbcbfbf4c691dc5E', symObjAddr: 0x508FC, symBinAddr: 0x552CC, symSize: 0x14 }
  - { offset: 0x3A726, size: 0x8, addend: 0x0, symName: '__ZN108_$LT$rustfft..neon..neon_prime_butterflies..NeonF32Butterfly17$LT$T$GT$$u20$as$u20$rustfft..Fft$LT$T$GT$$GT$30process_immutable_with_scratch17hc3da7d481af65529E', symObjAddr: 0x50910, symBinAddr: 0x552E0, symSize: 0xB0 }
  - { offset: 0x3A7C1, size: 0x8, addend: 0x0, symName: '__ZN108_$LT$rustfft..neon..neon_prime_butterflies..NeonF32Butterfly17$LT$T$GT$$u20$as$u20$rustfft..Fft$LT$T$GT$$GT$30process_immutable_with_scratch28_$u7b$$u7b$closure$u7d$$u7d$17h0708ac1d7ccba815E', symObjAddr: 0x509C0, symBinAddr: 0x55390, symSize: 0x7AB0 }
  - { offset: 0x3F51B, size: 0x8, addend: 0x0, symName: '__ZN108_$LT$rustfft..neon..neon_prime_butterflies..NeonF32Butterfly17$LT$T$GT$$u20$as$u20$rustfft..Fft$LT$T$GT$$GT$30process_immutable_with_scratch28_$u7b$$u7b$closure$u7d$$u7d$17h0b002587289923f3E', symObjAddr: 0x58470, symBinAddr: 0x5CE40, symSize: 0x67D8 }
  - { offset: 0x43E6B, size: 0x8, addend: 0x0, symName: '__ZN108_$LT$rustfft..neon..neon_prime_butterflies..NeonF32Butterfly17$LT$T$GT$$u20$as$u20$rustfft..Fft$LT$T$GT$$GT$31process_outofplace_with_scratch17hb11ca63c57795c75E', symObjAddr: 0x5EC48, symBinAddr: 0x63618, symSize: 0xB0 }
  - { offset: 0x43F06, size: 0x8, addend: 0x0, symName: '__ZN108_$LT$rustfft..neon..neon_prime_butterflies..NeonF32Butterfly17$LT$T$GT$$u20$as$u20$rustfft..Fft$LT$T$GT$$GT$31process_outofplace_with_scratch28_$u7b$$u7b$closure$u7d$$u7d$17h05d677ce68204003E', symObjAddr: 0x5ECF8, symBinAddr: 0x636C8, symSize: 0x7AB0 }
  - { offset: 0x48C60, size: 0x8, addend: 0x0, symName: '__ZN108_$LT$rustfft..neon..neon_prime_butterflies..NeonF32Butterfly17$LT$T$GT$$u20$as$u20$rustfft..Fft$LT$T$GT$$GT$31process_outofplace_with_scratch28_$u7b$$u7b$closure$u7d$$u7d$17hd19dfef9da5e20ffE', symObjAddr: 0x667A8, symBinAddr: 0x6B178, symSize: 0x67D8 }
  - { offset: 0x4D5B6, size: 0x8, addend: 0x0, symName: '__ZN108_$LT$rustfft..neon..neon_prime_butterflies..NeonF32Butterfly19$LT$T$GT$$u20$as$u20$rustfft..Fft$LT$T$GT$$GT$20process_with_scratch17h73add43bbcf2147fE', symObjAddr: 0x6CF80, symBinAddr: 0x71950, symSize: 0x6C }
  - { offset: 0x4D625, size: 0x8, addend: 0x0, symName: '__ZN108_$LT$rustfft..neon..neon_prime_butterflies..NeonF32Butterfly19$LT$T$GT$$u20$as$u20$rustfft..Fft$LT$T$GT$$GT$20process_with_scratch28_$u7b$$u7b$closure$u7d$$u7d$17h0e367914a8c90742E', symObjAddr: 0x6CFEC, symBinAddr: 0x719BC, symSize: 0x8FAC }
  - { offset: 0x52BBC, size: 0x8, addend: 0x0, symName: '__ZN108_$LT$rustfft..neon..neon_prime_butterflies..NeonF32Butterfly19$LT$T$GT$$u20$as$u20$rustfft..Fft$LT$T$GT$$GT$20process_with_scratch28_$u7b$$u7b$closure$u7d$$u7d$17h21a56692ac70747fE', symObjAddr: 0x75F98, symBinAddr: 0x7A968, symSize: 0x7A48 }
  - { offset: 0x57CD6, size: 0x8, addend: 0x0, symName: '__ZN108_$LT$rustfft..neon..neon_prime_butterflies..NeonF32Butterfly19$LT$T$GT$$u20$as$u20$rustfft..Fft$LT$T$GT$$GT$23get_inplace_scratch_len17h785c7927d9261214E', symObjAddr: 0x7D9E0, symBinAddr: 0x823B0, symSize: 0x14 }
  - { offset: 0x57D0B, size: 0x8, addend: 0x0, symName: '__ZN108_$LT$rustfft..neon..neon_prime_butterflies..NeonF32Butterfly19$LT$T$GT$$u20$as$u20$rustfft..Fft$LT$T$GT$$GT$25get_immutable_scratch_len17hcbc46d2058417840E', symObjAddr: 0x7D9F4, symBinAddr: 0x823C4, symSize: 0x14 }
  - { offset: 0x57D40, size: 0x8, addend: 0x0, symName: '__ZN108_$LT$rustfft..neon..neon_prime_butterflies..NeonF32Butterfly19$LT$T$GT$$u20$as$u20$rustfft..Fft$LT$T$GT$$GT$26get_outofplace_scratch_len17h333e537fe18730bdE', symObjAddr: 0x7DA08, symBinAddr: 0x823D8, symSize: 0x14 }
  - { offset: 0x57D75, size: 0x8, addend: 0x0, symName: '__ZN108_$LT$rustfft..neon..neon_prime_butterflies..NeonF32Butterfly19$LT$T$GT$$u20$as$u20$rustfft..Fft$LT$T$GT$$GT$30process_immutable_with_scratch17h5678f5b2d0d7bd76E', symObjAddr: 0x7DA1C, symBinAddr: 0x823EC, symSize: 0xB0 }
  - { offset: 0x57E10, size: 0x8, addend: 0x0, symName: '__ZN108_$LT$rustfft..neon..neon_prime_butterflies..NeonF32Butterfly19$LT$T$GT$$u20$as$u20$rustfft..Fft$LT$T$GT$$GT$30process_immutable_with_scratch28_$u7b$$u7b$closure$u7d$$u7d$17h3f907ae6dc94a39dE', symObjAddr: 0x7DACC, symBinAddr: 0x8249C, symSize: 0x927C }
  - { offset: 0x5DA93, size: 0x8, addend: 0x0, symName: '__ZN108_$LT$rustfft..neon..neon_prime_butterflies..NeonF32Butterfly19$LT$T$GT$$u20$as$u20$rustfft..Fft$LT$T$GT$$GT$30process_immutable_with_scratch28_$u7b$$u7b$closure$u7d$$u7d$17h59c47e123d00ba27E', symObjAddr: 0x86D48, symBinAddr: 0x8B718, symSize: 0x7D2C }
  - { offset: 0x6325C, size: 0x8, addend: 0x0, symName: '__ZN108_$LT$rustfft..neon..neon_prime_butterflies..NeonF32Butterfly19$LT$T$GT$$u20$as$u20$rustfft..Fft$LT$T$GT$$GT$31process_outofplace_with_scratch17h84f3288b856fb056E', symObjAddr: 0x8EA74, symBinAddr: 0x93444, symSize: 0xB0 }
  - { offset: 0x632F7, size: 0x8, addend: 0x0, symName: '__ZN108_$LT$rustfft..neon..neon_prime_butterflies..NeonF32Butterfly19$LT$T$GT$$u20$as$u20$rustfft..Fft$LT$T$GT$$GT$31process_outofplace_with_scratch28_$u7b$$u7b$closure$u7d$$u7d$17h176d1885e907af5cE', symObjAddr: 0x8EB24, symBinAddr: 0x934F4, symSize: 0x927C }
  - { offset: 0x68F7A, size: 0x8, addend: 0x0, symName: '__ZN108_$LT$rustfft..neon..neon_prime_butterflies..NeonF32Butterfly19$LT$T$GT$$u20$as$u20$rustfft..Fft$LT$T$GT$$GT$31process_outofplace_with_scratch28_$u7b$$u7b$closure$u7d$$u7d$17h24b8565a063a53f2E', symObjAddr: 0x97DA0, symBinAddr: 0x9C770, symSize: 0x7D2C }
  - { offset: 0x6E749, size: 0x8, addend: 0x0, symName: '__ZN108_$LT$rustfft..neon..neon_prime_butterflies..NeonF32Butterfly23$LT$T$GT$$u20$as$u20$rustfft..Fft$LT$T$GT$$GT$20process_with_scratch17h18bfbd3e5de802deE', symObjAddr: 0x9FACC, symBinAddr: 0xA449C, symSize: 0x6C }
  - { offset: 0x6E7B8, size: 0x8, addend: 0x0, symName: '__ZN108_$LT$rustfft..neon..neon_prime_butterflies..NeonF32Butterfly23$LT$T$GT$$u20$as$u20$rustfft..Fft$LT$T$GT$$GT$20process_with_scratch28_$u7b$$u7b$closure$u7d$$u7d$17h78b51608c8ecbfc4E', symObjAddr: 0x9FB38, symBinAddr: 0xA4508, symSize: 0xC224 }
  - { offset: 0x75DF8, size: 0x8, addend: 0x0, symName: '__ZN108_$LT$rustfft..neon..neon_prime_butterflies..NeonF32Butterfly23$LT$T$GT$$u20$as$u20$rustfft..Fft$LT$T$GT$$GT$20process_with_scratch28_$u7b$$u7b$closure$u7d$$u7d$17hbd2400dd54bf078aE', symObjAddr: 0xABD5C, symBinAddr: 0xB072C, symSize: 0xA880 }
  - { offset: 0x7CE64, size: 0x8, addend: 0x0, symName: '__ZN108_$LT$rustfft..neon..neon_prime_butterflies..NeonF32Butterfly23$LT$T$GT$$u20$as$u20$rustfft..Fft$LT$T$GT$$GT$23get_inplace_scratch_len17h632fb79c307292d8E', symObjAddr: 0xB65DC, symBinAddr: 0xBAFAC, symSize: 0x14 }
  - { offset: 0x7CE99, size: 0x8, addend: 0x0, symName: '__ZN108_$LT$rustfft..neon..neon_prime_butterflies..NeonF32Butterfly23$LT$T$GT$$u20$as$u20$rustfft..Fft$LT$T$GT$$GT$25get_immutable_scratch_len17h6cda0d850bff9d17E', symObjAddr: 0xB65F0, symBinAddr: 0xBAFC0, symSize: 0x14 }
  - { offset: 0x7CECE, size: 0x8, addend: 0x0, symName: '__ZN108_$LT$rustfft..neon..neon_prime_butterflies..NeonF32Butterfly23$LT$T$GT$$u20$as$u20$rustfft..Fft$LT$T$GT$$GT$26get_outofplace_scratch_len17h84fc0bdc497b4b40E', symObjAddr: 0xB6604, symBinAddr: 0xBAFD4, symSize: 0x14 }
  - { offset: 0x7CF03, size: 0x8, addend: 0x0, symName: '__ZN108_$LT$rustfft..neon..neon_prime_butterflies..NeonF32Butterfly23$LT$T$GT$$u20$as$u20$rustfft..Fft$LT$T$GT$$GT$30process_immutable_with_scratch17hc378398e7e1ddffeE', symObjAddr: 0xB6618, symBinAddr: 0xBAFE8, symSize: 0xB0 }
  - { offset: 0x7CF9E, size: 0x8, addend: 0x0, symName: '__ZN108_$LT$rustfft..neon..neon_prime_butterflies..NeonF32Butterfly23$LT$T$GT$$u20$as$u20$rustfft..Fft$LT$T$GT$$GT$30process_immutable_with_scratch28_$u7b$$u7b$closure$u7d$$u7d$17h072db646aa900bc8E', symObjAddr: 0xB66C8, symBinAddr: 0xBB098, symSize: 0xABCC }
  - { offset: 0x8487C, size: 0x8, addend: 0x0, symName: '__ZN108_$LT$rustfft..neon..neon_prime_butterflies..NeonF32Butterfly23$LT$T$GT$$u20$as$u20$rustfft..Fft$LT$T$GT$$GT$30process_immutable_with_scratch28_$u7b$$u7b$closure$u7d$$u7d$17h5616beeadc13ae6aE', symObjAddr: 0xC1294, symBinAddr: 0xC5C64, symSize: 0xC574 }
  - { offset: 0x8C713, size: 0x8, addend: 0x0, symName: '__ZN108_$LT$rustfft..neon..neon_prime_butterflies..NeonF32Butterfly23$LT$T$GT$$u20$as$u20$rustfft..Fft$LT$T$GT$$GT$31process_outofplace_with_scratch17hc5ce3a9d55e0ec48E', symObjAddr: 0xCD808, symBinAddr: 0xD21D8, symSize: 0xB0 }
  - { offset: 0x8C7AE, size: 0x8, addend: 0x0, symName: '__ZN108_$LT$rustfft..neon..neon_prime_butterflies..NeonF32Butterfly23$LT$T$GT$$u20$as$u20$rustfft..Fft$LT$T$GT$$GT$31process_outofplace_with_scratch28_$u7b$$u7b$closure$u7d$$u7d$17h746c4ba9ede23c7dE', symObjAddr: 0xCD8B8, symBinAddr: 0xD2288, symSize: 0xABCC }
  - { offset: 0x9408C, size: 0x8, addend: 0x0, symName: '__ZN108_$LT$rustfft..neon..neon_prime_butterflies..NeonF32Butterfly23$LT$T$GT$$u20$as$u20$rustfft..Fft$LT$T$GT$$GT$31process_outofplace_with_scratch28_$u7b$$u7b$closure$u7d$$u7d$17h88c9f20ca2ad7a9dE', symObjAddr: 0xD8484, symBinAddr: 0xDCE54, symSize: 0xC574 }
  - { offset: 0x9BF29, size: 0x8, addend: 0x0, symName: '__ZN108_$LT$rustfft..neon..neon_prime_butterflies..NeonF32Butterfly29$LT$T$GT$$u20$as$u20$rustfft..Fft$LT$T$GT$$GT$20process_with_scratch17hb4c31cfd9cad6bdaE', symObjAddr: 0xE49F8, symBinAddr: 0xE93C8, symSize: 0x6C }
  - { offset: 0x9BF98, size: 0x8, addend: 0x0, symName: '__ZN108_$LT$rustfft..neon..neon_prime_butterflies..NeonF32Butterfly29$LT$T$GT$$u20$as$u20$rustfft..Fft$LT$T$GT$$GT$20process_with_scratch28_$u7b$$u7b$closure$u7d$$u7d$17h5391d126b51d5c54E', symObjAddr: 0xE4A64, symBinAddr: 0xE9434, symSize: 0xFA7C }
  - { offset: 0xA692C, size: 0x8, addend: 0x0, symName: '__ZN108_$LT$rustfft..neon..neon_prime_butterflies..NeonF32Butterfly29$LT$T$GT$$u20$as$u20$rustfft..Fft$LT$T$GT$$GT$20process_with_scratch28_$u7b$$u7b$closure$u7d$$u7d$17hafaba41b77daeda0E', symObjAddr: 0xF44E0, symBinAddr: 0xF8EB0, symSize: 0x11BB4 }
  - { offset: 0xB1A09, size: 0x8, addend: 0x0, symName: '__ZN108_$LT$rustfft..neon..neon_prime_butterflies..NeonF32Butterfly29$LT$T$GT$$u20$as$u20$rustfft..Fft$LT$T$GT$$GT$23get_inplace_scratch_len17h29cdb8fb937b7f50E', symObjAddr: 0x106094, symBinAddr: 0x10AA64, symSize: 0x14 }
  - { offset: 0xB1A3E, size: 0x8, addend: 0x0, symName: '__ZN108_$LT$rustfft..neon..neon_prime_butterflies..NeonF32Butterfly29$LT$T$GT$$u20$as$u20$rustfft..Fft$LT$T$GT$$GT$25get_immutable_scratch_len17h7629ce471e33ff58E', symObjAddr: 0x1060A8, symBinAddr: 0x10AA78, symSize: 0x14 }
  - { offset: 0xB1A73, size: 0x8, addend: 0x0, symName: '__ZN108_$LT$rustfft..neon..neon_prime_butterflies..NeonF32Butterfly29$LT$T$GT$$u20$as$u20$rustfft..Fft$LT$T$GT$$GT$26get_outofplace_scratch_len17h08156d80afb8fdbbE', symObjAddr: 0x1060BC, symBinAddr: 0x10AA8C, symSize: 0x14 }
  - { offset: 0xB1AA8, size: 0x8, addend: 0x0, symName: '__ZN108_$LT$rustfft..neon..neon_prime_butterflies..NeonF32Butterfly29$LT$T$GT$$u20$as$u20$rustfft..Fft$LT$T$GT$$GT$30process_immutable_with_scratch17hf631eb588fd6777dE', symObjAddr: 0x1060D0, symBinAddr: 0x10AAA0, symSize: 0xB0 }
  - { offset: 0xB1B43, size: 0x8, addend: 0x0, symName: '__ZN108_$LT$rustfft..neon..neon_prime_butterflies..NeonF32Butterfly29$LT$T$GT$$u20$as$u20$rustfft..Fft$LT$T$GT$$GT$30process_immutable_with_scratch28_$u7b$$u7b$closure$u7d$$u7d$17h0d4b622f5d28a2a4E', symObjAddr: 0x106180, symBinAddr: 0x10AB50, symSize: 0xFEB4 }
  - { offset: 0xBCF53, size: 0x8, addend: 0x0, symName: '__ZN108_$LT$rustfft..neon..neon_prime_butterflies..NeonF32Butterfly29$LT$T$GT$$u20$as$u20$rustfft..Fft$LT$T$GT$$GT$30process_immutable_with_scratch28_$u7b$$u7b$closure$u7d$$u7d$17h455318389d3f6250E', symObjAddr: 0x116034, symBinAddr: 0x11AA04, symSize: 0x11FDC }
  - { offset: 0xC8ADF, size: 0x8, addend: 0x0, symName: '__ZN108_$LT$rustfft..neon..neon_prime_butterflies..NeonF32Butterfly29$LT$T$GT$$u20$as$u20$rustfft..Fft$LT$T$GT$$GT$31process_outofplace_with_scratch17h426bf679fd3555bcE', symObjAddr: 0x128010, symBinAddr: 0x12C9E0, symSize: 0xB0 }
  - { offset: 0xC8B7A, size: 0x8, addend: 0x0, symName: '__ZN108_$LT$rustfft..neon..neon_prime_butterflies..NeonF32Butterfly29$LT$T$GT$$u20$as$u20$rustfft..Fft$LT$T$GT$$GT$31process_outofplace_with_scratch28_$u7b$$u7b$closure$u7d$$u7d$17h28afd88af2d76c0aE', symObjAddr: 0x1280C0, symBinAddr: 0x12CA90, symSize: 0x11FDC }
  - { offset: 0xD4705, size: 0x8, addend: 0x0, symName: '__ZN108_$LT$rustfft..neon..neon_prime_butterflies..NeonF32Butterfly29$LT$T$GT$$u20$as$u20$rustfft..Fft$LT$T$GT$$GT$31process_outofplace_with_scratch28_$u7b$$u7b$closure$u7d$$u7d$17he5d6210c46afae5bE', symObjAddr: 0x13A09C, symBinAddr: 0x13EA6C, symSize: 0xFEB4 }
  - { offset: 0xDFB1C, size: 0x8, addend: 0x0, symName: '__ZN108_$LT$rustfft..neon..neon_prime_butterflies..NeonF32Butterfly31$LT$T$GT$$u20$as$u20$rustfft..Fft$LT$T$GT$$GT$20process_with_scratch17he10fda1a8623d8ebE', symObjAddr: 0x149F50, symBinAddr: 0x14E920, symSize: 0x6C }
  - { offset: 0xDFB8B, size: 0x8, addend: 0x0, symName: '__ZN108_$LT$rustfft..neon..neon_prime_butterflies..NeonF32Butterfly31$LT$T$GT$$u20$as$u20$rustfft..Fft$LT$T$GT$$GT$20process_with_scratch28_$u7b$$u7b$closure$u7d$$u7d$17h74ecbab22c8ed1d5E', symObjAddr: 0x149FBC, symBinAddr: 0x14E98C, symSize: 0x13DD8 }
  - { offset: 0xEC252, size: 0x8, addend: 0x0, symName: '__ZN108_$LT$rustfft..neon..neon_prime_butterflies..NeonF32Butterfly31$LT$T$GT$$u20$as$u20$rustfft..Fft$LT$T$GT$$GT$20process_with_scratch28_$u7b$$u7b$closure$u7d$$u7d$17h982954b6ad570967E', symObjAddr: 0x15DD94, symBinAddr: 0x162764, symSize: 0x11A9C }
  - { offset: 0xF8173, size: 0x8, addend: 0x0, symName: '__ZN108_$LT$rustfft..neon..neon_prime_butterflies..NeonF32Butterfly31$LT$T$GT$$u20$as$u20$rustfft..Fft$LT$T$GT$$GT$23get_inplace_scratch_len17ha1357ee80fa5ba9fE', symObjAddr: 0x16F830, symBinAddr: 0x174200, symSize: 0x14 }
  - { offset: 0xF81A8, size: 0x8, addend: 0x0, symName: '__ZN108_$LT$rustfft..neon..neon_prime_butterflies..NeonF32Butterfly31$LT$T$GT$$u20$as$u20$rustfft..Fft$LT$T$GT$$GT$25get_immutable_scratch_len17hadf170984b5e0ca1E', symObjAddr: 0x16F844, symBinAddr: 0x174214, symSize: 0x14 }
  - { offset: 0xF81DD, size: 0x8, addend: 0x0, symName: '__ZN108_$LT$rustfft..neon..neon_prime_butterflies..NeonF32Butterfly31$LT$T$GT$$u20$as$u20$rustfft..Fft$LT$T$GT$$GT$26get_outofplace_scratch_len17h8922f6eba2ad9bfcE', symObjAddr: 0x16F858, symBinAddr: 0x174228, symSize: 0x14 }
  - { offset: 0xF8212, size: 0x8, addend: 0x0, symName: '__ZN108_$LT$rustfft..neon..neon_prime_butterflies..NeonF32Butterfly31$LT$T$GT$$u20$as$u20$rustfft..Fft$LT$T$GT$$GT$30process_immutable_with_scratch17h7a516cf7a3da7d7cE', symObjAddr: 0x16F86C, symBinAddr: 0x17423C, symSize: 0xB0 }
  - { offset: 0xF82AD, size: 0x8, addend: 0x0, symName: '__ZN108_$LT$rustfft..neon..neon_prime_butterflies..NeonF32Butterfly31$LT$T$GT$$u20$as$u20$rustfft..Fft$LT$T$GT$$GT$30process_immutable_with_scratch28_$u7b$$u7b$closure$u7d$$u7d$17h566930bd40725886E', symObjAddr: 0x16F91C, symBinAddr: 0x1742EC, symSize: 0x11F18 }
  - { offset: 0x104D13, size: 0x8, addend: 0x0, symName: '__ZN108_$LT$rustfft..neon..neon_prime_butterflies..NeonF32Butterfly31$LT$T$GT$$u20$as$u20$rustfft..Fft$LT$T$GT$$GT$30process_immutable_with_scratch28_$u7b$$u7b$closure$u7d$$u7d$17h967c6ed2444601d0E', symObjAddr: 0x181834, symBinAddr: 0x186204, symSize: 0x14250 }
  - { offset: 0x111F44, size: 0x8, addend: 0x0, symName: '__ZN108_$LT$rustfft..neon..neon_prime_butterflies..NeonF32Butterfly31$LT$T$GT$$u20$as$u20$rustfft..Fft$LT$T$GT$$GT$31process_outofplace_with_scratch17ha722e22b0fa13da6E', symObjAddr: 0x195A84, symBinAddr: 0x19A454, symSize: 0xB0 }
  - { offset: 0x111FDF, size: 0x8, addend: 0x0, symName: '__ZN108_$LT$rustfft..neon..neon_prime_butterflies..NeonF32Butterfly31$LT$T$GT$$u20$as$u20$rustfft..Fft$LT$T$GT$$GT$31process_outofplace_with_scratch28_$u7b$$u7b$closure$u7d$$u7d$17h97fa6445936ddecfE', symObjAddr: 0x195B34, symBinAddr: 0x19A504, symSize: 0x14250 }
  - { offset: 0x11F20F, size: 0x8, addend: 0x0, symName: '__ZN108_$LT$rustfft..neon..neon_prime_butterflies..NeonF32Butterfly31$LT$T$GT$$u20$as$u20$rustfft..Fft$LT$T$GT$$GT$31process_outofplace_with_scratch28_$u7b$$u7b$closure$u7d$$u7d$17hdcdb6c676d5d75ceE', symObjAddr: 0x1A9D84, symBinAddr: 0x1AE754, symSize: 0x11F18 }
  - { offset: 0x12BC7C, size: 0x8, addend: 0x0, symName: '__ZN108_$LT$rustfft..neon..neon_prime_butterflies..NeonF64Butterfly11$LT$T$GT$$u20$as$u20$rustfft..Fft$LT$T$GT$$GT$20process_with_scratch17h1bd990a6a36e6defE', symObjAddr: 0x1BBC9C, symBinAddr: 0x1C066C, symSize: 0x78 }
  - { offset: 0x12BCEB, size: 0x8, addend: 0x0, symName: '__ZN108_$LT$rustfft..neon..neon_prime_butterflies..NeonF64Butterfly11$LT$T$GT$$u20$as$u20$rustfft..Fft$LT$T$GT$$GT$20process_with_scratch28_$u7b$$u7b$closure$u7d$$u7d$17h569f026632818c46E', symObjAddr: 0x1BBD14, symBinAddr: 0x1C06E4, symSize: 0x31BC }
  - { offset: 0x12DC65, size: 0x8, addend: 0x0, symName: '__ZN108_$LT$rustfft..neon..neon_prime_butterflies..NeonF64Butterfly11$LT$T$GT$$u20$as$u20$rustfft..Fft$LT$T$GT$$GT$23get_inplace_scratch_len17h980548a197c03fccE', symObjAddr: 0x1BEED0, symBinAddr: 0x1C38A0, symSize: 0x14 }
  - { offset: 0x12DC9A, size: 0x8, addend: 0x0, symName: '__ZN108_$LT$rustfft..neon..neon_prime_butterflies..NeonF64Butterfly11$LT$T$GT$$u20$as$u20$rustfft..Fft$LT$T$GT$$GT$25get_immutable_scratch_len17hb01dd404b06387d6E', symObjAddr: 0x1BEEE4, symBinAddr: 0x1C38B4, symSize: 0x14 }
  - { offset: 0x12DCCF, size: 0x8, addend: 0x0, symName: '__ZN108_$LT$rustfft..neon..neon_prime_butterflies..NeonF64Butterfly11$LT$T$GT$$u20$as$u20$rustfft..Fft$LT$T$GT$$GT$26get_outofplace_scratch_len17h600f2217ba53d4a2E', symObjAddr: 0x1BEEF8, symBinAddr: 0x1C38C8, symSize: 0x14 }
  - { offset: 0x12DD04, size: 0x8, addend: 0x0, symName: '__ZN108_$LT$rustfft..neon..neon_prime_butterflies..NeonF64Butterfly11$LT$T$GT$$u20$as$u20$rustfft..Fft$LT$T$GT$$GT$30process_immutable_with_scratch17h9eb9f5af215cf389E', symObjAddr: 0x1BEF0C, symBinAddr: 0x1C38DC, symSize: 0xC4 }
  - { offset: 0x12DD9F, size: 0x8, addend: 0x0, symName: '__ZN108_$LT$rustfft..neon..neon_prime_butterflies..NeonF64Butterfly11$LT$T$GT$$u20$as$u20$rustfft..Fft$LT$T$GT$$GT$30process_immutable_with_scratch28_$u7b$$u7b$closure$u7d$$u7d$17h5298153d1884c9faE', symObjAddr: 0x1BEFD0, symBinAddr: 0x1C39A0, symSize: 0x335C }
  - { offset: 0x1300F3, size: 0x8, addend: 0x0, symName: '__ZN108_$LT$rustfft..neon..neon_prime_butterflies..NeonF64Butterfly11$LT$T$GT$$u20$as$u20$rustfft..Fft$LT$T$GT$$GT$31process_outofplace_with_scratch17h653fe6799d08c326E', symObjAddr: 0x1C232C, symBinAddr: 0x1C6CFC, symSize: 0xC4 }
  - { offset: 0x13018E, size: 0x8, addend: 0x0, symName: '__ZN108_$LT$rustfft..neon..neon_prime_butterflies..NeonF64Butterfly11$LT$T$GT$$u20$as$u20$rustfft..Fft$LT$T$GT$$GT$31process_outofplace_with_scratch28_$u7b$$u7b$closure$u7d$$u7d$17h3d47c9867cf23b30E', symObjAddr: 0x1C23F0, symBinAddr: 0x1C6DC0, symSize: 0x335C }
  - { offset: 0x1324E8, size: 0x8, addend: 0x0, symName: '__ZN108_$LT$rustfft..neon..neon_prime_butterflies..NeonF64Butterfly13$LT$T$GT$$u20$as$u20$rustfft..Fft$LT$T$GT$$GT$20process_with_scratch17h9a44ea61efaf8ad7E', symObjAddr: 0x1C574C, symBinAddr: 0x1CA11C, symSize: 0x78 }
  - { offset: 0x132557, size: 0x8, addend: 0x0, symName: '__ZN108_$LT$rustfft..neon..neon_prime_butterflies..NeonF64Butterfly13$LT$T$GT$$u20$as$u20$rustfft..Fft$LT$T$GT$$GT$20process_with_scratch28_$u7b$$u7b$closure$u7d$$u7d$17h316ec2c4b79faf00E', symObjAddr: 0x1C57C4, symBinAddr: 0x1CA194, symSize: 0x40C4 }
  - { offset: 0x134EBE, size: 0x8, addend: 0x0, symName: '__ZN108_$LT$rustfft..neon..neon_prime_butterflies..NeonF64Butterfly13$LT$T$GT$$u20$as$u20$rustfft..Fft$LT$T$GT$$GT$23get_inplace_scratch_len17h4c94e54a1e64e241E', symObjAddr: 0x1C9888, symBinAddr: 0x1CE258, symSize: 0x14 }
  - { offset: 0x134EF3, size: 0x8, addend: 0x0, symName: '__ZN108_$LT$rustfft..neon..neon_prime_butterflies..NeonF64Butterfly13$LT$T$GT$$u20$as$u20$rustfft..Fft$LT$T$GT$$GT$25get_immutable_scratch_len17he50e516037a6d4a9E', symObjAddr: 0x1C989C, symBinAddr: 0x1CE26C, symSize: 0x14 }
  - { offset: 0x134F28, size: 0x8, addend: 0x0, symName: '__ZN108_$LT$rustfft..neon..neon_prime_butterflies..NeonF64Butterfly13$LT$T$GT$$u20$as$u20$rustfft..Fft$LT$T$GT$$GT$26get_outofplace_scratch_len17hbc815a3748bef9c7E', symObjAddr: 0x1C98B0, symBinAddr: 0x1CE280, symSize: 0x14 }
  - { offset: 0x134F5D, size: 0x8, addend: 0x0, symName: '__ZN108_$LT$rustfft..neon..neon_prime_butterflies..NeonF64Butterfly13$LT$T$GT$$u20$as$u20$rustfft..Fft$LT$T$GT$$GT$30process_immutable_with_scratch17h8533388a1b218669E', symObjAddr: 0x1C98C4, symBinAddr: 0x1CE294, symSize: 0xC4 }
  - { offset: 0x134FF8, size: 0x8, addend: 0x0, symName: '__ZN108_$LT$rustfft..neon..neon_prime_butterflies..NeonF64Butterfly13$LT$T$GT$$u20$as$u20$rustfft..Fft$LT$T$GT$$GT$30process_immutable_with_scratch28_$u7b$$u7b$closure$u7d$$u7d$17hb96748ab7a3db0cfE', symObjAddr: 0x1C9988, symBinAddr: 0x1CE358, symSize: 0x42B8 }
  - { offset: 0x137E0B, size: 0x8, addend: 0x0, symName: '__ZN108_$LT$rustfft..neon..neon_prime_butterflies..NeonF64Butterfly13$LT$T$GT$$u20$as$u20$rustfft..Fft$LT$T$GT$$GT$31process_outofplace_with_scratch17h92319e08dd373eeeE', symObjAddr: 0x1CDC40, symBinAddr: 0x1D2610, symSize: 0xC4 }
  - { offset: 0x137EA6, size: 0x8, addend: 0x0, symName: '__ZN108_$LT$rustfft..neon..neon_prime_butterflies..NeonF64Butterfly13$LT$T$GT$$u20$as$u20$rustfft..Fft$LT$T$GT$$GT$31process_outofplace_with_scratch28_$u7b$$u7b$closure$u7d$$u7d$17h2b2a65a9f7eaf46dE', symObjAddr: 0x1CDD04, symBinAddr: 0x1D26D4, symSize: 0x42B8 }
  - { offset: 0x13ACBF, size: 0x8, addend: 0x0, symName: '__ZN108_$LT$rustfft..neon..neon_prime_butterflies..NeonF64Butterfly17$LT$T$GT$$u20$as$u20$rustfft..Fft$LT$T$GT$$GT$20process_with_scratch17ha69c4a6a8a911e87E', symObjAddr: 0x1D1FBC, symBinAddr: 0x1D698C, symSize: 0x78 }
  - { offset: 0x13AD2E, size: 0x8, addend: 0x0, symName: '__ZN108_$LT$rustfft..neon..neon_prime_butterflies..NeonF64Butterfly17$LT$T$GT$$u20$as$u20$rustfft..Fft$LT$T$GT$$GT$20process_with_scratch28_$u7b$$u7b$closure$u7d$$u7d$17h9787c7a7ed34479cE', symObjAddr: 0x1D2034, symBinAddr: 0x1D6A04, symSize: 0x6354 }
  - { offset: 0x13EE80, size: 0x8, addend: 0x0, symName: '__ZN108_$LT$rustfft..neon..neon_prime_butterflies..NeonF64Butterfly17$LT$T$GT$$u20$as$u20$rustfft..Fft$LT$T$GT$$GT$23get_inplace_scratch_len17hc4f105d90fe11be9E', symObjAddr: 0x1D8388, symBinAddr: 0x1DCD58, symSize: 0x14 }
  - { offset: 0x13EEB5, size: 0x8, addend: 0x0, symName: '__ZN108_$LT$rustfft..neon..neon_prime_butterflies..NeonF64Butterfly17$LT$T$GT$$u20$as$u20$rustfft..Fft$LT$T$GT$$GT$25get_immutable_scratch_len17h5345bf9235018ca4E', symObjAddr: 0x1D839C, symBinAddr: 0x1DCD6C, symSize: 0x14 }
  - { offset: 0x13EEEA, size: 0x8, addend: 0x0, symName: '__ZN108_$LT$rustfft..neon..neon_prime_butterflies..NeonF64Butterfly17$LT$T$GT$$u20$as$u20$rustfft..Fft$LT$T$GT$$GT$26get_outofplace_scratch_len17h3ee5f4c930e40b42E', symObjAddr: 0x1D83B0, symBinAddr: 0x1DCD80, symSize: 0x14 }
  - { offset: 0x13EF1F, size: 0x8, addend: 0x0, symName: '__ZN108_$LT$rustfft..neon..neon_prime_butterflies..NeonF64Butterfly17$LT$T$GT$$u20$as$u20$rustfft..Fft$LT$T$GT$$GT$30process_immutable_with_scratch17hb0136f8b2e8f3b8eE', symObjAddr: 0x1D83C4, symBinAddr: 0x1DCD94, symSize: 0xC4 }
  - { offset: 0x13EFBA, size: 0x8, addend: 0x0, symName: '__ZN108_$LT$rustfft..neon..neon_prime_butterflies..NeonF64Butterfly17$LT$T$GT$$u20$as$u20$rustfft..Fft$LT$T$GT$$GT$30process_immutable_with_scratch28_$u7b$$u7b$closure$u7d$$u7d$17h8cbf8b08bf4e495eE', symObjAddr: 0x1D8488, symBinAddr: 0x1DCE58, symSize: 0x65F0 }
  - { offset: 0x143725, size: 0x8, addend: 0x0, symName: '__ZN108_$LT$rustfft..neon..neon_prime_butterflies..NeonF64Butterfly17$LT$T$GT$$u20$as$u20$rustfft..Fft$LT$T$GT$$GT$31process_outofplace_with_scratch17h68e65b1f76593433E', symObjAddr: 0x1DEA78, symBinAddr: 0x1E3448, symSize: 0xC4 }
  - { offset: 0x1437C0, size: 0x8, addend: 0x0, symName: '__ZN108_$LT$rustfft..neon..neon_prime_butterflies..NeonF64Butterfly17$LT$T$GT$$u20$as$u20$rustfft..Fft$LT$T$GT$$GT$31process_outofplace_with_scratch28_$u7b$$u7b$closure$u7d$$u7d$17h30f7f2f110279444E', symObjAddr: 0x1DEB3C, symBinAddr: 0x1E350C, symSize: 0x65F0 }
  - { offset: 0x147F31, size: 0x8, addend: 0x0, symName: '__ZN108_$LT$rustfft..neon..neon_prime_butterflies..NeonF64Butterfly19$LT$T$GT$$u20$as$u20$rustfft..Fft$LT$T$GT$$GT$20process_with_scratch17ha5553487b96e5437E', symObjAddr: 0x1E512C, symBinAddr: 0x1E9AFC, symSize: 0x78 }
  - { offset: 0x147FA0, size: 0x8, addend: 0x0, symName: '__ZN108_$LT$rustfft..neon..neon_prime_butterflies..NeonF64Butterfly19$LT$T$GT$$u20$as$u20$rustfft..Fft$LT$T$GT$$GT$20process_with_scratch28_$u7b$$u7b$closure$u7d$$u7d$17hdef1e29fabda5267E', symObjAddr: 0x1E51A4, symBinAddr: 0x1E9B74, symSize: 0x7810 }
  - { offset: 0x14CE9B, size: 0x8, addend: 0x0, symName: '__ZN108_$LT$rustfft..neon..neon_prime_butterflies..NeonF64Butterfly19$LT$T$GT$$u20$as$u20$rustfft..Fft$LT$T$GT$$GT$23get_inplace_scratch_len17h3083008e7ccad0d1E', symObjAddr: 0x1EC9B4, symBinAddr: 0x1F1384, symSize: 0x14 }
  - { offset: 0x14CED0, size: 0x8, addend: 0x0, symName: '__ZN108_$LT$rustfft..neon..neon_prime_butterflies..NeonF64Butterfly19$LT$T$GT$$u20$as$u20$rustfft..Fft$LT$T$GT$$GT$25get_immutable_scratch_len17hc5e648eae631668dE', symObjAddr: 0x1EC9C8, symBinAddr: 0x1F1398, symSize: 0x14 }
  - { offset: 0x14CF05, size: 0x8, addend: 0x0, symName: '__ZN108_$LT$rustfft..neon..neon_prime_butterflies..NeonF64Butterfly19$LT$T$GT$$u20$as$u20$rustfft..Fft$LT$T$GT$$GT$26get_outofplace_scratch_len17h74adb75909ce7c06E', symObjAddr: 0x1EC9DC, symBinAddr: 0x1F13AC, symSize: 0x14 }
  - { offset: 0x14CF3A, size: 0x8, addend: 0x0, symName: '__ZN108_$LT$rustfft..neon..neon_prime_butterflies..NeonF64Butterfly19$LT$T$GT$$u20$as$u20$rustfft..Fft$LT$T$GT$$GT$30process_immutable_with_scratch17h3eb6987462976c21E', symObjAddr: 0x1EC9F0, symBinAddr: 0x1F13C0, symSize: 0xC4 }
  - { offset: 0x14CFD5, size: 0x8, addend: 0x0, symName: '__ZN108_$LT$rustfft..neon..neon_prime_butterflies..NeonF64Butterfly19$LT$T$GT$$u20$as$u20$rustfft..Fft$LT$T$GT$$GT$30process_immutable_with_scratch28_$u7b$$u7b$closure$u7d$$u7d$17he36656486d94a000E', symObjAddr: 0x1ECAB4, symBinAddr: 0x1F1484, symSize: 0x7AEC }
  - { offset: 0x152599, size: 0x8, addend: 0x0, symName: '__ZN108_$LT$rustfft..neon..neon_prime_butterflies..NeonF64Butterfly19$LT$T$GT$$u20$as$u20$rustfft..Fft$LT$T$GT$$GT$31process_outofplace_with_scratch17h529ed25e5bc7919cE', symObjAddr: 0x1F45A0, symBinAddr: 0x1F8F70, symSize: 0xC4 }
  - { offset: 0x152634, size: 0x8, addend: 0x0, symName: '__ZN108_$LT$rustfft..neon..neon_prime_butterflies..NeonF64Butterfly19$LT$T$GT$$u20$as$u20$rustfft..Fft$LT$T$GT$$GT$31process_outofplace_with_scratch28_$u7b$$u7b$closure$u7d$$u7d$17hda5b849f5256d70cE', symObjAddr: 0x1F4664, symBinAddr: 0x1F9034, symSize: 0x7AEC }
  - { offset: 0x157BFE, size: 0x8, addend: 0x0, symName: '__ZN108_$LT$rustfft..neon..neon_prime_butterflies..NeonF64Butterfly23$LT$T$GT$$u20$as$u20$rustfft..Fft$LT$T$GT$$GT$20process_with_scratch17hd65535598cd43992E', symObjAddr: 0x1FC150, symBinAddr: 0x200B20, symSize: 0x78 }
  - { offset: 0x157C6D, size: 0x8, addend: 0x0, symName: '__ZN108_$LT$rustfft..neon..neon_prime_butterflies..NeonF64Butterfly23$LT$T$GT$$u20$as$u20$rustfft..Fft$LT$T$GT$$GT$20process_with_scratch28_$u7b$$u7b$closure$u7d$$u7d$17hd563cc5ea4794f04E', symObjAddr: 0x1FC1C8, symBinAddr: 0x200B98, symSize: 0xA598 }
  - { offset: 0x15EA6E, size: 0x8, addend: 0x0, symName: '__ZN108_$LT$rustfft..neon..neon_prime_butterflies..NeonF64Butterfly23$LT$T$GT$$u20$as$u20$rustfft..Fft$LT$T$GT$$GT$23get_inplace_scratch_len17hc65c578b2def542cE', symObjAddr: 0x206760, symBinAddr: 0x20B130, symSize: 0x14 }
  - { offset: 0x15EAA3, size: 0x8, addend: 0x0, symName: '__ZN108_$LT$rustfft..neon..neon_prime_butterflies..NeonF64Butterfly23$LT$T$GT$$u20$as$u20$rustfft..Fft$LT$T$GT$$GT$25get_immutable_scratch_len17h6391242b6665ee98E', symObjAddr: 0x206774, symBinAddr: 0x20B144, symSize: 0x14 }
  - { offset: 0x15EAD8, size: 0x8, addend: 0x0, symName: '__ZN108_$LT$rustfft..neon..neon_prime_butterflies..NeonF64Butterfly23$LT$T$GT$$u20$as$u20$rustfft..Fft$LT$T$GT$$GT$26get_outofplace_scratch_len17h740fbf697d62e253E', symObjAddr: 0x206788, symBinAddr: 0x20B158, symSize: 0x14 }
  - { offset: 0x15EB0D, size: 0x8, addend: 0x0, symName: '__ZN108_$LT$rustfft..neon..neon_prime_butterflies..NeonF64Butterfly23$LT$T$GT$$u20$as$u20$rustfft..Fft$LT$T$GT$$GT$30process_immutable_with_scratch17hdb2c2ce822945dabE', symObjAddr: 0x20679C, symBinAddr: 0x20B16C, symSize: 0xC4 }
  - { offset: 0x15EBA8, size: 0x8, addend: 0x0, symName: '__ZN108_$LT$rustfft..neon..neon_prime_butterflies..NeonF64Butterfly23$LT$T$GT$$u20$as$u20$rustfft..Fft$LT$T$GT$$GT$30process_immutable_with_scratch28_$u7b$$u7b$closure$u7d$$u7d$17h31cb203741793549E', symObjAddr: 0x206860, symBinAddr: 0x20B230, symSize: 0xA8DC }
  - { offset: 0x1661B8, size: 0x8, addend: 0x0, symName: '__ZN108_$LT$rustfft..neon..neon_prime_butterflies..NeonF64Butterfly23$LT$T$GT$$u20$as$u20$rustfft..Fft$LT$T$GT$$GT$31process_outofplace_with_scratch17hf9998502a52b70a4E', symObjAddr: 0x21113C, symBinAddr: 0x215B0C, symSize: 0xC4 }
  - { offset: 0x166253, size: 0x8, addend: 0x0, symName: '__ZN108_$LT$rustfft..neon..neon_prime_butterflies..NeonF64Butterfly23$LT$T$GT$$u20$as$u20$rustfft..Fft$LT$T$GT$$GT$31process_outofplace_with_scratch28_$u7b$$u7b$closure$u7d$$u7d$17h1e572d4f101c52b3E', symObjAddr: 0x211200, symBinAddr: 0x215BD0, symSize: 0xA8DC }
  - { offset: 0x16D869, size: 0x8, addend: 0x0, symName: '__ZN108_$LT$rustfft..neon..neon_prime_butterflies..NeonF64Butterfly29$LT$T$GT$$u20$as$u20$rustfft..Fft$LT$T$GT$$GT$20process_with_scratch17h35b45dffcb84c4bdE', symObjAddr: 0x21BADC, symBinAddr: 0x2204AC, symSize: 0x78 }
  - { offset: 0x16D8D8, size: 0x8, addend: 0x0, symName: '__ZN108_$LT$rustfft..neon..neon_prime_butterflies..NeonF64Butterfly29$LT$T$GT$$u20$as$u20$rustfft..Fft$LT$T$GT$$GT$20process_with_scratch28_$u7b$$u7b$closure$u7d$$u7d$17hfb6aa923c43b43b3E', symObjAddr: 0x21BB54, symBinAddr: 0x220524, symSize: 0xF730 }
  - { offset: 0x177EE9, size: 0x8, addend: 0x0, symName: '__ZN108_$LT$rustfft..neon..neon_prime_butterflies..NeonF64Butterfly29$LT$T$GT$$u20$as$u20$rustfft..Fft$LT$T$GT$$GT$23get_inplace_scratch_len17hdde1677cac2dab1cE', symObjAddr: 0x22B284, symBinAddr: 0x22FC54, symSize: 0x14 }
  - { offset: 0x177F1E, size: 0x8, addend: 0x0, symName: '__ZN108_$LT$rustfft..neon..neon_prime_butterflies..NeonF64Butterfly29$LT$T$GT$$u20$as$u20$rustfft..Fft$LT$T$GT$$GT$25get_immutable_scratch_len17h2eff50f4bf60f73eE', symObjAddr: 0x22B298, symBinAddr: 0x22FC68, symSize: 0x14 }
  - { offset: 0x177F53, size: 0x8, addend: 0x0, symName: '__ZN108_$LT$rustfft..neon..neon_prime_butterflies..NeonF64Butterfly29$LT$T$GT$$u20$as$u20$rustfft..Fft$LT$T$GT$$GT$26get_outofplace_scratch_len17heb3f3e33701ac4fdE', symObjAddr: 0x22B2AC, symBinAddr: 0x22FC7C, symSize: 0x14 }
  - { offset: 0x177F88, size: 0x8, addend: 0x0, symName: '__ZN108_$LT$rustfft..neon..neon_prime_butterflies..NeonF64Butterfly29$LT$T$GT$$u20$as$u20$rustfft..Fft$LT$T$GT$$GT$30process_immutable_with_scratch17h98b68518e3cdf93aE', symObjAddr: 0x22B2C0, symBinAddr: 0x22FC90, symSize: 0xC4 }
  - { offset: 0x178023, size: 0x8, addend: 0x0, symName: '__ZN108_$LT$rustfft..neon..neon_prime_butterflies..NeonF64Butterfly29$LT$T$GT$$u20$as$u20$rustfft..Fft$LT$T$GT$$GT$30process_immutable_with_scratch28_$u7b$$u7b$closure$u7d$$u7d$17h57999cc5c466b4c9E', symObjAddr: 0x22B384, symBinAddr: 0x22FD54, symSize: 0xFB58 }
  - { offset: 0x1830C3, size: 0x8, addend: 0x0, symName: '__ZN108_$LT$rustfft..neon..neon_prime_butterflies..NeonF64Butterfly29$LT$T$GT$$u20$as$u20$rustfft..Fft$LT$T$GT$$GT$31process_outofplace_with_scratch17h5ddc2c2f24eaf039E', symObjAddr: 0x23AEDC, symBinAddr: 0x23F8AC, symSize: 0xC4 }
  - { offset: 0x18315E, size: 0x8, addend: 0x0, symName: '__ZN108_$LT$rustfft..neon..neon_prime_butterflies..NeonF64Butterfly29$LT$T$GT$$u20$as$u20$rustfft..Fft$LT$T$GT$$GT$31process_outofplace_with_scratch28_$u7b$$u7b$closure$u7d$$u7d$17h3c530b41e4e88e19E', symObjAddr: 0x23AFA0, symBinAddr: 0x23F970, symSize: 0xFB58 }
  - { offset: 0x18E204, size: 0x8, addend: 0x0, symName: '__ZN108_$LT$rustfft..neon..neon_prime_butterflies..NeonF64Butterfly31$LT$T$GT$$u20$as$u20$rustfft..Fft$LT$T$GT$$GT$20process_with_scratch17h7738150564ab1e51E', symObjAddr: 0x24AAF8, symBinAddr: 0x24F4C8, symSize: 0x78 }
  - { offset: 0x18E273, size: 0x8, addend: 0x0, symName: '__ZN108_$LT$rustfft..neon..neon_prime_butterflies..NeonF64Butterfly31$LT$T$GT$$u20$as$u20$rustfft..Fft$LT$T$GT$$GT$20process_with_scratch28_$u7b$$u7b$closure$u7d$$u7d$17hf4f79915f26bf2d4E', symObjAddr: 0x24AB70, symBinAddr: 0x24F540, symSize: 0x11708 }
  - { offset: 0x199DEE, size: 0x8, addend: 0x0, symName: '__ZN108_$LT$rustfft..neon..neon_prime_butterflies..NeonF64Butterfly31$LT$T$GT$$u20$as$u20$rustfft..Fft$LT$T$GT$$GT$23get_inplace_scratch_len17h10a9d2275752633cE', symObjAddr: 0x25C278, symBinAddr: 0x260C48, symSize: 0x14 }
  - { offset: 0x199E23, size: 0x8, addend: 0x0, symName: '__ZN108_$LT$rustfft..neon..neon_prime_butterflies..NeonF64Butterfly31$LT$T$GT$$u20$as$u20$rustfft..Fft$LT$T$GT$$GT$25get_immutable_scratch_len17h5c49f891f4c6b5b4E', symObjAddr: 0x25C28C, symBinAddr: 0x260C5C, symSize: 0x14 }
  - { offset: 0x199E58, size: 0x8, addend: 0x0, symName: '__ZN108_$LT$rustfft..neon..neon_prime_butterflies..NeonF64Butterfly31$LT$T$GT$$u20$as$u20$rustfft..Fft$LT$T$GT$$GT$26get_outofplace_scratch_len17hcfc98771d920d08aE', symObjAddr: 0x25C2A0, symBinAddr: 0x260C70, symSize: 0x14 }
  - { offset: 0x199E8D, size: 0x8, addend: 0x0, symName: '__ZN108_$LT$rustfft..neon..neon_prime_butterflies..NeonF64Butterfly31$LT$T$GT$$u20$as$u20$rustfft..Fft$LT$T$GT$$GT$30process_immutable_with_scratch17hd6e075e1471b6287E', symObjAddr: 0x25C2B4, symBinAddr: 0x260C84, symSize: 0xC4 }
  - { offset: 0x199F28, size: 0x8, addend: 0x0, symName: '__ZN108_$LT$rustfft..neon..neon_prime_butterflies..NeonF64Butterfly31$LT$T$GT$$u20$as$u20$rustfft..Fft$LT$T$GT$$GT$30process_immutable_with_scratch28_$u7b$$u7b$closure$u7d$$u7d$17hc122b18d43f800cdE', symObjAddr: 0x25C378, symBinAddr: 0x260D48, symSize: 0x11B88 }
  - { offset: 0x1A65D0, size: 0x8, addend: 0x0, symName: '__ZN108_$LT$rustfft..neon..neon_prime_butterflies..NeonF64Butterfly31$LT$T$GT$$u20$as$u20$rustfft..Fft$LT$T$GT$$GT$31process_outofplace_with_scratch17h06ba8fc5276dd67bE', symObjAddr: 0x26DF00, symBinAddr: 0x2728D0, symSize: 0xC4 }
  - { offset: 0x1A666B, size: 0x8, addend: 0x0, symName: '__ZN108_$LT$rustfft..neon..neon_prime_butterflies..NeonF64Butterfly31$LT$T$GT$$u20$as$u20$rustfft..Fft$LT$T$GT$$GT$31process_outofplace_with_scratch28_$u7b$$u7b$closure$u7d$$u7d$17hde65d565db179812E', symObjAddr: 0x26DFC4, symBinAddr: 0x272994, symSize: 0x11B88 }
  - { offset: 0x1B2D19, size: 0x8, addend: 0x0, symName: '__ZN7rustfft4neon22neon_prime_butterflies13make_twiddles28_$u7b$$u7b$closure$u7d$$u7d$17h0c0df59586b14f4cE', symObjAddr: 0x28060C, symBinAddr: 0x284FDC, symSize: 0x9C }
  - { offset: 0x1B2D96, size: 0x8, addend: 0x0, symName: '__ZN7rustfft4neon22neon_prime_butterflies13make_twiddles28_$u7b$$u7b$closure$u7d$$u7d$17h331b10e5b018e4ddE', symObjAddr: 0x2806A8, symBinAddr: 0x285078, symSize: 0x9C }
  - { offset: 0x1B2E13, size: 0x8, addend: 0x0, symName: '__ZN7rustfft4neon22neon_prime_butterflies13make_twiddles28_$u7b$$u7b$closure$u7d$$u7d$17h3572365b0721d25fE', symObjAddr: 0x280744, symBinAddr: 0x285114, symSize: 0x9C }
  - { offset: 0x1B2E90, size: 0x8, addend: 0x0, symName: '__ZN7rustfft4neon22neon_prime_butterflies13make_twiddles28_$u7b$$u7b$closure$u7d$$u7d$17h35fec1aa18114c33E', symObjAddr: 0x2807E0, symBinAddr: 0x2851B0, symSize: 0x9C }
  - { offset: 0x1B2F0D, size: 0x8, addend: 0x0, symName: '__ZN7rustfft4neon22neon_prime_butterflies13make_twiddles28_$u7b$$u7b$closure$u7d$$u7d$17h5251d16422ff86c9E', symObjAddr: 0x28087C, symBinAddr: 0x28524C, symSize: 0x9C }
  - { offset: 0x1B2F8A, size: 0x8, addend: 0x0, symName: '__ZN7rustfft4neon22neon_prime_butterflies13make_twiddles28_$u7b$$u7b$closure$u7d$$u7d$17h536bf567319916edE', symObjAddr: 0x280918, symBinAddr: 0x2852E8, symSize: 0x9C }
  - { offset: 0x1B3007, size: 0x8, addend: 0x0, symName: '__ZN7rustfft4neon22neon_prime_butterflies13make_twiddles28_$u7b$$u7b$closure$u7d$$u7d$17h57e29f016572f039E', symObjAddr: 0x2809B4, symBinAddr: 0x285384, symSize: 0x9C }
  - { offset: 0x1B3084, size: 0x8, addend: 0x0, symName: '__ZN7rustfft4neon22neon_prime_butterflies13make_twiddles28_$u7b$$u7b$closure$u7d$$u7d$17h57f982eed73ccbbfE', symObjAddr: 0x280A50, symBinAddr: 0x285420, symSize: 0x9C }
  - { offset: 0x1B3101, size: 0x8, addend: 0x0, symName: '__ZN7rustfft4neon22neon_prime_butterflies13make_twiddles28_$u7b$$u7b$closure$u7d$$u7d$17h7abcd1f89804013fE', symObjAddr: 0x280AEC, symBinAddr: 0x2854BC, symSize: 0x9C }
  - { offset: 0x1B317E, size: 0x8, addend: 0x0, symName: '__ZN7rustfft4neon22neon_prime_butterflies13make_twiddles28_$u7b$$u7b$closure$u7d$$u7d$17ha377e6bfa85f5aceE', symObjAddr: 0x280B88, symBinAddr: 0x285558, symSize: 0x9C }
  - { offset: 0x1B31FB, size: 0x8, addend: 0x0, symName: '__ZN7rustfft4neon22neon_prime_butterflies13make_twiddles28_$u7b$$u7b$closure$u7d$$u7d$17ha4065ce219663c88E', symObjAddr: 0x280C24, symBinAddr: 0x2855F4, symSize: 0x9C }
  - { offset: 0x1B3278, size: 0x8, addend: 0x0, symName: '__ZN7rustfft4neon22neon_prime_butterflies13make_twiddles28_$u7b$$u7b$closure$u7d$$u7d$17hb064b931356646ddE', symObjAddr: 0x280CC0, symBinAddr: 0x285690, symSize: 0x9C }
  - { offset: 0x1B32F5, size: 0x8, addend: 0x0, symName: '__ZN7rustfft4neon22neon_prime_butterflies13make_twiddles28_$u7b$$u7b$closure$u7d$$u7d$17hc4048f1c860aca55E', symObjAddr: 0x280D5C, symBinAddr: 0x28572C, symSize: 0x9C }
  - { offset: 0x1B3372, size: 0x8, addend: 0x0, symName: '__ZN7rustfft4neon22neon_prime_butterflies13make_twiddles28_$u7b$$u7b$closure$u7d$$u7d$17hc848931ccef89ff1E', symObjAddr: 0x280DF8, symBinAddr: 0x2857C8, symSize: 0x9C }
  - { offset: 0x1B33EF, size: 0x8, addend: 0x0, symName: '__ZN7rustfft4neon22neon_prime_butterflies13make_twiddles28_$u7b$$u7b$closure$u7d$$u7d$17hd511049989381ddeE', symObjAddr: 0x280E94, symBinAddr: 0x285864, symSize: 0x9C }
  - { offset: 0x1B346C, size: 0x8, addend: 0x0, symName: '__ZN7rustfft4neon22neon_prime_butterflies13make_twiddles28_$u7b$$u7b$closure$u7d$$u7d$17hd556718da634e26eE', symObjAddr: 0x280F30, symBinAddr: 0x285900, symSize: 0x9C }
  - { offset: 0x1B34EA, size: 0x8, addend: 0x0, symName: __ZN7rustfft4neon22neon_prime_butterflies25construct_prime_butterfly17hed23041e7cfaaed5E, symObjAddr: 0x280FCC, symBinAddr: 0x28599C, symSize: 0x524 }
  - { offset: 0x1B362E, size: 0x8, addend: 0x0, symName: '__ZN7rustfft4neon22neon_prime_butterflies26NeonF32Butterfly7$LT$T$GT$3new28_$u7b$$u7b$closure$u7d$$u7d$17h5f804fc3d9d4ecc8E', symObjAddr: 0x2815E0, symBinAddr: 0x285FB0, symSize: 0x2C }
  - { offset: 0x1B368A, size: 0x8, addend: 0x0, symName: '__ZN7rustfft4neon22neon_prime_butterflies26NeonF32Butterfly7$LT$T$GT$3new28_$u7b$$u7b$closure$u7d$$u7d$17hf674c7ef97e0ce20E', symObjAddr: 0x28160C, symBinAddr: 0x285FDC, symSize: 0x38 }
  - { offset: 0x1B373E, size: 0x8, addend: 0x0, symName: '__ZN7rustfft4neon22neon_prime_butterflies26NeonF64Butterfly7$LT$T$GT$3new28_$u7b$$u7b$closure$u7d$$u7d$17h0c55bf1198dfdcc8E', symObjAddr: 0x281730, symBinAddr: 0x286100, symSize: 0x2C }
  - { offset: 0x1B379A, size: 0x8, addend: 0x0, symName: '__ZN7rustfft4neon22neon_prime_butterflies26NeonF64Butterfly7$LT$T$GT$3new28_$u7b$$u7b$closure$u7d$$u7d$17h4a83fd64afde4d8cE', symObjAddr: 0x28175C, symBinAddr: 0x28612C, symSize: 0x38 }
  - { offset: 0x1B384E, size: 0x8, addend: 0x0, symName: '__ZN7rustfft4neon22neon_prime_butterflies27NeonF32Butterfly11$LT$T$GT$3new28_$u7b$$u7b$closure$u7d$$u7d$17h863e2f245a7c128cE', symObjAddr: 0x281888, symBinAddr: 0x286258, symSize: 0x38 }
  - { offset: 0x1B38AE, size: 0x8, addend: 0x0, symName: '__ZN7rustfft4neon22neon_prime_butterflies27NeonF32Butterfly11$LT$T$GT$3new28_$u7b$$u7b$closure$u7d$$u7d$17hbaa2b1c2af14e3f5E', symObjAddr: 0x2818C0, symBinAddr: 0x286290, symSize: 0x2C }
  - { offset: 0x1B3966, size: 0x8, addend: 0x0, symName: '__ZN7rustfft4neon22neon_prime_butterflies27NeonF32Butterfly13$LT$T$GT$3new28_$u7b$$u7b$closure$u7d$$u7d$17h318575928a71eb02E', symObjAddr: 0x2819E0, symBinAddr: 0x2863B0, symSize: 0x38 }
  - { offset: 0x1B39C6, size: 0x8, addend: 0x0, symName: '__ZN7rustfft4neon22neon_prime_butterflies27NeonF32Butterfly13$LT$T$GT$3new28_$u7b$$u7b$closure$u7d$$u7d$17h9072a5933217ced5E', symObjAddr: 0x281A18, symBinAddr: 0x2863E8, symSize: 0x2C }
  - { offset: 0x1B3A7E, size: 0x8, addend: 0x0, symName: '__ZN7rustfft4neon22neon_prime_butterflies27NeonF32Butterfly17$LT$T$GT$3new28_$u7b$$u7b$closure$u7d$$u7d$17h860ff2b6dd701decE', symObjAddr: 0x281B38, symBinAddr: 0x286508, symSize: 0x38 }
  - { offset: 0x1B3ADE, size: 0x8, addend: 0x0, symName: '__ZN7rustfft4neon22neon_prime_butterflies27NeonF32Butterfly17$LT$T$GT$3new28_$u7b$$u7b$closure$u7d$$u7d$17h8b7aa3316f69e237E', symObjAddr: 0x281B70, symBinAddr: 0x286540, symSize: 0x2C }
  - { offset: 0x1B3B96, size: 0x8, addend: 0x0, symName: '__ZN7rustfft4neon22neon_prime_butterflies27NeonF32Butterfly19$LT$T$GT$3new28_$u7b$$u7b$closure$u7d$$u7d$17ha44052a91998e000E', symObjAddr: 0x281C90, symBinAddr: 0x286660, symSize: 0x38 }
  - { offset: 0x1B3BF6, size: 0x8, addend: 0x0, symName: '__ZN7rustfft4neon22neon_prime_butterflies27NeonF32Butterfly19$LT$T$GT$3new28_$u7b$$u7b$closure$u7d$$u7d$17hd7d463320dae4560E', symObjAddr: 0x281CC8, symBinAddr: 0x286698, symSize: 0x2C }
  - { offset: 0x1B3CAE, size: 0x8, addend: 0x0, symName: '__ZN7rustfft4neon22neon_prime_butterflies27NeonF32Butterfly23$LT$T$GT$3new28_$u7b$$u7b$closure$u7d$$u7d$17h5b1f8dd7b0fd99c3E', symObjAddr: 0x281DE8, symBinAddr: 0x2867B8, symSize: 0x2C }
  - { offset: 0x1B3D0E, size: 0x8, addend: 0x0, symName: '__ZN7rustfft4neon22neon_prime_butterflies27NeonF32Butterfly23$LT$T$GT$3new28_$u7b$$u7b$closure$u7d$$u7d$17hcfc4340322e749cfE', symObjAddr: 0x281E14, symBinAddr: 0x2867E4, symSize: 0x38 }
  - { offset: 0x1B3DC6, size: 0x8, addend: 0x0, symName: '__ZN7rustfft4neon22neon_prime_butterflies27NeonF32Butterfly29$LT$T$GT$3new28_$u7b$$u7b$closure$u7d$$u7d$17h4820b8011fc36fc6E', symObjAddr: 0x281F40, symBinAddr: 0x286910, symSize: 0x2C }
  - { offset: 0x1B3E26, size: 0x8, addend: 0x0, symName: '__ZN7rustfft4neon22neon_prime_butterflies27NeonF32Butterfly29$LT$T$GT$3new28_$u7b$$u7b$closure$u7d$$u7d$17hfb2ca6b9bdd8fbbeE', symObjAddr: 0x281F6C, symBinAddr: 0x28693C, symSize: 0x38 }
  - { offset: 0x1B3EDE, size: 0x8, addend: 0x0, symName: '__ZN7rustfft4neon22neon_prime_butterflies27NeonF32Butterfly31$LT$T$GT$3new28_$u7b$$u7b$closure$u7d$$u7d$17h278eb2ffc9e834a0E', symObjAddr: 0x282098, symBinAddr: 0x286A68, symSize: 0x2C }
  - { offset: 0x1B3F3E, size: 0x8, addend: 0x0, symName: '__ZN7rustfft4neon22neon_prime_butterflies27NeonF32Butterfly31$LT$T$GT$3new28_$u7b$$u7b$closure$u7d$$u7d$17h90307b9b80cf1b3bE', symObjAddr: 0x2820C4, symBinAddr: 0x286A94, symSize: 0x38 }
  - { offset: 0x1B3FF6, size: 0x8, addend: 0x0, symName: '__ZN7rustfft4neon22neon_prime_butterflies27NeonF64Butterfly11$LT$T$GT$3new28_$u7b$$u7b$closure$u7d$$u7d$17h882fd6f75a135375E', symObjAddr: 0x2821E8, symBinAddr: 0x286BB8, symSize: 0x2C }
  - { offset: 0x1B4056, size: 0x8, addend: 0x0, symName: '__ZN7rustfft4neon22neon_prime_butterflies27NeonF64Butterfly11$LT$T$GT$3new28_$u7b$$u7b$closure$u7d$$u7d$17h9d9c3f1d299180faE', symObjAddr: 0x282214, symBinAddr: 0x286BE4, symSize: 0x38 }
  - { offset: 0x1B410E, size: 0x8, addend: 0x0, symName: '__ZN7rustfft4neon22neon_prime_butterflies27NeonF64Butterfly13$LT$T$GT$3new28_$u7b$$u7b$closure$u7d$$u7d$17h3c96b21a0ca585fdE', symObjAddr: 0x282338, symBinAddr: 0x286D08, symSize: 0x38 }
  - { offset: 0x1B416E, size: 0x8, addend: 0x0, symName: '__ZN7rustfft4neon22neon_prime_butterflies27NeonF64Butterfly13$LT$T$GT$3new28_$u7b$$u7b$closure$u7d$$u7d$17h9ec1c1973ba1e00aE', symObjAddr: 0x282370, symBinAddr: 0x286D40, symSize: 0x2C }
  - { offset: 0x1B4226, size: 0x8, addend: 0x0, symName: '__ZN7rustfft4neon22neon_prime_butterflies27NeonF64Butterfly17$LT$T$GT$3new28_$u7b$$u7b$closure$u7d$$u7d$17h5143fa1fe4bc6ee0E', symObjAddr: 0x282488, symBinAddr: 0x286E58, symSize: 0x2C }
  - { offset: 0x1B4286, size: 0x8, addend: 0x0, symName: '__ZN7rustfft4neon22neon_prime_butterflies27NeonF64Butterfly17$LT$T$GT$3new28_$u7b$$u7b$closure$u7d$$u7d$17h7b10c639b2fae9a4E', symObjAddr: 0x2824B4, symBinAddr: 0x286E84, symSize: 0x38 }
  - { offset: 0x1B433E, size: 0x8, addend: 0x0, symName: '__ZN7rustfft4neon22neon_prime_butterflies27NeonF64Butterfly19$LT$T$GT$3new28_$u7b$$u7b$closure$u7d$$u7d$17hbe7e3a1586c51b9cE', symObjAddr: 0x2825D8, symBinAddr: 0x286FA8, symSize: 0x2C }
  - { offset: 0x1B439E, size: 0x8, addend: 0x0, symName: '__ZN7rustfft4neon22neon_prime_butterflies27NeonF64Butterfly19$LT$T$GT$3new28_$u7b$$u7b$closure$u7d$$u7d$17hd05813befc3fde53E', symObjAddr: 0x282604, symBinAddr: 0x286FD4, symSize: 0x38 }
  - { offset: 0x1B4456, size: 0x8, addend: 0x0, symName: '__ZN7rustfft4neon22neon_prime_butterflies27NeonF64Butterfly23$LT$T$GT$3new28_$u7b$$u7b$closure$u7d$$u7d$17h6c053655dc8fe0bdE', symObjAddr: 0x282728, symBinAddr: 0x2870F8, symSize: 0x38 }
  - { offset: 0x1B44B6, size: 0x8, addend: 0x0, symName: '__ZN7rustfft4neon22neon_prime_butterflies27NeonF64Butterfly23$LT$T$GT$3new28_$u7b$$u7b$closure$u7d$$u7d$17h7e331efd5252978dE', symObjAddr: 0x282760, symBinAddr: 0x287130, symSize: 0x2C }
  - { offset: 0x1B456E, size: 0x8, addend: 0x0, symName: '__ZN7rustfft4neon22neon_prime_butterflies27NeonF64Butterfly29$LT$T$GT$3new28_$u7b$$u7b$closure$u7d$$u7d$17h624e4899bb640b66E', symObjAddr: 0x28287C, symBinAddr: 0x28724C, symSize: 0x38 }
  - { offset: 0x1B45CE, size: 0x8, addend: 0x0, symName: '__ZN7rustfft4neon22neon_prime_butterflies27NeonF64Butterfly29$LT$T$GT$3new28_$u7b$$u7b$closure$u7d$$u7d$17h65785c0ba1300ba9E', symObjAddr: 0x2828B4, symBinAddr: 0x287284, symSize: 0x2C }
  - { offset: 0x1B4686, size: 0x8, addend: 0x0, symName: '__ZN7rustfft4neon22neon_prime_butterflies27NeonF64Butterfly31$LT$T$GT$3new28_$u7b$$u7b$closure$u7d$$u7d$17h3cc746eff0d271a5E', symObjAddr: 0x2829D0, symBinAddr: 0x2873A0, symSize: 0x38 }
  - { offset: 0x1B46E6, size: 0x8, addend: 0x0, symName: '__ZN7rustfft4neon22neon_prime_butterflies27NeonF64Butterfly31$LT$T$GT$3new28_$u7b$$u7b$closure$u7d$$u7d$17ha5b874200a8e8896E', symObjAddr: 0x282A08, symBinAddr: 0x2873D8, symSize: 0x2C }
  - { offset: 0x1B4F70, size: 0x8, addend: 0x0, symName: __ZN7rustfft3Fft7process17h193e13c3147c6430E, symObjAddr: 0x27FB4C, symBinAddr: 0x28451C, symSize: 0xAC }
  - { offset: 0x1B4FCD, size: 0x8, addend: 0x0, symName: __ZN7rustfft3Fft7process17h199c425247a38fd1E, symObjAddr: 0x27FBF8, symBinAddr: 0x2845C8, symSize: 0xAC }
  - { offset: 0x1B502A, size: 0x8, addend: 0x0, symName: __ZN7rustfft3Fft7process17h2523f579929b2c7fE, symObjAddr: 0x27FCA4, symBinAddr: 0x284674, symSize: 0xAC }
  - { offset: 0x1B5087, size: 0x8, addend: 0x0, symName: __ZN7rustfft3Fft7process17h286618be84531d55E, symObjAddr: 0x27FD50, symBinAddr: 0x284720, symSize: 0xAC }
  - { offset: 0x1B50E4, size: 0x8, addend: 0x0, symName: __ZN7rustfft3Fft7process17h6ee63147957f27b2E, symObjAddr: 0x27FDFC, symBinAddr: 0x2847CC, symSize: 0xAC }
  - { offset: 0x1B5141, size: 0x8, addend: 0x0, symName: __ZN7rustfft3Fft7process17h704afec383682246E, symObjAddr: 0x27FEA8, symBinAddr: 0x284878, symSize: 0xAC }
  - { offset: 0x1B519E, size: 0x8, addend: 0x0, symName: __ZN7rustfft3Fft7process17h72198f61f0eeb653E, symObjAddr: 0x27FF54, symBinAddr: 0x284924, symSize: 0xAC }
  - { offset: 0x1B51FB, size: 0x8, addend: 0x0, symName: __ZN7rustfft3Fft7process17h73b2b0462a6f0b7dE, symObjAddr: 0x280000, symBinAddr: 0x2849D0, symSize: 0xAC }
  - { offset: 0x1B5258, size: 0x8, addend: 0x0, symName: __ZN7rustfft3Fft7process17h979caf24da450f20E, symObjAddr: 0x2800AC, symBinAddr: 0x284A7C, symSize: 0xAC }
  - { offset: 0x1B52B5, size: 0x8, addend: 0x0, symName: __ZN7rustfft3Fft7process17h9d70c36abba0af4cE, symObjAddr: 0x280158, symBinAddr: 0x284B28, symSize: 0xAC }
  - { offset: 0x1B5312, size: 0x8, addend: 0x0, symName: __ZN7rustfft3Fft7process17ha94389fb94bd236cE, symObjAddr: 0x280204, symBinAddr: 0x284BD4, symSize: 0xAC }
  - { offset: 0x1B536F, size: 0x8, addend: 0x0, symName: __ZN7rustfft3Fft7process17hb290efb4cd3b43c6E, symObjAddr: 0x2802B0, symBinAddr: 0x284C80, symSize: 0xAC }
  - { offset: 0x1B53CC, size: 0x8, addend: 0x0, symName: __ZN7rustfft3Fft7process17hb8f0c2e9d492bd88E, symObjAddr: 0x28035C, symBinAddr: 0x284D2C, symSize: 0xAC }
  - { offset: 0x1B5429, size: 0x8, addend: 0x0, symName: __ZN7rustfft3Fft7process17hc3baf1486e9bcab7E, symObjAddr: 0x280408, symBinAddr: 0x284DD8, symSize: 0xAC }
  - { offset: 0x1B5486, size: 0x8, addend: 0x0, symName: __ZN7rustfft3Fft7process17hd129daf7c0048aafE, symObjAddr: 0x2804B4, symBinAddr: 0x284E84, symSize: 0xAC }
  - { offset: 0x1B54E3, size: 0x8, addend: 0x0, symName: __ZN7rustfft3Fft7process17hf3f006fe0dd321dfE, symObjAddr: 0x280560, symBinAddr: 0x284F30, symSize: 0xAC }
  - { offset: 0x1C538E, size: 0x8, addend: 0x0, symName: '__ZN7rustfft4neon22neon_prime_butterflies26NeonF32Butterfly7$LT$T$GT$3new17ha48f42bcc0375b19E', symObjAddr: 0x2814F0, symBinAddr: 0x285EC0, symSize: 0xF0 }
  - { offset: 0x1C5423, size: 0x8, addend: 0x0, symName: '__ZN7rustfft4neon22neon_prime_butterflies26NeonF64Butterfly7$LT$T$GT$3new17h6e5e7e733de65ab6E', symObjAddr: 0x281644, symBinAddr: 0x286014, symSize: 0xEC }
  - { offset: 0x1C54B9, size: 0x8, addend: 0x0, symName: '__ZN7rustfft4neon22neon_prime_butterflies27NeonF32Butterfly11$LT$T$GT$3new17hc0b1bf96376e16baE', symObjAddr: 0x281794, symBinAddr: 0x286164, symSize: 0xF4 }
  - { offset: 0x1C5552, size: 0x8, addend: 0x0, symName: '__ZN7rustfft4neon22neon_prime_butterflies27NeonF32Butterfly13$LT$T$GT$3new17hd7d32b6ca2381f2aE', symObjAddr: 0x2818EC, symBinAddr: 0x2862BC, symSize: 0xF4 }
  - { offset: 0x1C55EB, size: 0x8, addend: 0x0, symName: '__ZN7rustfft4neon22neon_prime_butterflies27NeonF32Butterfly17$LT$T$GT$3new17h17297f196546bdacE', symObjAddr: 0x281A44, symBinAddr: 0x286414, symSize: 0xF4 }
  - { offset: 0x1C5684, size: 0x8, addend: 0x0, symName: '__ZN7rustfft4neon22neon_prime_butterflies27NeonF32Butterfly19$LT$T$GT$3new17h31769fd44ebcb2c9E', symObjAddr: 0x281B9C, symBinAddr: 0x28656C, symSize: 0xF4 }
  - { offset: 0x1C571D, size: 0x8, addend: 0x0, symName: '__ZN7rustfft4neon22neon_prime_butterflies27NeonF32Butterfly23$LT$T$GT$3new17h01fcdea4057fb496E', symObjAddr: 0x281CF4, symBinAddr: 0x2866C4, symSize: 0xF4 }
  - { offset: 0x1C57B6, size: 0x8, addend: 0x0, symName: '__ZN7rustfft4neon22neon_prime_butterflies27NeonF32Butterfly29$LT$T$GT$3new17h5a3ee302d8edcfefE', symObjAddr: 0x281E4C, symBinAddr: 0x28681C, symSize: 0xF4 }
  - { offset: 0x1C584F, size: 0x8, addend: 0x0, symName: '__ZN7rustfft4neon22neon_prime_butterflies27NeonF32Butterfly31$LT$T$GT$3new17hb428909b68e51a73E', symObjAddr: 0x281FA4, symBinAddr: 0x286974, symSize: 0xF4 }
  - { offset: 0x1C58E8, size: 0x8, addend: 0x0, symName: '__ZN7rustfft4neon22neon_prime_butterflies27NeonF64Butterfly11$LT$T$GT$3new17h010362083586943aE', symObjAddr: 0x2820FC, symBinAddr: 0x286ACC, symSize: 0xEC }
  - { offset: 0x1C5981, size: 0x8, addend: 0x0, symName: '__ZN7rustfft4neon22neon_prime_butterflies27NeonF64Butterfly13$LT$T$GT$3new17h73ae3a369945dc9cE', symObjAddr: 0x28224C, symBinAddr: 0x286C1C, symSize: 0xEC }
  - { offset: 0x1C5A1A, size: 0x8, addend: 0x0, symName: '__ZN7rustfft4neon22neon_prime_butterflies27NeonF64Butterfly17$LT$T$GT$3new17h9499b9d2cc5cade5E', symObjAddr: 0x28239C, symBinAddr: 0x286D6C, symSize: 0xEC }
  - { offset: 0x1C5AB3, size: 0x8, addend: 0x0, symName: '__ZN7rustfft4neon22neon_prime_butterflies27NeonF64Butterfly19$LT$T$GT$3new17hfd0c90fe22e5d241E', symObjAddr: 0x2824EC, symBinAddr: 0x286EBC, symSize: 0xEC }
  - { offset: 0x1C5B4C, size: 0x8, addend: 0x0, symName: '__ZN7rustfft4neon22neon_prime_butterflies27NeonF64Butterfly23$LT$T$GT$3new17ha141ac735f170d21E', symObjAddr: 0x28263C, symBinAddr: 0x28700C, symSize: 0xEC }
  - { offset: 0x1C5BE5, size: 0x8, addend: 0x0, symName: '__ZN7rustfft4neon22neon_prime_butterflies27NeonF64Butterfly29$LT$T$GT$3new17h122b20026f4018bbE', symObjAddr: 0x28278C, symBinAddr: 0x28715C, symSize: 0xF0 }
  - { offset: 0x1C5C7E, size: 0x8, addend: 0x0, symName: '__ZN7rustfft4neon22neon_prime_butterflies27NeonF64Butterfly31$LT$T$GT$3new17h7083706ccf2b3c10E', symObjAddr: 0x2828E0, symBinAddr: 0x2872B0, symSize: 0xF0 }
  - { offset: 0x1C61F2, size: 0x8, addend: 0x0, symName: '__ZN100_$LT$core..iter..adapters..skip..Skip$LT$I$GT$$u20$as$u20$core..iter..traits..iterator..Iterator$GT$4next17h096d0bbed48bedceE', symObjAddr: 0x0, symBinAddr: 0x287404, symSize: 0x70 }
  - { offset: 0x1C6316, size: 0x8, addend: 0x0, symName: '__ZN100_$LT$core..iter..adapters..skip..Skip$LT$I$GT$$u20$as$u20$core..iter..traits..iterator..Iterator$GT$4next17h096d0bbed48bedceE', symObjAddr: 0x0, symBinAddr: 0x287404, symSize: 0x70 }
  - { offset: 0x1C639D, size: 0x8, addend: 0x0, symName: '__ZN100_$LT$core..iter..adapters..skip..Skip$LT$I$GT$$u20$as$u20$core..iter..traits..iterator..Iterator$GT$4next17hb6dd486c5375cb32E', symObjAddr: 0x70, symBinAddr: 0x287474, symSize: 0x70 }
  - { offset: 0x1C6424, size: 0x8, addend: 0x0, symName: '__ZN100_$LT$core..iter..adapters..skip..Skip$LT$I$GT$$u20$as$u20$core..iter..traits..iterator..Iterator$GT$8try_fold17h93dc96674e22b1feE', symObjAddr: 0xE0, symBinAddr: 0x2874E4, symSize: 0x114 }
  - { offset: 0x1C65E0, size: 0x8, addend: 0x0, symName: __ZN4core4iter6traits8iterator8Iterator3any17h9f090b3b66f6a25dE, symObjAddr: 0x1F4, symBinAddr: 0x2875F8, symSize: 0x44 }
  - { offset: 0x1C665A, size: 0x8, addend: 0x0, symName: '__ZN63_$LT$I$u20$as$u20$core..iter..traits..collect..IntoIterator$GT$9into_iter17h7b7ea8de85bb057cE', symObjAddr: 0x238, symBinAddr: 0x28763C, symSize: 0x30 }
  - { offset: 0x1C6692, size: 0x8, addend: 0x0, symName: '__ZN63_$LT$I$u20$as$u20$core..iter..traits..collect..IntoIterator$GT$9into_iter17hcb5099ed4d59b110E', symObjAddr: 0x268, symBinAddr: 0x28766C, symSize: 0x18 }
  - { offset: 0x1C6B9F, size: 0x8, addend: 0x0, symName: '__ZN4core5slice29_$LT$impl$u20$$u5b$T$u5d$$GT$5first17h5f1930cd04487336E', symObjAddr: 0x0, symBinAddr: 0x287684, symSize: 0x44 }
  - { offset: 0x1C6C04, size: 0x8, addend: 0x0, symName: __ZN7rustfft11array_utils12reverse_bits17hec383f300723dd0eE, symObjAddr: 0x94, symBinAddr: 0x287718, symSize: 0xE8 }
  - { offset: 0x1C6C83, size: 0x8, addend: 0x0, symName: __ZN7rustfft11array_utils15transpose_small17h4224e7eee47ceffcE, symObjAddr: 0x17C, symBinAddr: 0x287800, symSize: 0x1DC }
  - { offset: 0x1C6D69, size: 0x8, addend: 0x0, symName: __ZN7rustfft11array_utils16factor_transpose17h318171c9cd498820E, symObjAddr: 0x358, symBinAddr: 0x2879DC, symSize: 0x4A4 }
  - { offset: 0x1C6F71, size: 0x8, addend: 0x0, symName: __ZN7rustfft11array_utils16factor_transpose17h581da9890be18ed2E, symObjAddr: 0x7FC, symBinAddr: 0x287E80, symSize: 0x4A8 }
  - { offset: 0x1C7179, size: 0x8, addend: 0x0, symName: __ZN7rustfft11array_utils16factor_transpose17h7a5e2d7ce579fb41E, symObjAddr: 0xCA4, symBinAddr: 0x288328, symSize: 0x4A4 }
  - { offset: 0x1C7381, size: 0x8, addend: 0x0, symName: __ZN7rustfft11array_utils16factor_transpose17h9e948fb67ec371c0E, symObjAddr: 0x1148, symBinAddr: 0x2887CC, symSize: 0x4AC }
  - { offset: 0x1C7589, size: 0x8, addend: 0x0, symName: __ZN7rustfft11array_utils16factor_transpose17hcfc9eae1413704beE, symObjAddr: 0x15F4, symBinAddr: 0x288C78, symSize: 0x474 }
  - { offset: 0x1C7791, size: 0x8, addend: 0x0, symName: __ZN7rustfft11array_utils16factor_transpose17hd2426fa85e524c2dE, symObjAddr: 0x1A68, symBinAddr: 0x2890EC, symSize: 0x4A0 }
  - { offset: 0x1C799E, size: 0x8, addend: 0x0, symName: '__ZN7rustfft11array_utils16factor_transpose28_$u7b$$u7b$closure$u7d$$u7d$17h0b6cfca9deb0f9c4E', symObjAddr: 0x1F08, symBinAddr: 0x28958C, symSize: 0xCC }
  - { offset: 0x1C7A0D, size: 0x8, addend: 0x0, symName: '__ZN7rustfft11array_utils16factor_transpose28_$u7b$$u7b$closure$u7d$$u7d$17h16d859d7007795efE', symObjAddr: 0x1FD4, symBinAddr: 0x289658, symSize: 0x38 }
  - { offset: 0x1C7A56, size: 0x8, addend: 0x0, symName: '__ZN7rustfft11array_utils16factor_transpose28_$u7b$$u7b$closure$u7d$$u7d$17h1f5b291f1973c700E', symObjAddr: 0x200C, symBinAddr: 0x289690, symSize: 0xCC }
  - { offset: 0x1C7AC5, size: 0x8, addend: 0x0, symName: '__ZN7rustfft11array_utils16factor_transpose28_$u7b$$u7b$closure$u7d$$u7d$17h42e8a1ddb1482a3aE', symObjAddr: 0x20D8, symBinAddr: 0x28975C, symSize: 0x38 }
  - { offset: 0x1C7B0E, size: 0x8, addend: 0x0, symName: '__ZN7rustfft11array_utils16factor_transpose28_$u7b$$u7b$closure$u7d$$u7d$17h47758de452e4319aE', symObjAddr: 0x2110, symBinAddr: 0x289794, symSize: 0xCC }
  - { offset: 0x1C7B7D, size: 0x8, addend: 0x0, symName: '__ZN7rustfft11array_utils16factor_transpose28_$u7b$$u7b$closure$u7d$$u7d$17h74182c04c3542609E', symObjAddr: 0x21DC, symBinAddr: 0x289860, symSize: 0x38 }
  - { offset: 0x1C7BC6, size: 0x8, addend: 0x0, symName: '__ZN7rustfft11array_utils16factor_transpose28_$u7b$$u7b$closure$u7d$$u7d$17h8f3a52bd5815898bE', symObjAddr: 0x2214, symBinAddr: 0x289898, symSize: 0x38 }
  - { offset: 0x1C7C0F, size: 0x8, addend: 0x0, symName: '__ZN7rustfft11array_utils16factor_transpose28_$u7b$$u7b$closure$u7d$$u7d$17haba5817b3ca180e4E', symObjAddr: 0x224C, symBinAddr: 0x2898D0, symSize: 0xCC }
  - { offset: 0x1C7C7E, size: 0x8, addend: 0x0, symName: '__ZN7rustfft11array_utils16factor_transpose28_$u7b$$u7b$closure$u7d$$u7d$17hbac929997c90a1ddE', symObjAddr: 0x2318, symBinAddr: 0x28999C, symSize: 0xCC }
  - { offset: 0x1C7CED, size: 0x8, addend: 0x0, symName: '__ZN7rustfft11array_utils16factor_transpose28_$u7b$$u7b$closure$u7d$$u7d$17hdac634811e9acdd6E', symObjAddr: 0x23E4, symBinAddr: 0x289A68, symSize: 0x38 }
  - { offset: 0x1C7D36, size: 0x8, addend: 0x0, symName: '__ZN7rustfft11array_utils16factor_transpose28_$u7b$$u7b$closure$u7d$$u7d$17hdf5770d42b0e01d6E', symObjAddr: 0x241C, symBinAddr: 0x289AA0, symSize: 0xCC }
  - { offset: 0x1C7DA5, size: 0x8, addend: 0x0, symName: '__ZN7rustfft11array_utils16factor_transpose28_$u7b$$u7b$closure$u7d$$u7d$17hdfb15ff1d8283ad8E', symObjAddr: 0x24E8, symBinAddr: 0x289B6C, symSize: 0x38 }
  - { offset: 0x1C7DEF, size: 0x8, addend: 0x0, symName: __ZN7rustfft11array_utils16validate_and_zip17h044a86026a9921f1E, symObjAddr: 0x2520, symBinAddr: 0x289BA4, symSize: 0x244 }
  - { offset: 0x1C7F0F, size: 0x8, addend: 0x0, symName: __ZN7rustfft11array_utils16validate_and_zip17h099947fe40e3e42aE, symObjAddr: 0x2764, symBinAddr: 0x289DE8, symSize: 0x244 }
  - { offset: 0x1C802F, size: 0x8, addend: 0x0, symName: __ZN7rustfft11array_utils16validate_and_zip17h0c690dc377b5e383E, symObjAddr: 0x29A8, symBinAddr: 0x28A02C, symSize: 0x244 }
  - { offset: 0x1C814F, size: 0x8, addend: 0x0, symName: __ZN7rustfft11array_utils16validate_and_zip17h14e6e3a6dd52e38cE, symObjAddr: 0x2BEC, symBinAddr: 0x28A270, symSize: 0x244 }
  - { offset: 0x1C826F, size: 0x8, addend: 0x0, symName: __ZN7rustfft11array_utils16validate_and_zip17h14ffd413f93f2419E, symObjAddr: 0x2E30, symBinAddr: 0x28A4B4, symSize: 0x244 }
  - { offset: 0x1C838F, size: 0x8, addend: 0x0, symName: __ZN7rustfft11array_utils16validate_and_zip17h223567c663184002E, symObjAddr: 0x3074, symBinAddr: 0x28A6F8, symSize: 0x244 }
  - { offset: 0x1C84AF, size: 0x8, addend: 0x0, symName: __ZN7rustfft11array_utils16validate_and_zip17h24f07c85c69faa91E, symObjAddr: 0x32B8, symBinAddr: 0x28A93C, symSize: 0x244 }
  - { offset: 0x1C85CF, size: 0x8, addend: 0x0, symName: __ZN7rustfft11array_utils16validate_and_zip17h29121fbb6c156fe2E, symObjAddr: 0x34FC, symBinAddr: 0x28AB80, symSize: 0x244 }
  - { offset: 0x1C86EF, size: 0x8, addend: 0x0, symName: __ZN7rustfft11array_utils16validate_and_zip17h319f8ce0479dd0a1E, symObjAddr: 0x3740, symBinAddr: 0x28ADC4, symSize: 0x244 }
  - { offset: 0x1C880F, size: 0x8, addend: 0x0, symName: __ZN7rustfft11array_utils16validate_and_zip17h363ae5e9f5640b3aE, symObjAddr: 0x3984, symBinAddr: 0x28B008, symSize: 0x244 }
  - { offset: 0x1C892F, size: 0x8, addend: 0x0, symName: __ZN7rustfft11array_utils16validate_and_zip17h3669dd4b1bd23a3cE, symObjAddr: 0x3BC8, symBinAddr: 0x28B24C, symSize: 0x244 }
  - { offset: 0x1C8A4F, size: 0x8, addend: 0x0, symName: __ZN7rustfft11array_utils16validate_and_zip17h3b01bcf7ff776d98E, symObjAddr: 0x3E0C, symBinAddr: 0x28B490, symSize: 0x244 }
  - { offset: 0x1C8B6F, size: 0x8, addend: 0x0, symName: __ZN7rustfft11array_utils16validate_and_zip17h3c31fafe536cc0a6E, symObjAddr: 0x4050, symBinAddr: 0x28B6D4, symSize: 0x244 }
  - { offset: 0x1C8C8F, size: 0x8, addend: 0x0, symName: __ZN7rustfft11array_utils16validate_and_zip17h3ce244fc2ddac317E, symObjAddr: 0x4294, symBinAddr: 0x28B918, symSize: 0x244 }
  - { offset: 0x1C8DAF, size: 0x8, addend: 0x0, symName: __ZN7rustfft11array_utils16validate_and_zip17h3cf25ab2f1eeeb77E, symObjAddr: 0x44D8, symBinAddr: 0x28BB5C, symSize: 0x244 }
  - { offset: 0x1C8ECF, size: 0x8, addend: 0x0, symName: __ZN7rustfft11array_utils16validate_and_zip17h426794481d7f46f4E, symObjAddr: 0x471C, symBinAddr: 0x28BDA0, symSize: 0x244 }
  - { offset: 0x1C8FEF, size: 0x8, addend: 0x0, symName: __ZN7rustfft11array_utils16validate_and_zip17h4a8f96c5e2ade420E, symObjAddr: 0x4960, symBinAddr: 0x28BFE4, symSize: 0x244 }
  - { offset: 0x1C910F, size: 0x8, addend: 0x0, symName: __ZN7rustfft11array_utils16validate_and_zip17h54b07a6c697f0167E, symObjAddr: 0x4BA4, symBinAddr: 0x28C228, symSize: 0x244 }
  - { offset: 0x1C922F, size: 0x8, addend: 0x0, symName: __ZN7rustfft11array_utils16validate_and_zip17h58697ce71a2611f2E, symObjAddr: 0x4DE8, symBinAddr: 0x28C46C, symSize: 0x244 }
  - { offset: 0x1C934F, size: 0x8, addend: 0x0, symName: __ZN7rustfft11array_utils16validate_and_zip17h609a620a326fbbc1E, symObjAddr: 0x502C, symBinAddr: 0x28C6B0, symSize: 0x244 }
  - { offset: 0x1C946F, size: 0x8, addend: 0x0, symName: __ZN7rustfft11array_utils16validate_and_zip17h6373ba8688eee901E, symObjAddr: 0x5270, symBinAddr: 0x28C8F4, symSize: 0x244 }
  - { offset: 0x1C958F, size: 0x8, addend: 0x0, symName: __ZN7rustfft11array_utils16validate_and_zip17h681f538e97aee036E, symObjAddr: 0x54B4, symBinAddr: 0x28CB38, symSize: 0x244 }
  - { offset: 0x1C96AF, size: 0x8, addend: 0x0, symName: __ZN7rustfft11array_utils16validate_and_zip17h6dc2d87d1a598f13E, symObjAddr: 0x56F8, symBinAddr: 0x28CD7C, symSize: 0x244 }
  - { offset: 0x1C97CF, size: 0x8, addend: 0x0, symName: __ZN7rustfft11array_utils16validate_and_zip17h76d58a0ccd409365E, symObjAddr: 0x593C, symBinAddr: 0x28CFC0, symSize: 0x244 }
  - { offset: 0x1C98EF, size: 0x8, addend: 0x0, symName: __ZN7rustfft11array_utils16validate_and_zip17h7812d0006c8fe7a7E, symObjAddr: 0x5B80, symBinAddr: 0x28D204, symSize: 0x244 }
  - { offset: 0x1C9A0F, size: 0x8, addend: 0x0, symName: __ZN7rustfft11array_utils16validate_and_zip17h808b224d88aa00caE, symObjAddr: 0x5DC4, symBinAddr: 0x28D448, symSize: 0x244 }
  - { offset: 0x1C9B2F, size: 0x8, addend: 0x0, symName: __ZN7rustfft11array_utils16validate_and_zip17h83f32aef408d2e9eE, symObjAddr: 0x6008, symBinAddr: 0x28D68C, symSize: 0x244 }
  - { offset: 0x1C9C4F, size: 0x8, addend: 0x0, symName: __ZN7rustfft11array_utils16validate_and_zip17h89795d3f87e96af1E, symObjAddr: 0x624C, symBinAddr: 0x28D8D0, symSize: 0x244 }
  - { offset: 0x1C9D6F, size: 0x8, addend: 0x0, symName: __ZN7rustfft11array_utils16validate_and_zip17h8b2164fc944c07e0E, symObjAddr: 0x6490, symBinAddr: 0x28DB14, symSize: 0x244 }
  - { offset: 0x1C9E8F, size: 0x8, addend: 0x0, symName: __ZN7rustfft11array_utils16validate_and_zip17h8f3f7cc38038b2bfE, symObjAddr: 0x66D4, symBinAddr: 0x28DD58, symSize: 0x244 }
  - { offset: 0x1C9FAF, size: 0x8, addend: 0x0, symName: __ZN7rustfft11array_utils16validate_and_zip17h97a86e30d8938d0cE, symObjAddr: 0x6918, symBinAddr: 0x28DF9C, symSize: 0x244 }
  - { offset: 0x1CA0CF, size: 0x8, addend: 0x0, symName: __ZN7rustfft11array_utils16validate_and_zip17h9857e0c5ea74b44bE, symObjAddr: 0x6B5C, symBinAddr: 0x28E1E0, symSize: 0x244 }
  - { offset: 0x1CA1EF, size: 0x8, addend: 0x0, symName: __ZN7rustfft11array_utils16validate_and_zip17h9a31c000f7f4ddc4E, symObjAddr: 0x6DA0, symBinAddr: 0x28E424, symSize: 0x244 }
  - { offset: 0x1CA30F, size: 0x8, addend: 0x0, symName: __ZN7rustfft11array_utils16validate_and_zip17h9da0f14081dc92daE, symObjAddr: 0x6FE4, symBinAddr: 0x28E668, symSize: 0x244 }
  - { offset: 0x1CA42F, size: 0x8, addend: 0x0, symName: __ZN7rustfft11array_utils16validate_and_zip17ha1e9c340c662ff4fE, symObjAddr: 0x7228, symBinAddr: 0x28E8AC, symSize: 0x244 }
  - { offset: 0x1CA54F, size: 0x8, addend: 0x0, symName: __ZN7rustfft11array_utils16validate_and_zip17ha44434e7c020ff75E, symObjAddr: 0x746C, symBinAddr: 0x28EAF0, symSize: 0x244 }
  - { offset: 0x1CA66F, size: 0x8, addend: 0x0, symName: __ZN7rustfft11array_utils16validate_and_zip17ha5a8b770160118deE, symObjAddr: 0x76B0, symBinAddr: 0x28ED34, symSize: 0x244 }
  - { offset: 0x1CA78F, size: 0x8, addend: 0x0, symName: __ZN7rustfft11array_utils16validate_and_zip17ha88117a0daf3e537E, symObjAddr: 0x78F4, symBinAddr: 0x28EF78, symSize: 0x244 }
  - { offset: 0x1CA8AF, size: 0x8, addend: 0x0, symName: __ZN7rustfft11array_utils16validate_and_zip17hace7cf3e19fd72a7E, symObjAddr: 0x7B38, symBinAddr: 0x28F1BC, symSize: 0x244 }
  - { offset: 0x1CA9CF, size: 0x8, addend: 0x0, symName: __ZN7rustfft11array_utils16validate_and_zip17hc91a3edbb704d9d0E, symObjAddr: 0x7D7C, symBinAddr: 0x28F400, symSize: 0x244 }
  - { offset: 0x1CAAEF, size: 0x8, addend: 0x0, symName: __ZN7rustfft11array_utils16validate_and_zip17hcffa3746701efcd6E, symObjAddr: 0x7FC0, symBinAddr: 0x28F644, symSize: 0x244 }
  - { offset: 0x1CAC0F, size: 0x8, addend: 0x0, symName: __ZN7rustfft11array_utils16validate_and_zip17hd7cffe8f33cff6f9E, symObjAddr: 0x8204, symBinAddr: 0x28F888, symSize: 0x244 }
  - { offset: 0x1CAD2F, size: 0x8, addend: 0x0, symName: __ZN7rustfft11array_utils16validate_and_zip17hdaba2f678303ede5E, symObjAddr: 0x8448, symBinAddr: 0x28FACC, symSize: 0x244 }
  - { offset: 0x1CAE4F, size: 0x8, addend: 0x0, symName: __ZN7rustfft11array_utils16validate_and_zip17he2a403095a172106E, symObjAddr: 0x868C, symBinAddr: 0x28FD10, symSize: 0x244 }
  - { offset: 0x1CAF6F, size: 0x8, addend: 0x0, symName: __ZN7rustfft11array_utils16validate_and_zip17he413ca9d94342abbE, symObjAddr: 0x88D0, symBinAddr: 0x28FF54, symSize: 0x244 }
  - { offset: 0x1CB08F, size: 0x8, addend: 0x0, symName: __ZN7rustfft11array_utils16validate_and_zip17he7d243b899e1783bE, symObjAddr: 0x8B14, symBinAddr: 0x290198, symSize: 0x244 }
  - { offset: 0x1CB1AF, size: 0x8, addend: 0x0, symName: __ZN7rustfft11array_utils16validate_and_zip17hed5a8e9508d5af78E, symObjAddr: 0x8D58, symBinAddr: 0x2903DC, symSize: 0x244 }
  - { offset: 0x1CB2CF, size: 0x8, addend: 0x0, symName: __ZN7rustfft11array_utils16validate_and_zip17hf49403aacd75427eE, symObjAddr: 0x8F9C, symBinAddr: 0x290620, symSize: 0x244 }
  - { offset: 0x1CB3EF, size: 0x8, addend: 0x0, symName: __ZN7rustfft11array_utils16validate_and_zip17hf70acf3bb63a9efdE, symObjAddr: 0x91E0, symBinAddr: 0x290864, symSize: 0x244 }
  - { offset: 0x1CB50F, size: 0x8, addend: 0x0, symName: __ZN7rustfft11array_utils16validate_and_zip17hf7b6c1f3d4847474E, symObjAddr: 0x9424, symBinAddr: 0x290AA8, symSize: 0x244 }
  - { offset: 0x1CB62F, size: 0x8, addend: 0x0, symName: __ZN7rustfft11array_utils16validate_and_zip17hfa69d8c66c0a5399E, symObjAddr: 0x9668, symBinAddr: 0x290CEC, symSize: 0x244 }
  - { offset: 0x1CB74F, size: 0x8, addend: 0x0, symName: __ZN7rustfft11array_utils16validate_and_zip17hfdb806211864da0aE, symObjAddr: 0x98AC, symBinAddr: 0x290F30, symSize: 0x244 }
  - { offset: 0x1CB86F, size: 0x8, addend: 0x0, symName: __ZN7rustfft11array_utils16validate_and_zip17hffc382702ad9aa01E, symObjAddr: 0x9AF0, symBinAddr: 0x291174, symSize: 0x244 }
  - { offset: 0x1CB98F, size: 0x8, addend: 0x0, symName: __ZN7rustfft11array_utils17compute_logarithm17h319573febbb882aaE, symObjAddr: 0x9D34, symBinAddr: 0x2913B8, symSize: 0xD8 }
  - { offset: 0x1CB9E9, size: 0x8, addend: 0x0, symName: __ZN7rustfft11array_utils17validate_and_iter17h05c3df1e8b4fc2d1E, symObjAddr: 0x9E0C, symBinAddr: 0x291490, symSize: 0x1AC }
  - { offset: 0x1CBACC, size: 0x8, addend: 0x0, symName: __ZN7rustfft11array_utils17validate_and_iter17h10ca6461e674e91cE, symObjAddr: 0x9FB8, symBinAddr: 0x29163C, symSize: 0x1AC }
  - { offset: 0x1CBBAF, size: 0x8, addend: 0x0, symName: __ZN7rustfft11array_utils17validate_and_iter17h136e4961a79c983fE, symObjAddr: 0xA164, symBinAddr: 0x2917E8, symSize: 0x1AC }
  - { offset: 0x1CBC92, size: 0x8, addend: 0x0, symName: __ZN7rustfft11array_utils17validate_and_iter17h1deb50e5b75756a8E, symObjAddr: 0xA310, symBinAddr: 0x291994, symSize: 0x1AC }
  - { offset: 0x1CBD75, size: 0x8, addend: 0x0, symName: __ZN7rustfft11array_utils17validate_and_iter17h26e258c036a831a9E, symObjAddr: 0xA4BC, symBinAddr: 0x291B40, symSize: 0x1AC }
  - { offset: 0x1CBE58, size: 0x8, addend: 0x0, symName: __ZN7rustfft11array_utils17validate_and_iter17h278a4f4981636628E, symObjAddr: 0xA668, symBinAddr: 0x291CEC, symSize: 0x1AC }
  - { offset: 0x1CBF3B, size: 0x8, addend: 0x0, symName: __ZN7rustfft11array_utils17validate_and_iter17h2938e47199228958E, symObjAddr: 0xA814, symBinAddr: 0x291E98, symSize: 0x1AC }
  - { offset: 0x1CC01E, size: 0x8, addend: 0x0, symName: __ZN7rustfft11array_utils17validate_and_iter17h2b28705342dbc197E, symObjAddr: 0xA9C0, symBinAddr: 0x292044, symSize: 0x1AC }
  - { offset: 0x1CC101, size: 0x8, addend: 0x0, symName: __ZN7rustfft11array_utils17validate_and_iter17h2b3f6faeee0c7bd8E, symObjAddr: 0xAB6C, symBinAddr: 0x2921F0, symSize: 0x1AC }
  - { offset: 0x1CC1E4, size: 0x8, addend: 0x0, symName: __ZN7rustfft11array_utils17validate_and_iter17h2cfb562283ef80b4E, symObjAddr: 0xAD18, symBinAddr: 0x29239C, symSize: 0x1AC }
  - { offset: 0x1CC2C7, size: 0x8, addend: 0x0, symName: __ZN7rustfft11array_utils17validate_and_iter17h34a9ab0e81a9539fE, symObjAddr: 0xAEC4, symBinAddr: 0x292548, symSize: 0x1AC }
  - { offset: 0x1CC3AA, size: 0x8, addend: 0x0, symName: __ZN7rustfft11array_utils17validate_and_iter17h3d611a0f5f992f15E, symObjAddr: 0xB070, symBinAddr: 0x2926F4, symSize: 0x1AC }
  - { offset: 0x1CC48D, size: 0x8, addend: 0x0, symName: __ZN7rustfft11array_utils17validate_and_iter17h418e8245be1c7b07E, symObjAddr: 0xB21C, symBinAddr: 0x2928A0, symSize: 0x1AC }
  - { offset: 0x1CC570, size: 0x8, addend: 0x0, symName: __ZN7rustfft11array_utils17validate_and_iter17h4a15660649ddcd58E, symObjAddr: 0xB3C8, symBinAddr: 0x292A4C, symSize: 0x1AC }
  - { offset: 0x1CC653, size: 0x8, addend: 0x0, symName: __ZN7rustfft11array_utils17validate_and_iter17h4db7ade0c77febc0E, symObjAddr: 0xB574, symBinAddr: 0x292BF8, symSize: 0x1AC }
  - { offset: 0x1CC736, size: 0x8, addend: 0x0, symName: __ZN7rustfft11array_utils17validate_and_iter17h4e7c4346b95af34bE, symObjAddr: 0xB720, symBinAddr: 0x292DA4, symSize: 0x1AC }
  - { offset: 0x1CC819, size: 0x8, addend: 0x0, symName: __ZN7rustfft11array_utils17validate_and_iter17h4eda0f3d45859a0eE, symObjAddr: 0xB8CC, symBinAddr: 0x292F50, symSize: 0x1AC }
  - { offset: 0x1CC8FC, size: 0x8, addend: 0x0, symName: __ZN7rustfft11array_utils17validate_and_iter17h50cbf4c51bba13c1E, symObjAddr: 0xBA78, symBinAddr: 0x2930FC, symSize: 0x1AC }
  - { offset: 0x1CC9DF, size: 0x8, addend: 0x0, symName: __ZN7rustfft11array_utils17validate_and_iter17h5318585d48bcfa9bE, symObjAddr: 0xBC24, symBinAddr: 0x2932A8, symSize: 0x1AC }
  - { offset: 0x1CCAC2, size: 0x8, addend: 0x0, symName: __ZN7rustfft11array_utils17validate_and_iter17h5c7621731e4b4436E, symObjAddr: 0xBDD0, symBinAddr: 0x293454, symSize: 0x1AC }
  - { offset: 0x1CCBA5, size: 0x8, addend: 0x0, symName: __ZN7rustfft11array_utils17validate_and_iter17h64c8c68e3d6fd525E, symObjAddr: 0xBF7C, symBinAddr: 0x293600, symSize: 0x1AC }
  - { offset: 0x1CCC88, size: 0x8, addend: 0x0, symName: __ZN7rustfft11array_utils17validate_and_iter17h66a2ec0d70ae4dd1E, symObjAddr: 0xC128, symBinAddr: 0x2937AC, symSize: 0x1AC }
  - { offset: 0x1CCD6B, size: 0x8, addend: 0x0, symName: __ZN7rustfft11array_utils17validate_and_iter17h691b7c579c5fd61eE, symObjAddr: 0xC2D4, symBinAddr: 0x293958, symSize: 0x1AC }
  - { offset: 0x1CCE4E, size: 0x8, addend: 0x0, symName: __ZN7rustfft11array_utils17validate_and_iter17h6974780f66f34d0aE, symObjAddr: 0xC480, symBinAddr: 0x293B04, symSize: 0x1AC }
  - { offset: 0x1CCF31, size: 0x8, addend: 0x0, symName: __ZN7rustfft11array_utils17validate_and_iter17h69f7d375e14d243fE, symObjAddr: 0xC62C, symBinAddr: 0x293CB0, symSize: 0x1AC }
  - { offset: 0x1CD014, size: 0x8, addend: 0x0, symName: __ZN7rustfft11array_utils17validate_and_iter17h6a7924a494ee2920E, symObjAddr: 0xC7D8, symBinAddr: 0x293E5C, symSize: 0x1AC }
  - { offset: 0x1CD0F7, size: 0x8, addend: 0x0, symName: __ZN7rustfft11array_utils17validate_and_iter17h6c48bab6251cd3bbE, symObjAddr: 0xC984, symBinAddr: 0x294008, symSize: 0x1AC }
  - { offset: 0x1CD1DA, size: 0x8, addend: 0x0, symName: __ZN7rustfft11array_utils17validate_and_iter17h71647e0f27c155f0E, symObjAddr: 0xCB30, symBinAddr: 0x2941B4, symSize: 0x1AC }
  - { offset: 0x1CD2BD, size: 0x8, addend: 0x0, symName: __ZN7rustfft11array_utils17validate_and_iter17h75224fd222d04c0aE, symObjAddr: 0xCCDC, symBinAddr: 0x294360, symSize: 0x1AC }
  - { offset: 0x1CD3A0, size: 0x8, addend: 0x0, symName: __ZN7rustfft11array_utils17validate_and_iter17h7740f9d98e6639c1E, symObjAddr: 0xCE88, symBinAddr: 0x29450C, symSize: 0x1AC }
  - { offset: 0x1CD483, size: 0x8, addend: 0x0, symName: __ZN7rustfft11array_utils17validate_and_iter17h7c96b1afaa16175fE, symObjAddr: 0xD034, symBinAddr: 0x2946B8, symSize: 0x1AC }
  - { offset: 0x1CD566, size: 0x8, addend: 0x0, symName: __ZN7rustfft11array_utils17validate_and_iter17h7cf0e5d8813bbd89E, symObjAddr: 0xD1E0, symBinAddr: 0x294864, symSize: 0x1AC }
  - { offset: 0x1CD649, size: 0x8, addend: 0x0, symName: __ZN7rustfft11array_utils17validate_and_iter17h7fce7038516f5945E, symObjAddr: 0xD38C, symBinAddr: 0x294A10, symSize: 0x1AC }
  - { offset: 0x1CD72C, size: 0x8, addend: 0x0, symName: __ZN7rustfft11array_utils17validate_and_iter17h979c69f2faf5a725E, symObjAddr: 0xD538, symBinAddr: 0x294BBC, symSize: 0x1AC }
  - { offset: 0x1CD80F, size: 0x8, addend: 0x0, symName: __ZN7rustfft11array_utils17validate_and_iter17h986f3e0673eb93c0E, symObjAddr: 0xD6E4, symBinAddr: 0x294D68, symSize: 0x1AC }
  - { offset: 0x1CD8F2, size: 0x8, addend: 0x0, symName: __ZN7rustfft11array_utils17validate_and_iter17h9bb472ad090e5909E, symObjAddr: 0xD890, symBinAddr: 0x294F14, symSize: 0x1AC }
  - { offset: 0x1CD9D5, size: 0x8, addend: 0x0, symName: __ZN7rustfft11array_utils17validate_and_iter17h9c34cc180b912d22E, symObjAddr: 0xDA3C, symBinAddr: 0x2950C0, symSize: 0x1AC }
  - { offset: 0x1CDAB8, size: 0x8, addend: 0x0, symName: __ZN7rustfft11array_utils17validate_and_iter17h9cf20dc7c056e37fE, symObjAddr: 0xDBE8, symBinAddr: 0x29526C, symSize: 0x1AC }
  - { offset: 0x1CDB9B, size: 0x8, addend: 0x0, symName: __ZN7rustfft11array_utils17validate_and_iter17ha1a079ad082abb40E, symObjAddr: 0xDD94, symBinAddr: 0x295418, symSize: 0x1AC }
  - { offset: 0x1CDC7E, size: 0x8, addend: 0x0, symName: __ZN7rustfft11array_utils17validate_and_iter17ha99f0eec08f2a3b0E, symObjAddr: 0xDF40, symBinAddr: 0x2955C4, symSize: 0x1AC }
  - { offset: 0x1CDD61, size: 0x8, addend: 0x0, symName: __ZN7rustfft11array_utils17validate_and_iter17hc377f6f269fdad4eE, symObjAddr: 0xE0EC, symBinAddr: 0x295770, symSize: 0x1AC }
  - { offset: 0x1CDE44, size: 0x8, addend: 0x0, symName: __ZN7rustfft11array_utils17validate_and_iter17hc60fd4bebbf18202E, symObjAddr: 0xE298, symBinAddr: 0x29591C, symSize: 0x1AC }
  - { offset: 0x1CDF27, size: 0x8, addend: 0x0, symName: __ZN7rustfft11array_utils17validate_and_iter17hcfb5156080447c93E, symObjAddr: 0xE444, symBinAddr: 0x295AC8, symSize: 0x1AC }
  - { offset: 0x1CE00A, size: 0x8, addend: 0x0, symName: __ZN7rustfft11array_utils17validate_and_iter17hd57c34b25bebe553E, symObjAddr: 0xE5F0, symBinAddr: 0x295C74, symSize: 0x1AC }
  - { offset: 0x1CE0ED, size: 0x8, addend: 0x0, symName: __ZN7rustfft11array_utils17validate_and_iter17hd67d94d5925f29d0E, symObjAddr: 0xE79C, symBinAddr: 0x295E20, symSize: 0x1AC }
  - { offset: 0x1CE1D0, size: 0x8, addend: 0x0, symName: __ZN7rustfft11array_utils17validate_and_iter17hdc294e212eb28316E, symObjAddr: 0xE948, symBinAddr: 0x295FCC, symSize: 0x1AC }
  - { offset: 0x1CE2B3, size: 0x8, addend: 0x0, symName: __ZN7rustfft11array_utils17validate_and_iter17hdf9ec215cb4578b4E, symObjAddr: 0xEAF4, symBinAddr: 0x296178, symSize: 0x1AC }
  - { offset: 0x1CE396, size: 0x8, addend: 0x0, symName: __ZN7rustfft11array_utils17validate_and_iter17he94f5507e3416848E, symObjAddr: 0xECA0, symBinAddr: 0x296324, symSize: 0x1AC }
  - { offset: 0x1CE479, size: 0x8, addend: 0x0, symName: __ZN7rustfft11array_utils17validate_and_iter17hed17f47fb1ee80a1E, symObjAddr: 0xEE4C, symBinAddr: 0x2964D0, symSize: 0x1AC }
  - { offset: 0x1CE55C, size: 0x8, addend: 0x0, symName: __ZN7rustfft11array_utils17validate_and_iter17hed2f91dd3392e616E, symObjAddr: 0xEFF8, symBinAddr: 0x29667C, symSize: 0x1AC }
  - { offset: 0x1CE63F, size: 0x8, addend: 0x0, symName: __ZN7rustfft11array_utils17validate_and_iter17hedc1baed8c5fb5fdE, symObjAddr: 0xF1A4, symBinAddr: 0x296828, symSize: 0x1AC }
  - { offset: 0x1CE722, size: 0x8, addend: 0x0, symName: __ZN7rustfft11array_utils17validate_and_iter17hf92f1330950a51ecE, symObjAddr: 0xF350, symBinAddr: 0x2969D4, symSize: 0x1AC }
  - { offset: 0x1CE805, size: 0x8, addend: 0x0, symName: __ZN7rustfft11array_utils17validate_and_iter17hfeaf3890a4e4bb03E, symObjAddr: 0xF4FC, symBinAddr: 0x296B80, symSize: 0x1AC }
  - { offset: 0x1CE8E8, size: 0x8, addend: 0x0, symName: __ZN7rustfft11array_utils20validate_and_zip_mut17h00ac5dd4af8aba91E, symObjAddr: 0xF6A8, symBinAddr: 0x296D2C, symSize: 0x244 }
  - { offset: 0x1CEA15, size: 0x8, addend: 0x0, symName: __ZN7rustfft11array_utils20validate_and_zip_mut17h0335072c2546cf87E, symObjAddr: 0xF8EC, symBinAddr: 0x296F70, symSize: 0x244 }
  - { offset: 0x1CEB42, size: 0x8, addend: 0x0, symName: __ZN7rustfft11array_utils20validate_and_zip_mut17h059779d9af325294E, symObjAddr: 0xFB30, symBinAddr: 0x2971B4, symSize: 0x244 }
  - { offset: 0x1CEC6F, size: 0x8, addend: 0x0, symName: __ZN7rustfft11array_utils20validate_and_zip_mut17h14b046c1d476bce9E, symObjAddr: 0xFD74, symBinAddr: 0x2973F8, symSize: 0x244 }
  - { offset: 0x1CED9C, size: 0x8, addend: 0x0, symName: __ZN7rustfft11array_utils20validate_and_zip_mut17h192d1e5b1d39a4fdE, symObjAddr: 0xFFB8, symBinAddr: 0x29763C, symSize: 0x244 }
  - { offset: 0x1CEEC9, size: 0x8, addend: 0x0, symName: __ZN7rustfft11array_utils20validate_and_zip_mut17h19609e45a1d20260E, symObjAddr: 0x101FC, symBinAddr: 0x297880, symSize: 0x244 }
  - { offset: 0x1CEFF6, size: 0x8, addend: 0x0, symName: __ZN7rustfft11array_utils20validate_and_zip_mut17h21f2b10067cadc71E, symObjAddr: 0x10440, symBinAddr: 0x297AC4, symSize: 0x244 }
  - { offset: 0x1CF123, size: 0x8, addend: 0x0, symName: __ZN7rustfft11array_utils20validate_and_zip_mut17h2a28d69f35918c5aE, symObjAddr: 0x10684, symBinAddr: 0x297D08, symSize: 0x244 }
  - { offset: 0x1CF250, size: 0x8, addend: 0x0, symName: __ZN7rustfft11array_utils20validate_and_zip_mut17h320fed375a7a0ebdE, symObjAddr: 0x108C8, symBinAddr: 0x297F4C, symSize: 0x244 }
  - { offset: 0x1CF37D, size: 0x8, addend: 0x0, symName: __ZN7rustfft11array_utils20validate_and_zip_mut17h334eba1c15267a22E, symObjAddr: 0x10B0C, symBinAddr: 0x298190, symSize: 0x244 }
  - { offset: 0x1CF4AA, size: 0x8, addend: 0x0, symName: __ZN7rustfft11array_utils20validate_and_zip_mut17h37149ed53a86510bE, symObjAddr: 0x10D50, symBinAddr: 0x2983D4, symSize: 0x244 }
  - { offset: 0x1CF5D7, size: 0x8, addend: 0x0, symName: __ZN7rustfft11array_utils20validate_and_zip_mut17h38e29f358690b0e7E, symObjAddr: 0x10F94, symBinAddr: 0x298618, symSize: 0x244 }
  - { offset: 0x1CF704, size: 0x8, addend: 0x0, symName: __ZN7rustfft11array_utils20validate_and_zip_mut17h3e199f7fa263c5b2E, symObjAddr: 0x111D8, symBinAddr: 0x29885C, symSize: 0x244 }
  - { offset: 0x1CF831, size: 0x8, addend: 0x0, symName: __ZN7rustfft11array_utils20validate_and_zip_mut17h42d9e408e0fd5478E, symObjAddr: 0x1141C, symBinAddr: 0x298AA0, symSize: 0x244 }
  - { offset: 0x1CF95E, size: 0x8, addend: 0x0, symName: __ZN7rustfft11array_utils20validate_and_zip_mut17h52544213843fb153E, symObjAddr: 0x11660, symBinAddr: 0x298CE4, symSize: 0x244 }
  - { offset: 0x1CFA8B, size: 0x8, addend: 0x0, symName: __ZN7rustfft11array_utils20validate_and_zip_mut17h59bc1ffe91576957E, symObjAddr: 0x118A4, symBinAddr: 0x298F28, symSize: 0x244 }
  - { offset: 0x1CFBB8, size: 0x8, addend: 0x0, symName: __ZN7rustfft11array_utils20validate_and_zip_mut17h5be06c848f9641a9E, symObjAddr: 0x11AE8, symBinAddr: 0x29916C, symSize: 0x244 }
  - { offset: 0x1CFCE5, size: 0x8, addend: 0x0, symName: __ZN7rustfft11array_utils20validate_and_zip_mut17h5dfc14a2a0f2c2e3E, symObjAddr: 0x11D2C, symBinAddr: 0x2993B0, symSize: 0x244 }
  - { offset: 0x1CFE12, size: 0x8, addend: 0x0, symName: __ZN7rustfft11array_utils20validate_and_zip_mut17h634eb3c4bbf19d2aE, symObjAddr: 0x11F70, symBinAddr: 0x2995F4, symSize: 0x244 }
  - { offset: 0x1CFF3F, size: 0x8, addend: 0x0, symName: __ZN7rustfft11array_utils20validate_and_zip_mut17h6ec7638df3ad016cE, symObjAddr: 0x121B4, symBinAddr: 0x299838, symSize: 0x244 }
  - { offset: 0x1D006C, size: 0x8, addend: 0x0, symName: __ZN7rustfft11array_utils20validate_and_zip_mut17h6faf2b399285f075E, symObjAddr: 0x123F8, symBinAddr: 0x299A7C, symSize: 0x244 }
  - { offset: 0x1D0199, size: 0x8, addend: 0x0, symName: __ZN7rustfft11array_utils20validate_and_zip_mut17h70e32e9f83480c78E, symObjAddr: 0x1263C, symBinAddr: 0x299CC0, symSize: 0x244 }
  - { offset: 0x1D02C6, size: 0x8, addend: 0x0, symName: __ZN7rustfft11array_utils20validate_and_zip_mut17h715524f3d8b4ade9E, symObjAddr: 0x12880, symBinAddr: 0x299F04, symSize: 0x244 }
  - { offset: 0x1D03F3, size: 0x8, addend: 0x0, symName: __ZN7rustfft11array_utils20validate_and_zip_mut17h727b065af6174853E, symObjAddr: 0x12AC4, symBinAddr: 0x29A148, symSize: 0x244 }
  - { offset: 0x1D0520, size: 0x8, addend: 0x0, symName: __ZN7rustfft11array_utils20validate_and_zip_mut17h7ceff578aaa1f4b9E, symObjAddr: 0x12D08, symBinAddr: 0x29A38C, symSize: 0x244 }
  - { offset: 0x1D064D, size: 0x8, addend: 0x0, symName: __ZN7rustfft11array_utils20validate_and_zip_mut17h7ee3be63b0f6ab64E, symObjAddr: 0x12F4C, symBinAddr: 0x29A5D0, symSize: 0x244 }
  - { offset: 0x1D077A, size: 0x8, addend: 0x0, symName: __ZN7rustfft11array_utils20validate_and_zip_mut17h9020481e5a34db4eE, symObjAddr: 0x13190, symBinAddr: 0x29A814, symSize: 0x244 }
  - { offset: 0x1D08A7, size: 0x8, addend: 0x0, symName: __ZN7rustfft11array_utils20validate_and_zip_mut17h932c06e5d8ebf4d0E, symObjAddr: 0x133D4, symBinAddr: 0x29AA58, symSize: 0x244 }
  - { offset: 0x1D09D4, size: 0x8, addend: 0x0, symName: __ZN7rustfft11array_utils20validate_and_zip_mut17h948091d9116919e1E, symObjAddr: 0x13618, symBinAddr: 0x29AC9C, symSize: 0x244 }
  - { offset: 0x1D0B01, size: 0x8, addend: 0x0, symName: __ZN7rustfft11array_utils20validate_and_zip_mut17h9b1e5421c1730247E, symObjAddr: 0x1385C, symBinAddr: 0x29AEE0, symSize: 0x244 }
  - { offset: 0x1D0C2E, size: 0x8, addend: 0x0, symName: __ZN7rustfft11array_utils20validate_and_zip_mut17h9f185bce91457a6bE, symObjAddr: 0x13AA0, symBinAddr: 0x29B124, symSize: 0x244 }
  - { offset: 0x1D0D5B, size: 0x8, addend: 0x0, symName: __ZN7rustfft11array_utils20validate_and_zip_mut17hae5dc8e25870f93fE, symObjAddr: 0x13CE4, symBinAddr: 0x29B368, symSize: 0x244 }
  - { offset: 0x1D0E88, size: 0x8, addend: 0x0, symName: __ZN7rustfft11array_utils20validate_and_zip_mut17haf617326a5c30038E, symObjAddr: 0x13F28, symBinAddr: 0x29B5AC, symSize: 0x244 }
  - { offset: 0x1D0FB5, size: 0x8, addend: 0x0, symName: __ZN7rustfft11array_utils20validate_and_zip_mut17hb53eb0aa335a83c0E, symObjAddr: 0x1416C, symBinAddr: 0x29B7F0, symSize: 0x244 }
  - { offset: 0x1D10E2, size: 0x8, addend: 0x0, symName: __ZN7rustfft11array_utils20validate_and_zip_mut17hc476e25589983da4E, symObjAddr: 0x143B0, symBinAddr: 0x29BA34, symSize: 0x244 }
  - { offset: 0x1D120F, size: 0x8, addend: 0x0, symName: __ZN7rustfft11array_utils20validate_and_zip_mut17hceac6cee350f6898E, symObjAddr: 0x145F4, symBinAddr: 0x29BC78, symSize: 0x244 }
  - { offset: 0x1D133C, size: 0x8, addend: 0x0, symName: __ZN7rustfft11array_utils20validate_and_zip_mut17hd1eae0f80fdc8fbfE, symObjAddr: 0x14838, symBinAddr: 0x29BEBC, symSize: 0x244 }
  - { offset: 0x1D1469, size: 0x8, addend: 0x0, symName: __ZN7rustfft11array_utils20validate_and_zip_mut17hd2912adda370b5a3E, symObjAddr: 0x14A7C, symBinAddr: 0x29C100, symSize: 0x244 }
  - { offset: 0x1D1596, size: 0x8, addend: 0x0, symName: __ZN7rustfft11array_utils20validate_and_zip_mut17hdac178be26d45736E, symObjAddr: 0x14CC0, symBinAddr: 0x29C344, symSize: 0x244 }
  - { offset: 0x1D16C3, size: 0x8, addend: 0x0, symName: __ZN7rustfft11array_utils20validate_and_zip_mut17hdaf3d4179bb6be76E, symObjAddr: 0x14F04, symBinAddr: 0x29C588, symSize: 0x244 }
  - { offset: 0x1D17F0, size: 0x8, addend: 0x0, symName: __ZN7rustfft11array_utils20validate_and_zip_mut17hde93480761f5157cE, symObjAddr: 0x15148, symBinAddr: 0x29C7CC, symSize: 0x244 }
  - { offset: 0x1D191D, size: 0x8, addend: 0x0, symName: __ZN7rustfft11array_utils20validate_and_zip_mut17heac09157067cda4aE, symObjAddr: 0x1538C, symBinAddr: 0x29CA10, symSize: 0x244 }
  - { offset: 0x1D1A4A, size: 0x8, addend: 0x0, symName: __ZN7rustfft11array_utils20validate_and_zip_mut17hece7e30169104812E, symObjAddr: 0x155D0, symBinAddr: 0x29CC54, symSize: 0x244 }
  - { offset: 0x1D1B77, size: 0x8, addend: 0x0, symName: __ZN7rustfft11array_utils20validate_and_zip_mut17heedc67041e307984E, symObjAddr: 0x15814, symBinAddr: 0x29CE98, symSize: 0x244 }
  - { offset: 0x1D1CA4, size: 0x8, addend: 0x0, symName: __ZN7rustfft11array_utils20validate_and_zip_mut17hf03ca37caeaaf040E, symObjAddr: 0x15A58, symBinAddr: 0x29D0DC, symSize: 0x244 }
  - { offset: 0x1D1DD1, size: 0x8, addend: 0x0, symName: __ZN7rustfft11array_utils20validate_and_zip_mut17hf2d15074be2d26f4E, symObjAddr: 0x15C9C, symBinAddr: 0x29D320, symSize: 0x244 }
  - { offset: 0x1D1EFE, size: 0x8, addend: 0x0, symName: __ZN7rustfft11array_utils20validate_and_zip_mut17hf5d8b692aed3acf5E, symObjAddr: 0x15EE0, symBinAddr: 0x29D564, symSize: 0x244 }
  - { offset: 0x1D202B, size: 0x8, addend: 0x0, symName: __ZN7rustfft11array_utils20validate_and_zip_mut17hf6240ee0ffc3fcf1E, symObjAddr: 0x16124, symBinAddr: 0x29D7A8, symSize: 0x244 }
  - { offset: 0x1D2158, size: 0x8, addend: 0x0, symName: __ZN7rustfft11array_utils20validate_and_zip_mut17hfb1bda8ea43351b6E, symObjAddr: 0x16368, symBinAddr: 0x29D9EC, symSize: 0x244 }
  - { offset: 0x1D2285, size: 0x8, addend: 0x0, symName: __ZN7rustfft11array_utils20validate_and_zip_mut17hfbe87d72039498c9E, symObjAddr: 0x165AC, symBinAddr: 0x29DC30, symSize: 0x244 }
  - { offset: 0x1D23B2, size: 0x8, addend: 0x0, symName: __ZN7rustfft11array_utils20validate_and_zip_mut17hfe0660be3a49fa09E, symObjAddr: 0x167F0, symBinAddr: 0x29DE74, symSize: 0x244 }
  - { offset: 0x1D24DF, size: 0x8, addend: 0x0, symName: __ZN7rustfft11array_utils20validate_and_zip_mut17hfedf95ffe922c130E, symObjAddr: 0x16A34, symBinAddr: 0x29E0B8, symSize: 0x244 }
  - { offset: 0x1D260C, size: 0x8, addend: 0x0, symName: __ZN7rustfft11array_utils20validate_and_zip_mut17hfee9162390ca5a28E, symObjAddr: 0x16C78, symBinAddr: 0x29E2FC, symSize: 0x244 }
  - { offset: 0x1D2739, size: 0x8, addend: 0x0, symName: __ZN7rustfft11array_utils20workaround_transmute17h784be9c90ca78860E, symObjAddr: 0x16EBC, symBinAddr: 0x29E540, symSize: 0x48 }
  - { offset: 0x1D27B1, size: 0x8, addend: 0x0, symName: __ZN7rustfft11array_utils20workaround_transmute17hab40abb525eae8d0E, symObjAddr: 0x16F04, symBinAddr: 0x29E588, symSize: 0x48 }
  - { offset: 0x1D2829, size: 0x8, addend: 0x0, symName: __ZN7rustfft11array_utils21bitreversed_transpose17h15fff446c8c213fbE, symObjAddr: 0x16F4C, symBinAddr: 0x29E5D0, symSize: 0x5C0 }
  - { offset: 0x1D2B07, size: 0x8, addend: 0x0, symName: '__ZN7rustfft11array_utils21bitreversed_transpose28_$u7b$$u7b$closure$u7d$$u7d$17h24b91aa2ea4c4c96E', symObjAddr: 0x1750C, symBinAddr: 0x29EB90, symSize: 0x38 }
  - { offset: 0x1D2B50, size: 0x8, addend: 0x0, symName: '__ZN7rustfft11array_utils21bitreversed_transpose28_$u7b$$u7b$closure$u7d$$u7d$17ha696e4362c5f5c95E', symObjAddr: 0x17544, symBinAddr: 0x29EBC8, symSize: 0xCC }
  - { offset: 0x1D2BC0, size: 0x8, addend: 0x0, symName: __ZN7rustfft11array_utils24workaround_transmute_mut17h5e28085bb66ac6d4E, symObjAddr: 0x17610, symBinAddr: 0x29EC94, symSize: 0x48 }
  - { offset: 0x1D2C38, size: 0x8, addend: 0x0, symName: __ZN7rustfft11array_utils24workaround_transmute_mut17h692c122f0bcf547cE, symObjAddr: 0x17658, symBinAddr: 0x29ECDC, symSize: 0x48 }
  - { offset: 0x1D2CB0, size: 0x8, addend: 0x0, symName: __ZN7rustfft11array_utils25validate_and_zip_unroll2x17h17326b6162a66794E, symObjAddr: 0x176A0, symBinAddr: 0x29ED24, symSize: 0x2D0 }
  - { offset: 0x1D2D95, size: 0x8, addend: 0x0, symName: __ZN7rustfft11array_utils25validate_and_zip_unroll2x17h24a92aa9d78202d0E, symObjAddr: 0x17970, symBinAddr: 0x29EFF4, symSize: 0x2D0 }
  - { offset: 0x1D2E7A, size: 0x8, addend: 0x0, symName: __ZN7rustfft11array_utils25validate_and_zip_unroll2x17h285d1211de37eb75E, symObjAddr: 0x17C40, symBinAddr: 0x29F2C4, symSize: 0x2D0 }
  - { offset: 0x1D2F5F, size: 0x8, addend: 0x0, symName: __ZN7rustfft11array_utils25validate_and_zip_unroll2x17h3885188d0a7ab76eE, symObjAddr: 0x17F10, symBinAddr: 0x29F594, symSize: 0x2D0 }
  - { offset: 0x1D3044, size: 0x8, addend: 0x0, symName: __ZN7rustfft11array_utils25validate_and_zip_unroll2x17h3cb00d80ea9994d8E, symObjAddr: 0x181E0, symBinAddr: 0x29F864, symSize: 0x2D0 }
  - { offset: 0x1D3129, size: 0x8, addend: 0x0, symName: __ZN7rustfft11array_utils25validate_and_zip_unroll2x17h4da84719683cdeffE, symObjAddr: 0x184B0, symBinAddr: 0x29FB34, symSize: 0x2D0 }
  - { offset: 0x1D320E, size: 0x8, addend: 0x0, symName: __ZN7rustfft11array_utils25validate_and_zip_unroll2x17h4e156025b5a1a51dE, symObjAddr: 0x18780, symBinAddr: 0x29FE04, symSize: 0x2D0 }
  - { offset: 0x1D32F3, size: 0x8, addend: 0x0, symName: __ZN7rustfft11array_utils25validate_and_zip_unroll2x17h4fcb0770f502a825E, symObjAddr: 0x18A50, symBinAddr: 0x2A00D4, symSize: 0x2D0 }
  - { offset: 0x1D33D8, size: 0x8, addend: 0x0, symName: __ZN7rustfft11array_utils25validate_and_zip_unroll2x17h56aba7be02ad97cbE, symObjAddr: 0x18D20, symBinAddr: 0x2A03A4, symSize: 0x2D0 }
  - { offset: 0x1D34BD, size: 0x8, addend: 0x0, symName: __ZN7rustfft11array_utils25validate_and_zip_unroll2x17h5bc2bdfda6ff5607E, symObjAddr: 0x18FF0, symBinAddr: 0x2A0674, symSize: 0x2D0 }
  - { offset: 0x1D35A2, size: 0x8, addend: 0x0, symName: __ZN7rustfft11array_utils25validate_and_zip_unroll2x17h5e13bd983af745a2E, symObjAddr: 0x192C0, symBinAddr: 0x2A0944, symSize: 0x2D0 }
  - { offset: 0x1D3687, size: 0x8, addend: 0x0, symName: __ZN7rustfft11array_utils25validate_and_zip_unroll2x17h68a80b0d846a9628E, symObjAddr: 0x19590, symBinAddr: 0x2A0C14, symSize: 0x2D0 }
  - { offset: 0x1D376C, size: 0x8, addend: 0x0, symName: __ZN7rustfft11array_utils25validate_and_zip_unroll2x17h6b5057c09c3a9bf7E, symObjAddr: 0x19860, symBinAddr: 0x2A0EE4, symSize: 0x2D0 }
  - { offset: 0x1D3851, size: 0x8, addend: 0x0, symName: __ZN7rustfft11array_utils25validate_and_zip_unroll2x17h7c122760c6af4dfbE, symObjAddr: 0x19B30, symBinAddr: 0x2A11B4, symSize: 0x2D0 }
  - { offset: 0x1D3936, size: 0x8, addend: 0x0, symName: __ZN7rustfft11array_utils25validate_and_zip_unroll2x17h7e533294e7f6c666E, symObjAddr: 0x19E00, symBinAddr: 0x2A1484, symSize: 0x2D0 }
  - { offset: 0x1D3A1B, size: 0x8, addend: 0x0, symName: __ZN7rustfft11array_utils25validate_and_zip_unroll2x17h8271540ab76996fbE, symObjAddr: 0x1A0D0, symBinAddr: 0x2A1754, symSize: 0x2D0 }
  - { offset: 0x1D3B00, size: 0x8, addend: 0x0, symName: __ZN7rustfft11array_utils25validate_and_zip_unroll2x17h8cda8bd480e6e96eE, symObjAddr: 0x1A3A0, symBinAddr: 0x2A1A24, symSize: 0x2D0 }
  - { offset: 0x1D3BE5, size: 0x8, addend: 0x0, symName: __ZN7rustfft11array_utils25validate_and_zip_unroll2x17ha4e03a4b3f1448d3E, symObjAddr: 0x1A670, symBinAddr: 0x2A1CF4, symSize: 0x2D0 }
  - { offset: 0x1D3CCA, size: 0x8, addend: 0x0, symName: __ZN7rustfft11array_utils25validate_and_zip_unroll2x17hadd5a606e58c42a6E, symObjAddr: 0x1A940, symBinAddr: 0x2A1FC4, symSize: 0x2D0 }
  - { offset: 0x1D3DAF, size: 0x8, addend: 0x0, symName: __ZN7rustfft11array_utils25validate_and_zip_unroll2x17hce8e3d9d92d537c2E, symObjAddr: 0x1AC10, symBinAddr: 0x2A2294, symSize: 0x2D0 }
  - { offset: 0x1D3E94, size: 0x8, addend: 0x0, symName: __ZN7rustfft11array_utils25validate_and_zip_unroll2x17hd50a66ae4efcc44cE, symObjAddr: 0x1AEE0, symBinAddr: 0x2A2564, symSize: 0x2D0 }
  - { offset: 0x1D3F79, size: 0x8, addend: 0x0, symName: __ZN7rustfft11array_utils25validate_and_zip_unroll2x17he9bb94442df07551E, symObjAddr: 0x1B1B0, symBinAddr: 0x2A2834, symSize: 0x2D0 }
  - { offset: 0x1D405E, size: 0x8, addend: 0x0, symName: __ZN7rustfft11array_utils26validate_and_iter_unroll2x17h02c26e85fc0ef282E, symObjAddr: 0x1B480, symBinAddr: 0x2A2B04, symSize: 0x1B8 }
  - { offset: 0x1D40FE, size: 0x8, addend: 0x0, symName: __ZN7rustfft11array_utils26validate_and_iter_unroll2x17h1bfe2424175b7752E, symObjAddr: 0x1B638, symBinAddr: 0x2A2CBC, symSize: 0x1B8 }
  - { offset: 0x1D419E, size: 0x8, addend: 0x0, symName: __ZN7rustfft11array_utils26validate_and_iter_unroll2x17h2892898ba2268707E, symObjAddr: 0x1B7F0, symBinAddr: 0x2A2E74, symSize: 0x1B8 }
  - { offset: 0x1D423E, size: 0x8, addend: 0x0, symName: __ZN7rustfft11array_utils26validate_and_iter_unroll2x17h5399b4089d775a6eE, symObjAddr: 0x1B9A8, symBinAddr: 0x2A302C, symSize: 0x1B8 }
  - { offset: 0x1D42DE, size: 0x8, addend: 0x0, symName: __ZN7rustfft11array_utils26validate_and_iter_unroll2x17h55eb6294065b3877E, symObjAddr: 0x1BB60, symBinAddr: 0x2A31E4, symSize: 0x1B8 }
  - { offset: 0x1D437E, size: 0x8, addend: 0x0, symName: __ZN7rustfft11array_utils26validate_and_iter_unroll2x17h561f929627b394e1E, symObjAddr: 0x1BD18, symBinAddr: 0x2A339C, symSize: 0x1B8 }
  - { offset: 0x1D441E, size: 0x8, addend: 0x0, symName: __ZN7rustfft11array_utils26validate_and_iter_unroll2x17h5b1fb0a8ba5988b2E, symObjAddr: 0x1BED0, symBinAddr: 0x2A3554, symSize: 0x1B8 }
  - { offset: 0x1D44BE, size: 0x8, addend: 0x0, symName: __ZN7rustfft11array_utils26validate_and_iter_unroll2x17h5bf4d42847f6c1a1E, symObjAddr: 0x1C088, symBinAddr: 0x2A370C, symSize: 0x1B8 }
  - { offset: 0x1D455E, size: 0x8, addend: 0x0, symName: __ZN7rustfft11array_utils26validate_and_iter_unroll2x17h6bb8c341cd914e4bE, symObjAddr: 0x1C240, symBinAddr: 0x2A38C4, symSize: 0x1B8 }
  - { offset: 0x1D45FE, size: 0x8, addend: 0x0, symName: __ZN7rustfft11array_utils26validate_and_iter_unroll2x17h6ed687aca03b8addE, symObjAddr: 0x1C3F8, symBinAddr: 0x2A3A7C, symSize: 0x1B8 }
  - { offset: 0x1D469E, size: 0x8, addend: 0x0, symName: __ZN7rustfft11array_utils26validate_and_iter_unroll2x17h6f2e5ca227e41029E, symObjAddr: 0x1C5B0, symBinAddr: 0x2A3C34, symSize: 0x1B8 }
  - { offset: 0x1D473E, size: 0x8, addend: 0x0, symName: __ZN7rustfft11array_utils26validate_and_iter_unroll2x17h7bc22be25854e951E, symObjAddr: 0x1C768, symBinAddr: 0x2A3DEC, symSize: 0x1B8 }
  - { offset: 0x1D47DE, size: 0x8, addend: 0x0, symName: __ZN7rustfft11array_utils26validate_and_iter_unroll2x17h8ab270c4dae2b911E, symObjAddr: 0x1C920, symBinAddr: 0x2A3FA4, symSize: 0x1B8 }
  - { offset: 0x1D487E, size: 0x8, addend: 0x0, symName: __ZN7rustfft11array_utils26validate_and_iter_unroll2x17h8b93ff66b92a877eE, symObjAddr: 0x1CAD8, symBinAddr: 0x2A415C, symSize: 0x1B8 }
  - { offset: 0x1D491E, size: 0x8, addend: 0x0, symName: __ZN7rustfft11array_utils26validate_and_iter_unroll2x17hb2faf01e8b7400bcE, symObjAddr: 0x1CC90, symBinAddr: 0x2A4314, symSize: 0x1B8 }
  - { offset: 0x1D49BE, size: 0x8, addend: 0x0, symName: __ZN7rustfft11array_utils26validate_and_iter_unroll2x17hb87ce0c18a57eda1E, symObjAddr: 0x1CE48, symBinAddr: 0x2A44CC, symSize: 0x1B8 }
  - { offset: 0x1D4A5E, size: 0x8, addend: 0x0, symName: __ZN7rustfft11array_utils26validate_and_iter_unroll2x17hbad42f663211a148E, symObjAddr: 0x1D000, symBinAddr: 0x2A4684, symSize: 0x1B8 }
  - { offset: 0x1D4AFE, size: 0x8, addend: 0x0, symName: __ZN7rustfft11array_utils26validate_and_iter_unroll2x17hc414885f40ff5e18E, symObjAddr: 0x1D1B8, symBinAddr: 0x2A483C, symSize: 0x1B8 }
  - { offset: 0x1D4B9E, size: 0x8, addend: 0x0, symName: __ZN7rustfft11array_utils26validate_and_iter_unroll2x17hc6f174baad9bceb1E, symObjAddr: 0x1D370, symBinAddr: 0x2A49F4, symSize: 0x1B8 }
  - { offset: 0x1D4C3E, size: 0x8, addend: 0x0, symName: __ZN7rustfft11array_utils26validate_and_iter_unroll2x17hd03a5fa12877a742E, symObjAddr: 0x1D528, symBinAddr: 0x2A4BAC, symSize: 0x1B8 }
  - { offset: 0x1D4CDE, size: 0x8, addend: 0x0, symName: __ZN7rustfft11array_utils26validate_and_iter_unroll2x17he5e4c9c9860e7f99E, symObjAddr: 0x1D6E0, symBinAddr: 0x2A4D64, symSize: 0x1B8 }
  - { offset: 0x1D4D7E, size: 0x8, addend: 0x0, symName: __ZN7rustfft11array_utils26validate_and_iter_unroll2x17hf8f04900deea6f44E, symObjAddr: 0x1D898, symBinAddr: 0x2A4F1C, symSize: 0x1B8 }
  - { offset: 0x1D4E1E, size: 0x8, addend: 0x0, symName: __ZN7rustfft11array_utils29validate_and_zip_mut_unroll2x17h0c79ac2a022ab865E, symObjAddr: 0x1DA50, symBinAddr: 0x2A50D4, symSize: 0x2D0 }
  - { offset: 0x1D4F05, size: 0x8, addend: 0x0, symName: __ZN7rustfft11array_utils29validate_and_zip_mut_unroll2x17h13035c63bcd06342E, symObjAddr: 0x1DD20, symBinAddr: 0x2A53A4, symSize: 0x2D0 }
  - { offset: 0x1D4FEC, size: 0x8, addend: 0x0, symName: __ZN7rustfft11array_utils29validate_and_zip_mut_unroll2x17h2036500bcf86c5c7E, symObjAddr: 0x1DFF0, symBinAddr: 0x2A5674, symSize: 0x2D0 }
  - { offset: 0x1D50D3, size: 0x8, addend: 0x0, symName: __ZN7rustfft11array_utils29validate_and_zip_mut_unroll2x17h2a6b67c620fb92feE, symObjAddr: 0x1E2C0, symBinAddr: 0x2A5944, symSize: 0x2D0 }
  - { offset: 0x1D51BA, size: 0x8, addend: 0x0, symName: __ZN7rustfft11array_utils29validate_and_zip_mut_unroll2x17h40cd8891b07fda48E, symObjAddr: 0x1E590, symBinAddr: 0x2A5C14, symSize: 0x2D0 }
  - { offset: 0x1D52A1, size: 0x8, addend: 0x0, symName: __ZN7rustfft11array_utils29validate_and_zip_mut_unroll2x17h4c7c5c7f05363121E, symObjAddr: 0x1E860, symBinAddr: 0x2A5EE4, symSize: 0x2D0 }
  - { offset: 0x1D5388, size: 0x8, addend: 0x0, symName: __ZN7rustfft11array_utils29validate_and_zip_mut_unroll2x17h58ef4972763f173bE, symObjAddr: 0x1EB30, symBinAddr: 0x2A61B4, symSize: 0x2D0 }
  - { offset: 0x1D546F, size: 0x8, addend: 0x0, symName: __ZN7rustfft11array_utils29validate_and_zip_mut_unroll2x17h681703b0f220bca7E, symObjAddr: 0x1EE00, symBinAddr: 0x2A6484, symSize: 0x2D0 }
  - { offset: 0x1D5556, size: 0x8, addend: 0x0, symName: __ZN7rustfft11array_utils29validate_and_zip_mut_unroll2x17h6dbb7abe7217b4e8E, symObjAddr: 0x1F0D0, symBinAddr: 0x2A6754, symSize: 0x2D0 }
  - { offset: 0x1D563D, size: 0x8, addend: 0x0, symName: __ZN7rustfft11array_utils29validate_and_zip_mut_unroll2x17h7890250f1a5a8401E, symObjAddr: 0x1F3A0, symBinAddr: 0x2A6A24, symSize: 0x2D0 }
  - { offset: 0x1D5724, size: 0x8, addend: 0x0, symName: __ZN7rustfft11array_utils29validate_and_zip_mut_unroll2x17h79ccee65809b383eE, symObjAddr: 0x1F670, symBinAddr: 0x2A6CF4, symSize: 0x2D0 }
  - { offset: 0x1D580B, size: 0x8, addend: 0x0, symName: __ZN7rustfft11array_utils29validate_and_zip_mut_unroll2x17h7d637a278299fcaeE, symObjAddr: 0x1F940, symBinAddr: 0x2A6FC4, symSize: 0x2D0 }
  - { offset: 0x1D58F2, size: 0x8, addend: 0x0, symName: __ZN7rustfft11array_utils29validate_and_zip_mut_unroll2x17h7e8beb827d60d8cbE, symObjAddr: 0x1FC10, symBinAddr: 0x2A7294, symSize: 0x2D0 }
  - { offset: 0x1D59D9, size: 0x8, addend: 0x0, symName: __ZN7rustfft11array_utils29validate_and_zip_mut_unroll2x17h891e16a1df965b85E, symObjAddr: 0x1FEE0, symBinAddr: 0x2A7564, symSize: 0x2D0 }
  - { offset: 0x1D5AC0, size: 0x8, addend: 0x0, symName: __ZN7rustfft11array_utils29validate_and_zip_mut_unroll2x17h9f13694774cb0d7fE, symObjAddr: 0x201B0, symBinAddr: 0x2A7834, symSize: 0x2D0 }
  - { offset: 0x1D5BA7, size: 0x8, addend: 0x0, symName: __ZN7rustfft11array_utils29validate_and_zip_mut_unroll2x17hb37cf8a5c3e8b2c8E, symObjAddr: 0x20480, symBinAddr: 0x2A7B04, symSize: 0x2D0 }
  - { offset: 0x1D5C8E, size: 0x8, addend: 0x0, symName: __ZN7rustfft11array_utils29validate_and_zip_mut_unroll2x17hb6bbdb91ac9096a3E, symObjAddr: 0x20750, symBinAddr: 0x2A7DD4, symSize: 0x2D0 }
  - { offset: 0x1D5D75, size: 0x8, addend: 0x0, symName: __ZN7rustfft11array_utils29validate_and_zip_mut_unroll2x17hb81c8d4464868112E, symObjAddr: 0x20A20, symBinAddr: 0x2A80A4, symSize: 0x2D0 }
  - { offset: 0x1D5E5C, size: 0x8, addend: 0x0, symName: __ZN7rustfft11array_utils29validate_and_zip_mut_unroll2x17hbf7f37c809c6a43dE, symObjAddr: 0x20CF0, symBinAddr: 0x2A8374, symSize: 0x2D0 }
  - { offset: 0x1D5F43, size: 0x8, addend: 0x0, symName: __ZN7rustfft11array_utils29validate_and_zip_mut_unroll2x17hdea81385351936a5E, symObjAddr: 0x20FC0, symBinAddr: 0x2A8644, symSize: 0x2D0 }
  - { offset: 0x1D602A, size: 0x8, addend: 0x0, symName: __ZN7rustfft11array_utils29validate_and_zip_mut_unroll2x17he32f972e56c396f3E, symObjAddr: 0x21290, symBinAddr: 0x2A8914, symSize: 0x2D0 }
  - { offset: 0x1D6111, size: 0x8, addend: 0x0, symName: __ZN7rustfft11array_utils29validate_and_zip_mut_unroll2x17he998250af25a7d38E, symObjAddr: 0x21560, symBinAddr: 0x2A8BE4, symSize: 0x2D0 }
  - { offset: 0x1D9896, size: 0x8, addend: 0x0, symName: '__ZN4core5slice29_$LT$impl$u20$$u5b$T$u5d$$GT$5first17h5f1930cd04487336E', symObjAddr: 0x0, symBinAddr: 0x287684, symSize: 0x44 }
  - { offset: 0x1D98E0, size: 0x8, addend: 0x0, symName: '__ZN4core5slice29_$LT$impl$u20$$u5b$T$u5d$$GT$8last_mut17h3967ea39535a459aE', symObjAddr: 0x44, symBinAddr: 0x2876C8, symSize: 0x50 }
  - { offset: 0x1DAC7E, size: 0x8, addend: 0x0, symName: '__ZN10rayon_core8registry8Registry14in_worker_cold10LOCK_LATCH29_$u7b$$u7b$constant$u7d$$u7d$28_$u7b$$u7b$closure$u7d$$u7d$17h59cddc0e4d4024cfE', symObjAddr: 0x0, symBinAddr: 0x2A8EB4, symSize: 0x34 }
  - { offset: 0x1DAE5D, size: 0x8, addend: 0x0, symName: '__ZN10rayon_core8registry8Registry14in_worker_cold10LOCK_LATCH29_$u7b$$u7b$constant$u7d$$u7d$28_$u7b$$u7b$closure$u7d$$u7d$17h59cddc0e4d4024cfE', symObjAddr: 0x0, symBinAddr: 0x2A8EB4, symSize: 0x34 }
  - { offset: 0x1DAE98, size: 0x8, addend: 0x0, symName: '__ZN10rayon_core8registry8Registry14in_worker_cold28_$u7b$$u7b$closure$u7d$$u7d$17h310b9326c96eab73E', symObjAddr: 0x184, symBinAddr: 0x2A8EE8, symSize: 0x1D8 }
  - { offset: 0x1DAF12, size: 0x8, addend: 0x0, symName: '__ZN10rayon_core8registry8Registry14in_worker_cold28_$u7b$$u7b$closure$u7d$$u7d$17h5294c08ff5e81253E', symObjAddr: 0x35C, symBinAddr: 0x2A90C0, symSize: 0x1D8 }
  - { offset: 0x1DAF8C, size: 0x8, addend: 0x0, symName: '__ZN10rayon_core8registry8Registry14in_worker_cold28_$u7b$$u7b$closure$u7d$$u7d$17h73122029a430e75fE', symObjAddr: 0x534, symBinAddr: 0x2A9298, symSize: 0x1D8 }
  - { offset: 0x1DB006, size: 0x8, addend: 0x0, symName: '__ZN10rayon_core8registry8Registry14in_worker_cold28_$u7b$$u7b$closure$u7d$$u7d$17hcc9b0f2c38cefdb7E', symObjAddr: 0x70C, symBinAddr: 0x2A9470, symSize: 0x1D8 }
  - { offset: 0x1DB085, size: 0x8, addend: 0x0, symName: '__ZN10rayon_core8registry8Registry14in_worker_cold28_$u7b$$u7b$closure$u7d$$u7d$28_$u7b$$u7b$closure$u7d$$u7d$17h39ad84a05b28a753E', symObjAddr: 0x8E4, symBinAddr: 0x2A9648, symSize: 0x138 }
  - { offset: 0x1DB0F4, size: 0x8, addend: 0x0, symName: '__ZN10rayon_core8registry8Registry14in_worker_cold28_$u7b$$u7b$closure$u7d$$u7d$28_$u7b$$u7b$closure$u7d$$u7d$17h882db7a9c9da2ae7E', symObjAddr: 0xA1C, symBinAddr: 0x2A9780, symSize: 0x138 }
  - { offset: 0x1DB163, size: 0x8, addend: 0x0, symName: '__ZN10rayon_core8registry8Registry14in_worker_cold28_$u7b$$u7b$closure$u7d$$u7d$28_$u7b$$u7b$closure$u7d$$u7d$17ha65f547d68c27f51E', symObjAddr: 0xB54, symBinAddr: 0x2A98B8, symSize: 0x138 }
  - { offset: 0x1DB1D2, size: 0x8, addend: 0x0, symName: '__ZN10rayon_core8registry8Registry14in_worker_cold28_$u7b$$u7b$closure$u7d$$u7d$28_$u7b$$u7b$closure$u7d$$u7d$17hbc300053d3548d5fE', symObjAddr: 0xC8C, symBinAddr: 0x2A99F0, symSize: 0x138 }
  - { offset: 0x1DB294, size: 0x8, addend: 0x0, symName: '__ZN10rayon_core8registry8Registry15in_worker_cross28_$u7b$$u7b$closure$u7d$$u7d$17h1537a886dc840d8dE', symObjAddr: 0x15B4, symBinAddr: 0x2A9B28, symSize: 0x138 }
  - { offset: 0x1DB303, size: 0x8, addend: 0x0, symName: '__ZN10rayon_core8registry8Registry15in_worker_cross28_$u7b$$u7b$closure$u7d$$u7d$17h4ad809f5ae3ba935E', symObjAddr: 0x16EC, symBinAddr: 0x2A9C60, symSize: 0x138 }
  - { offset: 0x1DB372, size: 0x8, addend: 0x0, symName: '__ZN10rayon_core8registry8Registry15in_worker_cross28_$u7b$$u7b$closure$u7d$$u7d$17h95098c6275193ba6E', symObjAddr: 0x1824, symBinAddr: 0x2A9D98, symSize: 0x138 }
  - { offset: 0x1DB3E1, size: 0x8, addend: 0x0, symName: '__ZN10rayon_core8registry8Registry15in_worker_cross28_$u7b$$u7b$closure$u7d$$u7d$17hd30f552a6f20fcb6E', symObjAddr: 0x195C, symBinAddr: 0x2A9ED0, symSize: 0x138 }
  - { offset: 0x1DB7E8, size: 0x8, addend: 0x0, symName: __ZN10rayon_core8registry9in_worker17h3b89916e5844ffacE, symObjAddr: 0x2484, symBinAddr: 0x2AA9F8, symSize: 0x158 }
  - { offset: 0x1DB83F, size: 0x8, addend: 0x0, symName: __ZN10rayon_core8registry9in_worker17h3b9c336b4a0e73d6E, symObjAddr: 0x25DC, symBinAddr: 0x2AAB50, symSize: 0x158 }
  - { offset: 0x1DB896, size: 0x8, addend: 0x0, symName: __ZN10rayon_core8registry9in_worker17h83dff88d7942ffa4E, symObjAddr: 0x2734, symBinAddr: 0x2AACA8, symSize: 0x158 }
  - { offset: 0x1DB8ED, size: 0x8, addend: 0x0, symName: __ZN10rayon_core8registry9in_worker17hadb982e2bc3b3f67E, symObjAddr: 0x288C, symBinAddr: 0x2AAE00, symSize: 0x158 }
  - { offset: 0x1DD43B, size: 0x8, addend: 0x0, symName: __ZN4core3cmp9PartialEq2ne17h4e92fac7329efc55E, symObjAddr: 0x29E4, symBinAddr: 0x2AAF58, symSize: 0x30 }
  - { offset: 0x1DDDC1, size: 0x8, addend: 0x0, symName: __ZN10rayon_core8registry8Registry14in_worker_cold17h0d0378e9ef784a3aE, symObjAddr: 0x34, symBinAddr: 0x6B2A40, symSize: 0x54 }
  - { offset: 0x1DDEE5, size: 0x8, addend: 0x0, symName: __ZN10rayon_core8registry8Registry14in_worker_cold17h153b8ae162a3a3f4E, symObjAddr: 0x88, symBinAddr: 0x6B2A94, symSize: 0x54 }
  - { offset: 0x1DDF62, size: 0x8, addend: 0x0, symName: __ZN10rayon_core8registry8Registry14in_worker_cold17h32636074f05d8d10E, symObjAddr: 0xDC, symBinAddr: 0x6B2AE8, symSize: 0x54 }
  - { offset: 0x1DE00A, size: 0x8, addend: 0x0, symName: __ZN10rayon_core8registry8Registry14in_worker_cold17h3270d705900856ceE, symObjAddr: 0x130, symBinAddr: 0x6B2B3C, symSize: 0x54 }
  - { offset: 0x1DE069, size: 0x8, addend: 0x0, symName: __ZN10rayon_core8registry8Registry15in_worker_cross17h59dec07a7d08578aE, symObjAddr: 0xDC4, symBinAddr: 0x6B2B90, symSize: 0x1FC }
  - { offset: 0x1DE0ED, size: 0x8, addend: 0x0, symName: __ZN10rayon_core8registry8Registry15in_worker_cross17hca62ebf83a40d50dE, symObjAddr: 0xFC0, symBinAddr: 0x6B2D8C, symSize: 0x1FC }
  - { offset: 0x1DE171, size: 0x8, addend: 0x0, symName: __ZN10rayon_core8registry8Registry15in_worker_cross17hcff216dc0753e927E, symObjAddr: 0x11BC, symBinAddr: 0x6B2F88, symSize: 0x1FC }
  - { offset: 0x1DE1F5, size: 0x8, addend: 0x0, symName: __ZN10rayon_core8registry8Registry15in_worker_cross17hde0c3de158cc0af0E, symObjAddr: 0x13B8, symBinAddr: 0x6B3184, symSize: 0x1FC }
  - { offset: 0x1DE279, size: 0x8, addend: 0x0, symName: __ZN10rayon_core8registry8Registry9in_worker17h4ab8c1957de48555E, symObjAddr: 0x1A94, symBinAddr: 0x2AA008, symSize: 0x27C }
  - { offset: 0x1DE2D4, size: 0x8, addend: 0x0, symName: __ZN10rayon_core8registry8Registry9in_worker17h59e7eed00d5eba54E, symObjAddr: 0x1D10, symBinAddr: 0x2AA284, symSize: 0x27C }
  - { offset: 0x1DE32F, size: 0x8, addend: 0x0, symName: __ZN10rayon_core8registry8Registry9in_worker17h80ca094ac968ce2cE, symObjAddr: 0x1F8C, symBinAddr: 0x2AA500, symSize: 0x27C }
  - { offset: 0x1DE38A, size: 0x8, addend: 0x0, symName: __ZN10rayon_core8registry8Registry9in_worker17he8eea57397b3d942E, symObjAddr: 0x2208, symBinAddr: 0x2AA77C, symSize: 0x27C }
  - { offset: 0x1DE4A6, size: 0x8, addend: 0x0, symName: '__ZN44_$LT$$RF$T$u20$as$u20$core..fmt..Display$GT$3fmt17h74c41ef60eee9487E', symObjAddr: 0x0, symBinAddr: 0x2AAF88, symSize: 0x3C }
  - { offset: 0x1DE4C2, size: 0x8, addend: 0x0, symName: '__ZN44_$LT$$RF$T$u20$as$u20$core..fmt..Display$GT$3fmt17h74c41ef60eee9487E', symObjAddr: 0x0, symBinAddr: 0x2AAF88, symSize: 0x3C }
  - { offset: 0x1DE5F1, size: 0x8, addend: 0x0, symName: __ZN7ndarray9dimension9abs_index17hd4a3f9fc6ccaba5cE, symObjAddr: 0x3C, symBinAddr: 0x2AAFC4, symSize: 0x9C }
  - { offset: 0x1DE729, size: 0x8, addend: 0x0, symName: __ZN9jvol_rust12quantization14get_multiplier17h5f6f3c215e953031E, symObjAddr: 0x0, symBinAddr: 0x2AB060, symSize: 0x29C }
  - { offset: 0x1DE740, size: 0x8, addend: 0x0, symName: __ZN9jvol_rust12quantization14get_multiplier17h5f6f3c215e953031E, symObjAddr: 0x0, symBinAddr: 0x2AB060, symSize: 0x29C }
  - { offset: 0x1DE853, size: 0x8, addend: 0x0, symName: __ZN9jvol_rust12quantization22get_quantization_table17h5a698e546c38a0bfE, symObjAddr: 0x29C, symBinAddr: 0x2AB2FC, symSize: 0x548 }
  - { offset: 0x1DED53, size: 0x8, addend: 0x0, symName: __ZN5rayon4iter16ParallelIterator3map17h5a766cca045d2e66E, symObjAddr: 0x0, symBinAddr: 0x2AB844, symSize: 0x40 }
  - { offset: 0x1DED6F, size: 0x8, addend: 0x0, symName: __ZN5rayon4iter16ParallelIterator3map17h5a766cca045d2e66E, symObjAddr: 0x0, symBinAddr: 0x2AB844, symSize: 0x40 }
  - { offset: 0x1DEDC8, size: 0x8, addend: 0x0, symName: __ZN5rayon4iter16ParallelIterator3map17h98df4d3a354c4951E, symObjAddr: 0x40, symBinAddr: 0x2AB884, symSize: 0x40 }
  - { offset: 0x1DEE2C, size: 0x8, addend: 0x0, symName: __ZN5rayon4iter8plumbing8Producer7max_len17h14102e95d4664ecdE, symObjAddr: 0x80, symBinAddr: 0x2AB8C4, symSize: 0x14 }
  - { offset: 0x1DEE61, size: 0x8, addend: 0x0, symName: __ZN5rayon4iter8plumbing8Producer7max_len17h19ce785378e8cd31E, symObjAddr: 0x94, symBinAddr: 0x2AB8D8, symSize: 0x14 }
  - { offset: 0x1DEE96, size: 0x8, addend: 0x0, symName: __ZN5rayon4iter8plumbing8Producer7min_len17h5ddb1504f00fc3afE, symObjAddr: 0xA8, symBinAddr: 0x2AB8EC, symSize: 0x18 }
  - { offset: 0x1DEECB, size: 0x8, addend: 0x0, symName: __ZN5rayon4iter8plumbing8Producer7min_len17h8d8fa8d07f4f4c61E, symObjAddr: 0xC0, symBinAddr: 0x2AB904, symSize: 0x18 }
  - { offset: 0x1DEF00, size: 0x8, addend: 0x0, symName: __ZN5rayon4iter8plumbing8Producer9fold_with17h062d42a5b9966f15E, symObjAddr: 0xD8, symBinAddr: 0x2AB91C, symSize: 0xA8 }
  - { offset: 0x1DEF4D, size: 0x8, addend: 0x0, symName: __ZN5rayon4iter8plumbing8Producer9fold_with17h47c4b0adb4e60982E, symObjAddr: 0x180, symBinAddr: 0x2AB9C4, symSize: 0xA8 }
  - { offset: 0x1DEF9A, size: 0x8, addend: 0x0, symName: __ZN5rayon4iter8plumbing8Producer9fold_with17h7ede4f8962be9f5fE, symObjAddr: 0x228, symBinAddr: 0x2ABA6C, symSize: 0xA8 }
  - { offset: 0x1DEFE7, size: 0x8, addend: 0x0, symName: __ZN5rayon4iter8plumbing8Producer9fold_with17h9af8e7bb45ce4fa2E, symObjAddr: 0x2D0, symBinAddr: 0x2ABB14, symSize: 0xA8 }
  - { offset: 0x1DF439, size: 0x8, addend: 0x0, symName: '__ZN77_$LT$rayon..slice..Iter$LT$T$GT$$u20$as$u20$rayon..iter..ParallelIterator$GT$15drive_unindexed17h0b9e305a24966b79E', symObjAddr: 0x378, symBinAddr: 0x2ABBBC, symSize: 0x40 }
  - { offset: 0x1DF489, size: 0x8, addend: 0x0, symName: '__ZN77_$LT$rayon..slice..Iter$LT$T$GT$$u20$as$u20$rayon..iter..ParallelIterator$GT$15drive_unindexed17hc35ad75b196e5c89E', symObjAddr: 0x3B8, symBinAddr: 0x2ABBFC, symSize: 0x30 }
  - { offset: 0x1DF4D8, size: 0x8, addend: 0x0, symName: '__ZN77_$LT$rayon..slice..Iter$LT$T$GT$$u20$as$u20$rayon..iter..ParallelIterator$GT$15drive_unindexed17hf4421e98bfeedd35E', symObjAddr: 0x3E8, symBinAddr: 0x2ABC2C, symSize: 0x40 }
  - { offset: 0x1DF528, size: 0x8, addend: 0x0, symName: '__ZN77_$LT$rayon..slice..Iter$LT$T$GT$$u20$as$u20$rayon..iter..ParallelIterator$GT$15drive_unindexed17hfbc3086ee875cdb9E', symObjAddr: 0x428, symBinAddr: 0x2ABC6C, symSize: 0x30 }
  - { offset: 0x1DF577, size: 0x8, addend: 0x0, symName: '__ZN77_$LT$rayon..slice..Iter$LT$T$GT$$u20$as$u20$rayon..iter..ParallelIterator$GT$7opt_len17h379ed4431e6b5fdeE', symObjAddr: 0x458, symBinAddr: 0x2ABC9C, symSize: 0x30 }
  - { offset: 0x1DF5AE, size: 0x8, addend: 0x0, symName: '__ZN77_$LT$rayon..slice..Iter$LT$T$GT$$u20$as$u20$rayon..iter..ParallelIterator$GT$7opt_len17h664d8c02a14ad779E', symObjAddr: 0x488, symBinAddr: 0x2ABCCC, symSize: 0x30 }
  - { offset: 0x1DF5EB, size: 0x8, addend: 0x0, symName: '__ZN84_$LT$rayon..slice..Iter$LT$T$GT$$u20$as$u20$rayon..iter..IndexedParallelIterator$GT$13with_producer17h10f14d276ab1d4d5E', symObjAddr: 0x4B8, symBinAddr: 0x2ABCFC, symSize: 0x54 }
  - { offset: 0x1DF63B, size: 0x8, addend: 0x0, symName: '__ZN84_$LT$rayon..slice..Iter$LT$T$GT$$u20$as$u20$rayon..iter..IndexedParallelIterator$GT$13with_producer17h502d6efe81043e49E', symObjAddr: 0x50C, symBinAddr: 0x2ABD50, symSize: 0x54 }
  - { offset: 0x1DF68B, size: 0x8, addend: 0x0, symName: '__ZN84_$LT$rayon..slice..Iter$LT$T$GT$$u20$as$u20$rayon..iter..IndexedParallelIterator$GT$13with_producer17h553b392fd3695b4cE', symObjAddr: 0x560, symBinAddr: 0x2ABDA4, symSize: 0x4C }
  - { offset: 0x1DF6DA, size: 0x8, addend: 0x0, symName: '__ZN84_$LT$rayon..slice..Iter$LT$T$GT$$u20$as$u20$rayon..iter..IndexedParallelIterator$GT$13with_producer17h5b96e80d535a49efE', symObjAddr: 0x5AC, symBinAddr: 0x2ABDF0, symSize: 0x4C }
  - { offset: 0x1DF729, size: 0x8, addend: 0x0, symName: '__ZN84_$LT$rayon..slice..Iter$LT$T$GT$$u20$as$u20$rayon..iter..IndexedParallelIterator$GT$3len17h8fe906389fc64e3aE', symObjAddr: 0x5F8, symBinAddr: 0x2ABE3C, symSize: 0x18 }
  - { offset: 0x1DF760, size: 0x8, addend: 0x0, symName: '__ZN84_$LT$rayon..slice..Iter$LT$T$GT$$u20$as$u20$rayon..iter..IndexedParallelIterator$GT$3len17hd3e8c71661908869E', symObjAddr: 0x610, symBinAddr: 0x2ABE54, symSize: 0x18 }
  - { offset: 0x1DF79D, size: 0x8, addend: 0x0, symName: '__ZN87_$LT$rayon..slice..IterProducer$LT$T$GT$$u20$as$u20$rayon..iter..plumbing..Producer$GT$8split_at17hb67cd30d914d7bbfE', symObjAddr: 0x628, symBinAddr: 0x2ABE6C, symSize: 0x70 }
  - { offset: 0x1DF811, size: 0x8, addend: 0x0, symName: '__ZN87_$LT$rayon..slice..IterProducer$LT$T$GT$$u20$as$u20$rayon..iter..plumbing..Producer$GT$8split_at17hda885ffa58d92b9fE', symObjAddr: 0x698, symBinAddr: 0x2ABEDC, symSize: 0x70 }
  - { offset: 0x1DF885, size: 0x8, addend: 0x0, symName: '__ZN87_$LT$rayon..slice..IterProducer$LT$T$GT$$u20$as$u20$rayon..iter..plumbing..Producer$GT$9into_iter17h70aaaf24a5c8a8b5E', symObjAddr: 0x708, symBinAddr: 0x2ABF4C, symSize: 0x28 }
  - { offset: 0x1DF8BC, size: 0x8, addend: 0x0, symName: '__ZN87_$LT$rayon..slice..IterProducer$LT$T$GT$$u20$as$u20$rayon..iter..plumbing..Producer$GT$9into_iter17h8b0c828c338788a1E', symObjAddr: 0x730, symBinAddr: 0x2ABF74, symSize: 0x28 }
  - { offset: 0x1E066C, size: 0x8, addend: 0x0, symName: '__ZN61_$LT$byteorder..BigEndian$u20$as$u20$byteorder..ByteOrder$GT$8read_u1617hd76395b02b403941E', symObjAddr: 0x0, symBinAddr: 0x2ABF9C, symSize: 0x194 }
  - { offset: 0x1E0AC3, size: 0x8, addend: 0x0, symName: '__ZN61_$LT$byteorder..BigEndian$u20$as$u20$byteorder..ByteOrder$GT$8read_u1617hd76395b02b403941E', symObjAddr: 0x0, symBinAddr: 0x2ABF9C, symSize: 0x194 }
  - { offset: 0x1E0BD4, size: 0x8, addend: 0x0, symName: '__ZN64_$LT$byteorder..LittleEndian$u20$as$u20$byteorder..ByteOrder$GT$8read_u1617h8f0d03fdf468315cE', symObjAddr: 0x194, symBinAddr: 0x2AC130, symSize: 0x194 }
  - { offset: 0x1E0CDF, size: 0x8, addend: 0x0, symName: '__ZN64_$LT$byteorder..LittleEndian$u20$as$u20$byteorder..ByteOrder$GT$9write_u1617h412bdb39f9adf3d2E', symObjAddr: 0x328, symBinAddr: 0x2AC2C4, symSize: 0xAC }
  - { offset: 0x1E0D3E, size: 0x8, addend: 0x0, symName: '__ZN64_$LT$byteorder..LittleEndian$u20$as$u20$byteorder..ByteOrder$GT$9write_u3217h1b62dc36fd86eb58E', symObjAddr: 0x3D4, symBinAddr: 0x2AC370, symSize: 0xAC }
  - { offset: 0x1E0DE2, size: 0x8, addend: 0x0, symName: '__ZN117_$LT$rayon..iter..plumbing..bridge..Callback$LT$C$GT$$u20$as$u20$rayon..iter..plumbing..ProducerCallback$LT$I$GT$$GT$8callback17h30f81a087d19709aE', symObjAddr: 0x0, symBinAddr: 0x2AC41C, symSize: 0x44 }
  - { offset: 0x1E0E08, size: 0x8, addend: 0x0, symName: '__ZN117_$LT$rayon..iter..plumbing..bridge..Callback$LT$C$GT$$u20$as$u20$rayon..iter..plumbing..ProducerCallback$LT$I$GT$$GT$8callback17h30f81a087d19709aE', symObjAddr: 0x0, symBinAddr: 0x2AC41C, symSize: 0x44 }
  - { offset: 0x1E0E61, size: 0x8, addend: 0x0, symName: '__ZN117_$LT$rayon..iter..plumbing..bridge..Callback$LT$C$GT$$u20$as$u20$rayon..iter..plumbing..ProducerCallback$LT$I$GT$$GT$8callback17h9ba8b9fa15e0e5a4E', symObjAddr: 0x44, symBinAddr: 0x2AC460, symSize: 0x48 }
  - { offset: 0x1E0EB9, size: 0x8, addend: 0x0, symName: '__ZN117_$LT$rayon..iter..plumbing..bridge..Callback$LT$C$GT$$u20$as$u20$rayon..iter..plumbing..ProducerCallback$LT$I$GT$$GT$8callback17hc751479e75fd87d7E', symObjAddr: 0x8C, symBinAddr: 0x2AC4A8, symSize: 0x44 }
  - { offset: 0x1E0F12, size: 0x8, addend: 0x0, symName: '__ZN117_$LT$rayon..iter..plumbing..bridge..Callback$LT$C$GT$$u20$as$u20$rayon..iter..plumbing..ProducerCallback$LT$I$GT$$GT$8callback17he090d9d140db56adE', symObjAddr: 0xD0, symBinAddr: 0x2AC4EC, symSize: 0x48 }
  - { offset: 0x1E1014, size: 0x8, addend: 0x0, symName: __ZN5rayon4iter8plumbing24bridge_producer_consumer17h2329a7d15ceb9b6cE, symObjAddr: 0x118, symBinAddr: 0x2AC534, symSize: 0xFC }
  - { offset: 0x1E1090, size: 0x8, addend: 0x0, symName: __ZN5rayon4iter8plumbing24bridge_producer_consumer17h4dc7e3952116ce0aE, symObjAddr: 0x214, symBinAddr: 0x2AC630, symSize: 0x10C }
  - { offset: 0x1E110E, size: 0x8, addend: 0x0, symName: __ZN5rayon4iter8plumbing24bridge_producer_consumer17h4e45b0205ae91915E, symObjAddr: 0x320, symBinAddr: 0x2AC73C, symSize: 0xFC }
  - { offset: 0x1E118A, size: 0x8, addend: 0x0, symName: __ZN5rayon4iter8plumbing24bridge_producer_consumer17h555f2de410a4b3b4E, symObjAddr: 0x41C, symBinAddr: 0x2AC838, symSize: 0x10C }
  - { offset: 0x1E120D, size: 0x8, addend: 0x0, symName: __ZN5rayon4iter8plumbing24bridge_producer_consumer6helper17h9b7295bbe1c7bb20E, symObjAddr: 0x528, symBinAddr: 0x2AC944, symSize: 0x48C }
  - { offset: 0x1E1334, size: 0x8, addend: 0x0, symName: __ZN5rayon4iter8plumbing24bridge_producer_consumer6helper17hb1b641deea217f44E, symObjAddr: 0x9B4, symBinAddr: 0x2ACDD0, symSize: 0x41C }
  - { offset: 0x1E1459, size: 0x8, addend: 0x0, symName: __ZN5rayon4iter8plumbing24bridge_producer_consumer6helper17hc63d0ef2a60eb633E, symObjAddr: 0xDD0, symBinAddr: 0x2AD1EC, symSize: 0x48C }
  - { offset: 0x1E1580, size: 0x8, addend: 0x0, symName: __ZN5rayon4iter8plumbing24bridge_producer_consumer6helper17hf00f4dfe794d47beE, symObjAddr: 0x125C, symBinAddr: 0x2AD678, symSize: 0x41C }
  - { offset: 0x1E16AA, size: 0x8, addend: 0x0, symName: '__ZN5rayon4iter8plumbing24bridge_producer_consumer6helper28_$u7b$$u7b$closure$u7d$$u7d$17h5c65d2112bee4fcbE', symObjAddr: 0x1678, symBinAddr: 0x2ADA94, symSize: 0x100 }
  - { offset: 0x1E173F, size: 0x8, addend: 0x0, symName: '__ZN5rayon4iter8plumbing24bridge_producer_consumer6helper28_$u7b$$u7b$closure$u7d$$u7d$17h8d71a15b6adb3734E', symObjAddr: 0x1778, symBinAddr: 0x2ADB94, symSize: 0xC8 }
  - { offset: 0x1E17C3, size: 0x8, addend: 0x0, symName: '__ZN5rayon4iter8plumbing24bridge_producer_consumer6helper28_$u7b$$u7b$closure$u7d$$u7d$17ha20705c2550d0a06E', symObjAddr: 0x1840, symBinAddr: 0x2ADC5C, symSize: 0xD8 }
  - { offset: 0x1E1847, size: 0x8, addend: 0x0, symName: '__ZN5rayon4iter8plumbing24bridge_producer_consumer6helper28_$u7b$$u7b$closure$u7d$$u7d$17hb0f9ad9b8434be21E', symObjAddr: 0x1918, symBinAddr: 0x2ADD34, symSize: 0xC8 }
  - { offset: 0x1E18CB, size: 0x8, addend: 0x0, symName: '__ZN5rayon4iter8plumbing24bridge_producer_consumer6helper28_$u7b$$u7b$closure$u7d$$u7d$17hb6ed23cc2c5ddd48E', symObjAddr: 0x19E0, symBinAddr: 0x2ADDFC, symSize: 0xF0 }
  - { offset: 0x1E1960, size: 0x8, addend: 0x0, symName: '__ZN5rayon4iter8plumbing24bridge_producer_consumer6helper28_$u7b$$u7b$closure$u7d$$u7d$17hbf59b54206bc420cE', symObjAddr: 0x1AD0, symBinAddr: 0x2ADEEC, symSize: 0xD8 }
  - { offset: 0x1E19E4, size: 0x8, addend: 0x0, symName: '__ZN5rayon4iter8plumbing24bridge_producer_consumer6helper28_$u7b$$u7b$closure$u7d$$u7d$17hc89746df02c8830fE', symObjAddr: 0x1BA8, symBinAddr: 0x2ADFC4, symSize: 0x100 }
  - { offset: 0x1E1A79, size: 0x8, addend: 0x0, symName: '__ZN5rayon4iter8plumbing24bridge_producer_consumer6helper28_$u7b$$u7b$closure$u7d$$u7d$17hee557924fc5e2290E', symObjAddr: 0x1CA8, symBinAddr: 0x2AE0C4, symSize: 0xF0 }
  - { offset: 0x1E1B10, size: 0x8, addend: 0x0, symName: __ZN5rayon4iter8plumbing6bridge17h023d3e62eeb90613E, symObjAddr: 0x1D98, symBinAddr: 0x2AE1B4, symSize: 0xB4 }
  - { offset: 0x1E1B7D, size: 0x8, addend: 0x0, symName: __ZN5rayon4iter8plumbing6bridge17h565f73d61644fe54E, symObjAddr: 0x1E4C, symBinAddr: 0x2AE268, symSize: 0xD8 }
  - { offset: 0x1E1BEB, size: 0x8, addend: 0x0, symName: __ZN5rayon4iter8plumbing6bridge17h9a3bb85360d6522bE, symObjAddr: 0x1F24, symBinAddr: 0x2AE340, symSize: 0xB4 }
  - { offset: 0x1E1C58, size: 0x8, addend: 0x0, symName: __ZN5rayon4iter8plumbing6bridge17hf4f27f9954bec618E, symObjAddr: 0x1FD8, symBinAddr: 0x2AE3F4, symSize: 0xD8 }
  - { offset: 0x1E2AF7, size: 0x8, addend: 0x0, symName: __ZN5alloc3vec16in_place_collect13needs_realloc17h09b15fecb7230811E, symObjAddr: 0x0, symBinAddr: 0x2AE4CC, symSize: 0x2C }
  - { offset: 0x1E33AD, size: 0x8, addend: 0x0, symName: __ZN5alloc3vec16in_place_collect13needs_realloc17h09b15fecb7230811E, symObjAddr: 0x0, symBinAddr: 0x2AE4CC, symSize: 0x2C }
  - { offset: 0x1E33F9, size: 0x8, addend: 0x0, symName: __ZN5alloc3vec16in_place_collect13needs_realloc17h1e5f1d6ddfaa61a4E, symObjAddr: 0x2C, symBinAddr: 0x2AE4F8, symSize: 0x2C }
  - { offset: 0x1E3445, size: 0x8, addend: 0x0, symName: __ZN5alloc3vec16in_place_collect13needs_realloc17h9d3e5d6f2e5e1ea1E, symObjAddr: 0x58, symBinAddr: 0x2AE524, symSize: 0x2C }
  - { offset: 0x1E3491, size: 0x8, addend: 0x0, symName: __ZN5alloc3vec16in_place_collect18from_iter_in_place17h37ef0f0dd9601f9fE, symObjAddr: 0x84, symBinAddr: 0x2AE550, symSize: 0x378 }
  - { offset: 0x1E39A1, size: 0x8, addend: 0x0, symName: __ZN5alloc3vec16in_place_collect18from_iter_in_place17h742d590d7149bdbcE, symObjAddr: 0x3FC, symBinAddr: 0x2AE8C8, symSize: 0x378 }
  - { offset: 0x1E3EB1, size: 0x8, addend: 0x0, symName: __ZN5alloc3vec16in_place_collect18from_iter_in_place17hd882178cc4f4e270E, symObjAddr: 0x774, symBinAddr: 0x2AEC40, symSize: 0x378 }
  - { offset: 0x1E4E0F, size: 0x8, addend: 0x0, symName: '__ZN3std11collections4hash3map20HashMap$LT$K$C$V$GT$3new17h06cfbd2c8e6b6021E', symObjAddr: 0x0, symBinAddr: 0x2AEFB8, symSize: 0x7C }
  - { offset: 0x1E7BE0, size: 0x8, addend: 0x0, symName: '__ZN3std11collections4hash3map20HashMap$LT$K$C$V$GT$3new17h06cfbd2c8e6b6021E', symObjAddr: 0x0, symBinAddr: 0x2AEFB8, symSize: 0x7C }
  - { offset: 0x1E7D5B, size: 0x8, addend: 0x0, symName: '__ZN3std11collections4hash3map20HashMap$LT$K$C$V$GT$3new17h104d2668407303b9E', symObjAddr: 0x7C, symBinAddr: 0x2AF034, symSize: 0x7C }
  - { offset: 0x1E7EBC, size: 0x8, addend: 0x0, symName: '__ZN3std11collections4hash3map20HashMap$LT$K$C$V$GT$3new17h162b9c647a4b3fe6E', symObjAddr: 0xF8, symBinAddr: 0x2AF0B0, symSize: 0x7C }
  - { offset: 0x1E8037, size: 0x8, addend: 0x0, symName: '__ZN3std11collections4hash3map20HashMap$LT$K$C$V$GT$3new17h4c4c36f12903cd47E', symObjAddr: 0x174, symBinAddr: 0x2AF12C, symSize: 0x7C }
  - { offset: 0x1E8198, size: 0x8, addend: 0x0, symName: '__ZN3std11collections4hash3map20HashMap$LT$K$C$V$GT$3new17h661257da3ad05a73E', symObjAddr: 0x1F0, symBinAddr: 0x2AF1A8, symSize: 0x7C }
  - { offset: 0x1E82F9, size: 0x8, addend: 0x0, symName: '__ZN3std11collections4hash3map20HashMap$LT$K$C$V$GT$3new17h661459d3c81b6355E', symObjAddr: 0x26C, symBinAddr: 0x2AF224, symSize: 0x7C }
  - { offset: 0x1E8474, size: 0x8, addend: 0x0, symName: '__ZN3std11collections4hash3map20HashMap$LT$K$C$V$GT$3new17h8ada2c1cd956942fE', symObjAddr: 0x2E8, symBinAddr: 0x2AF2A0, symSize: 0x7C }
  - { offset: 0x1E85D5, size: 0x8, addend: 0x0, symName: '__ZN3std11collections4hash3map20HashMap$LT$K$C$V$GT$3new17ha072bfb678cf849fE', symObjAddr: 0x364, symBinAddr: 0x2AF31C, symSize: 0x7C }
  - { offset: 0x1E871C, size: 0x8, addend: 0x0, symName: '__ZN3std11collections4hash3map20HashMap$LT$K$C$V$GT$3new17hb579654337fa5761E', symObjAddr: 0x3E0, symBinAddr: 0x2AF398, symSize: 0x7C }
  - { offset: 0x1E887D, size: 0x8, addend: 0x0, symName: '__ZN3std11collections4hash3map20HashMap$LT$K$C$V$GT$3new17hc31be6e51f7fdcedE', symObjAddr: 0x45C, symBinAddr: 0x2AF414, symSize: 0x7C }
  - { offset: 0x1E89DE, size: 0x8, addend: 0x0, symName: '__ZN3std11collections4hash3map20HashMap$LT$K$C$V$GT$3new17hd749e34f57272520E', symObjAddr: 0x4D8, symBinAddr: 0x2AF490, symSize: 0x7C }
  - { offset: 0x1E8B3F, size: 0x8, addend: 0x0, symName: '__ZN3std11collections4hash3map20HashMap$LT$K$C$V$GT$3new17he3fd4d7e19656ee8E', symObjAddr: 0x554, symBinAddr: 0x2AF50C, symSize: 0x7C }
  - { offset: 0x1E8CA6, size: 0x8, addend: 0x0, symName: '__ZN3std11collections4hash3map20HashMap$LT$K$C$V$GT$3new17hed21d3ca75191ad9E', symObjAddr: 0x5D0, symBinAddr: 0x2AF588, symSize: 0x7C }
  - { offset: 0x1E8E07, size: 0x8, addend: 0x0, symName: '__ZN3std11collections4hash3map20HashMap$LT$K$C$V$GT$3new17hf810d18dc9ab8721E', symObjAddr: 0x64C, symBinAddr: 0x2AF604, symSize: 0x7C }
  - { offset: 0x1E8ED7, size: 0x8, addend: 0x0, symName: '__ZN3std11collections4hash3map24HashMap$LT$K$C$V$C$S$GT$12contains_key17h26ed5204ba1ff334E', symObjAddr: 0x6C8, symBinAddr: 0x2AF680, symSize: 0x2C }
  - { offset: 0x1E8F3A, size: 0x8, addend: 0x0, symName: '__ZN3std11collections4hash3map24HashMap$LT$K$C$V$C$S$GT$3get17h0db37eb8ae19384dE', symObjAddr: 0x6F4, symBinAddr: 0x2AF6AC, symSize: 0x2C }
  - { offset: 0x1E8FAA, size: 0x8, addend: 0x0, symName: '__ZN3std11collections4hash3map24HashMap$LT$K$C$V$C$S$GT$3get17h31fc98551503b853E', symObjAddr: 0x720, symBinAddr: 0x2AF6D8, symSize: 0x2C }
  - { offset: 0x1E901A, size: 0x8, addend: 0x0, symName: '__ZN3std11collections4hash3map24HashMap$LT$K$C$V$C$S$GT$3get17h5c8b785262d9ff68E', symObjAddr: 0x74C, symBinAddr: 0x2AF704, symSize: 0x2C }
  - { offset: 0x1E908A, size: 0x8, addend: 0x0, symName: '__ZN3std11collections4hash3map24HashMap$LT$K$C$V$C$S$GT$3get17h66f522e93767da23E', symObjAddr: 0x778, symBinAddr: 0x2AF730, symSize: 0x2C }
  - { offset: 0x1E90ED, size: 0x8, addend: 0x0, symName: '__ZN3std11collections4hash3map24HashMap$LT$K$C$V$C$S$GT$6insert17h0a40087e2e8b836aE', symObjAddr: 0x7A4, symBinAddr: 0x2AF75C, symSize: 0x30 }
  - { offset: 0x1E9156, size: 0x8, addend: 0x0, symName: '__ZN3std11collections4hash3map24HashMap$LT$K$C$V$C$S$GT$6insert17h5a0636331d5cea29E', symObjAddr: 0x7D4, symBinAddr: 0x2AF78C, symSize: 0x30 }
  - { offset: 0x1E91BF, size: 0x8, addend: 0x0, symName: '__ZN3std11collections4hash3map24HashMap$LT$K$C$V$C$S$GT$6insert17hf5be58f8f27a3fc8E', symObjAddr: 0x804, symBinAddr: 0x2AF7BC, symSize: 0x38 }
  - { offset: 0x1E9228, size: 0x8, addend: 0x0, symName: '__ZN3std11collections4hash3map24HashMap$LT$K$C$V$C$S$GT$6insert17hf869d8d7bab1eaa3E', symObjAddr: 0x83C, symBinAddr: 0x2AF7F4, symSize: 0x38 }
  - { offset: 0x1E92A2, size: 0x8, addend: 0x0, symName: '__ZN9jvol_rust12quantization22get_quantization_table28_$u7b$$u7b$closure$u7d$$u7d$17h9894be08ffcc25daE', symObjAddr: 0x0, symBinAddr: 0x2AF82C, symSize: 0x44 }
  - { offset: 0x1E92BE, size: 0x8, addend: 0x0, symName: '__ZN9jvol_rust12quantization22get_quantization_table28_$u7b$$u7b$closure$u7d$$u7d$17h9894be08ffcc25daE', symObjAddr: 0x0, symBinAddr: 0x2AF82C, symSize: 0x44 }
  - { offset: 0x1E92FB, size: 0x8, addend: 0x0, symName: '__ZN9jvol_rust12quantization22get_quantization_table28_$u7b$$u7b$closure$u7d$$u7d$17hadf13513911bae85E', symObjAddr: 0x44, symBinAddr: 0x2AF870, symSize: 0x5C }
  - { offset: 0x1E93ED, size: 0x8, addend: 0x0, symName: '__ZN82_$LT$bincode..byteorder..LittleEndian$u20$as$u20$bincode..byteorder..ByteOrder$GT$8read_u3217h3e62cdb9f082e5e9E', symObjAddr: 0x0, symBinAddr: 0x2AF8CC, symSize: 0xE4 }
  - { offset: 0x1E9478, size: 0x8, addend: 0x0, symName: '__ZN82_$LT$bincode..byteorder..LittleEndian$u20$as$u20$bincode..byteorder..ByteOrder$GT$8read_u3217h3e62cdb9f082e5e9E', symObjAddr: 0x0, symBinAddr: 0x2AF8CC, symSize: 0xE4 }
  - { offset: 0x1E94EE, size: 0x8, addend: 0x0, symName: '__ZN82_$LT$bincode..byteorder..LittleEndian$u20$as$u20$bincode..byteorder..ByteOrder$GT$8read_u6417h03f918491948b7fdE', symObjAddr: 0xE4, symBinAddr: 0x2AF9B0, symSize: 0xE4 }
  - { offset: 0x1E9564, size: 0x8, addend: 0x0, symName: '__ZN82_$LT$bincode..byteorder..LittleEndian$u20$as$u20$bincode..byteorder..ByteOrder$GT$9write_u3217hdbdae97e7b87974dE', symObjAddr: 0x1C8, symBinAddr: 0x2AFA94, symSize: 0xF4 }
  - { offset: 0x1E95E4, size: 0x8, addend: 0x0, symName: '__ZN82_$LT$bincode..byteorder..LittleEndian$u20$as$u20$bincode..byteorder..ByteOrder$GT$9write_u6417h8f84fa0e3cc611a9E', symObjAddr: 0x2BC, symBinAddr: 0x2AFB88, symSize: 0xF4 }
  - { offset: 0x1E96F9, size: 0x8, addend: 0x0, symName: '__ZN3std2io5impls60_$LT$impl$u20$std..io..Read$u20$for$u20$$RF$$u5b$u8$u5d$$GT$4read17h4ec92aee092ccb2cE', symObjAddr: 0x0, symBinAddr: 0x2AFC7C, symSize: 0x1CC }
  - { offset: 0x1E996C, size: 0x8, addend: 0x0, symName: '__ZN3std2io5impls60_$LT$impl$u20$std..io..Read$u20$for$u20$$RF$$u5b$u8$u5d$$GT$4read17h4ec92aee092ccb2cE', symObjAddr: 0x0, symBinAddr: 0x2AFC7C, symSize: 0x1CC }
  - { offset: 0x1E9AF7, size: 0x8, addend: 0x0, symName: '__ZN3std2io5impls60_$LT$impl$u20$std..io..Read$u20$for$u20$$RF$$u5b$u8$u5d$$GT$8read_buf17h6fe13290ce370626E', symObjAddr: 0x1CC, symBinAddr: 0x2AFE48, symSize: 0xC0 }
  - { offset: 0x1E9BDE, size: 0x8, addend: 0x0, symName: '__ZN3std2io5impls69_$LT$impl$u20$std..io..Write$u20$for$u20$$RF$mut$u20$$u5b$u8$u5d$$GT$5write17hf05ef5dbbd6eadd5E', symObjAddr: 0x28C, symBinAddr: 0x2AFF08, symSize: 0x154 }
  - { offset: 0x1EA648, size: 0x8, addend: 0x0, symName: __ZN5rayon4iter8plumbing14LengthSplitter3new17h01f96acf75ad81e2E, symObjAddr: 0x0, symBinAddr: 0x2B005C, symSize: 0xBC }
  - { offset: 0x1EA70F, size: 0x8, addend: 0x0, symName: __ZN5rayon4iter8plumbing14LengthSplitter3new17h01f96acf75ad81e2E, symObjAddr: 0x0, symBinAddr: 0x2B005C, symSize: 0xBC }
  - { offset: 0x1EA790, size: 0x8, addend: 0x0, symName: __ZN5rayon4iter8plumbing14LengthSplitter9try_split17h094049cc44d77789E, symObjAddr: 0xBC, symBinAddr: 0x2B0118, symSize: 0x6C }
  - { offset: 0x1EA7D1, size: 0x8, addend: 0x0, symName: __ZN5rayon4iter8plumbing8Splitter3new17h18d2217db3a7518eE, symObjAddr: 0x128, symBinAddr: 0x2B0184, symSize: 0x14 }
  - { offset: 0x1EA7F1, size: 0x8, addend: 0x0, symName: __ZN5rayon4iter8plumbing8Splitter9try_split17h9df4d0fc7b7a6272E, symObjAddr: 0x13C, symBinAddr: 0x2B0198, symSize: 0xA8 }
  - { offset: 0x1EA85F, size: 0x8, addend: 0x0, symName: __ZN10rayon_core5sleep8counters13select_thread17h62e92cf9c8b8b317E, symObjAddr: 0x0, symBinAddr: 0x2B0240, symSize: 0x54 }
  - { offset: 0x1EA87B, size: 0x8, addend: 0x0, symName: __ZN10rayon_core5sleep8counters13select_thread17h62e92cf9c8b8b317E, symObjAddr: 0x0, symBinAddr: 0x2B0240, symSize: 0x54 }
  - { offset: 0x1EA914, size: 0x8, addend: 0x0, symName: __ZN10rayon_core5sleep8counters8Counters16inactive_threads17hf9b25427f590f8b2E, symObjAddr: 0x54, symBinAddr: 0x2B0294, symSize: 0x28 }
  - { offset: 0x1EA936, size: 0x8, addend: 0x0, symName: __ZN10rayon_core5sleep8counters8Counters16sleeping_threads17h68ad5918626a9a79E, symObjAddr: 0x7C, symBinAddr: 0x2B02BC, symSize: 0x24 }
  - { offset: 0x1EA959, size: 0x8, addend: 0x0, symName: __ZN10rayon_core5sleep8counters8Counters22awake_but_idle_threads17h9001ef10d2180713E, symObjAddr: 0xA0, symBinAddr: 0x2B02E0, symSize: 0x10C }
  - { offset: 0x1EAC7A, size: 0x8, addend: 0x0, symName: __ZN10serde_core7private9size_hint8cautious17h75043c3b01ae7722E, symObjAddr: 0x0, symBinAddr: 0x2B03EC, symSize: 0x84 }
  - { offset: 0x1EAC96, size: 0x8, addend: 0x0, symName: __ZN10serde_core7private9size_hint8cautious17h75043c3b01ae7722E, symObjAddr: 0x0, symBinAddr: 0x2B03EC, symSize: 0x84 }
  - { offset: 0x1EACCB, size: 0x8, addend: 0x0, symName: __ZN10serde_core7private9size_hint8cautious17h767048231db31838E, symObjAddr: 0x84, symBinAddr: 0x2B0470, symSize: 0x84 }
  - { offset: 0x1EAD00, size: 0x8, addend: 0x0, symName: __ZN10serde_core7private9size_hint8cautious17hcaef308181fe9bb2E, symObjAddr: 0x108, symBinAddr: 0x2B04F4, symSize: 0x84 }
  - { offset: 0x1EADE7, size: 0x8, addend: 0x0, symName: '__ZN103_$LT$alloc..vec..into_iter..IntoIter$LT$T$C$A$GT$$u20$as$u20$core..iter..traits..iterator..Iterator$GT$24__iterator_get_unchecked17h0bc23c0788207ad4E', symObjAddr: 0x0, symBinAddr: 0x2B0578, symSize: 0x20 }
  - { offset: 0x1EC275, size: 0x8, addend: 0x0, symName: '__ZN72_$LT$I$u20$as$u20$core..iter..adapters..zip..SpecTrustedRandomAccess$GT$17try_get_unchecked17h1386e6f3cc42d5bfE', symObjAddr: 0x14D8, symBinAddr: 0x2B1A50, symSize: 0x28 }
  - { offset: 0x1EC2BB, size: 0x8, addend: 0x0, symName: '__ZN72_$LT$I$u20$as$u20$core..iter..adapters..zip..SpecTrustedRandomAccess$GT$17try_get_unchecked17ha02cebdcd992454aE', symObjAddr: 0x1500, symBinAddr: 0x2B1A78, symSize: 0x28 }
  - { offset: 0x1EC301, size: 0x8, addend: 0x0, symName: '__ZN72_$LT$I$u20$as$u20$core..iter..adapters..zip..SpecTrustedRandomAccess$GT$17try_get_unchecked17hba4c405dbd2923a6E', symObjAddr: 0x1528, symBinAddr: 0x2B1AA0, symSize: 0x28 }
  - { offset: 0x1EC359, size: 0x8, addend: 0x0, symName: __ZN4core4iter6traits8iterator8Iterator3map17h20e87a3eae88cbf1E, symObjAddr: 0xB50, symBinAddr: 0x2B10C8, symSize: 0x1C }
  - { offset: 0x1EC3C6, size: 0x8, addend: 0x0, symName: __ZN4core4iter6traits8iterator8Iterator3map17h41947ad024033eeeE, symObjAddr: 0xB6C, symBinAddr: 0x2B10E4, symSize: 0x1C }
  - { offset: 0x1EC433, size: 0x8, addend: 0x0, symName: __ZN4core4iter6traits8iterator8Iterator3map17h41c839017848c4adE, symObjAddr: 0xB88, symBinAddr: 0x2B1100, symSize: 0x1C }
  - { offset: 0x1EC4A0, size: 0x8, addend: 0x0, symName: __ZN4core4iter6traits8iterator8Iterator3map17h68dfc7a6ea880db5E, symObjAddr: 0xBA4, symBinAddr: 0x2B111C, symSize: 0x1C }
  - { offset: 0x1EC50D, size: 0x8, addend: 0x0, symName: __ZN4core4iter6traits8iterator8Iterator3map17h6f4df7c1d65b4e2bE, symObjAddr: 0xBC0, symBinAddr: 0x2B1138, symSize: 0x1C }
  - { offset: 0x1EC57A, size: 0x8, addend: 0x0, symName: __ZN4core4iter6traits8iterator8Iterator3map17hbebce55ffb6ef0b0E, symObjAddr: 0xBDC, symBinAddr: 0x2B1154, symSize: 0x1C }
  - { offset: 0x1EC5E7, size: 0x8, addend: 0x0, symName: __ZN4core4iter6traits8iterator8Iterator3map17hbecc982cd4f4e21cE, symObjAddr: 0xBF8, symBinAddr: 0x2B1170, symSize: 0x1C }
  - { offset: 0x1EC654, size: 0x8, addend: 0x0, symName: __ZN4core4iter6traits8iterator8Iterator3map17hcd6c1ada7759b855E, symObjAddr: 0xC14, symBinAddr: 0x2B118C, symSize: 0x1C }
  - { offset: 0x1EC6C1, size: 0x8, addend: 0x0, symName: __ZN4core4iter6traits8iterator8Iterator3map17he83d8403b4496ffdE, symObjAddr: 0xC30, symBinAddr: 0x2B11A8, symSize: 0x1C }
  - { offset: 0x1EC72E, size: 0x8, addend: 0x0, symName: __ZN4core4iter6traits8iterator8Iterator3map17head5244d49a2f034E, symObjAddr: 0xC4C, symBinAddr: 0x2B11C4, symSize: 0x1C }
  - { offset: 0x1ED187, size: 0x8, addend: 0x0, symName: '__ZN103_$LT$alloc..vec..into_iter..IntoIter$LT$T$C$A$GT$$u20$as$u20$core..iter..traits..iterator..Iterator$GT$24__iterator_get_unchecked17h0bc23c0788207ad4E', symObjAddr: 0x0, symBinAddr: 0x2B0578, symSize: 0x20 }
  - { offset: 0x1ED201, size: 0x8, addend: 0x0, symName: '__ZN103_$LT$alloc..vec..into_iter..IntoIter$LT$T$C$A$GT$$u20$as$u20$core..iter..traits..iterator..Iterator$GT$24__iterator_get_unchecked17hd7e1c1cb6f3f5431E', symObjAddr: 0x20, symBinAddr: 0x2B0598, symSize: 0x20 }
  - { offset: 0x1ED27B, size: 0x8, addend: 0x0, symName: '__ZN103_$LT$alloc..vec..into_iter..IntoIter$LT$T$C$A$GT$$u20$as$u20$core..iter..traits..iterator..Iterator$GT$24__iterator_get_unchecked17he525f83823085c94E', symObjAddr: 0x40, symBinAddr: 0x2B05B8, symSize: 0x20 }
  - { offset: 0x1ED2F5, size: 0x8, addend: 0x0, symName: '__ZN103_$LT$alloc..vec..into_iter..IntoIter$LT$T$C$A$GT$$u20$as$u20$core..iter..traits..iterator..Iterator$GT$4fold17h2624ff015787e52dE', symObjAddr: 0x60, symBinAddr: 0x2B05D8, symSize: 0x104 }
  - { offset: 0x1ED4A4, size: 0x8, addend: 0x0, symName: '__ZN103_$LT$alloc..vec..into_iter..IntoIter$LT$T$C$A$GT$$u20$as$u20$core..iter..traits..iterator..Iterator$GT$4fold17h443ef2306f1b5694E', symObjAddr: 0x164, symBinAddr: 0x2B06DC, symSize: 0x104 }
  - { offset: 0x1ED653, size: 0x8, addend: 0x0, symName: '__ZN103_$LT$alloc..vec..into_iter..IntoIter$LT$T$C$A$GT$$u20$as$u20$core..iter..traits..iterator..Iterator$GT$4fold17h5164ec380ca38e73E', symObjAddr: 0x268, symBinAddr: 0x2B07E0, symSize: 0x104 }
  - { offset: 0x1ED802, size: 0x8, addend: 0x0, symName: '__ZN103_$LT$alloc..vec..into_iter..IntoIter$LT$T$C$A$GT$$u20$as$u20$core..iter..traits..iterator..Iterator$GT$4fold17h7b22871e62260138E', symObjAddr: 0x36C, symBinAddr: 0x2B08E4, symSize: 0x104 }
  - { offset: 0x1ED9B1, size: 0x8, addend: 0x0, symName: '__ZN103_$LT$alloc..vec..into_iter..IntoIter$LT$T$C$A$GT$$u20$as$u20$core..iter..traits..iterator..Iterator$GT$4fold17h8f848a196a10cf3fE', symObjAddr: 0x470, symBinAddr: 0x2B09E8, symSize: 0x104 }
  - { offset: 0x1EDB60, size: 0x8, addend: 0x0, symName: '__ZN103_$LT$alloc..vec..into_iter..IntoIter$LT$T$C$A$GT$$u20$as$u20$core..iter..traits..iterator..Iterator$GT$4fold17hb811dac000457a12E', symObjAddr: 0x574, symBinAddr: 0x2B0AEC, symSize: 0x104 }
  - { offset: 0x1EDD0F, size: 0x8, addend: 0x0, symName: '__ZN103_$LT$alloc..vec..into_iter..IntoIter$LT$T$C$A$GT$$u20$as$u20$core..iter..traits..iterator..Iterator$GT$4fold17hdfda0b5dd1aa61e3E', symObjAddr: 0x678, symBinAddr: 0x2B0BF0, symSize: 0x104 }
  - { offset: 0x1EDEBE, size: 0x8, addend: 0x0, symName: '__ZN103_$LT$alloc..vec..into_iter..IntoIter$LT$T$C$A$GT$$u20$as$u20$core..iter..traits..iterator..Iterator$GT$9size_hint17h0ae46533321029abE', symObjAddr: 0x77C, symBinAddr: 0x2B0CF4, symSize: 0x5C }
  - { offset: 0x1EDF19, size: 0x8, addend: 0x0, symName: '__ZN103_$LT$alloc..vec..into_iter..IntoIter$LT$T$C$A$GT$$u20$as$u20$core..iter..traits..iterator..Iterator$GT$9size_hint17h141b4839b03252c4E', symObjAddr: 0x7D8, symBinAddr: 0x2B0D50, symSize: 0x5C }
  - { offset: 0x1EDF74, size: 0x8, addend: 0x0, symName: '__ZN103_$LT$alloc..vec..into_iter..IntoIter$LT$T$C$A$GT$$u20$as$u20$core..iter..traits..iterator..Iterator$GT$9size_hint17h24d3fccc1e8e0b97E', symObjAddr: 0x834, symBinAddr: 0x2B0DAC, symSize: 0x5C }
  - { offset: 0x1EDFCF, size: 0x8, addend: 0x0, symName: '__ZN103_$LT$alloc..vec..into_iter..IntoIter$LT$T$C$A$GT$$u20$as$u20$core..iter..traits..iterator..Iterator$GT$9size_hint17h36702bfc52bbd340E', symObjAddr: 0x890, symBinAddr: 0x2B0E08, symSize: 0x5C }
  - { offset: 0x1EE02A, size: 0x8, addend: 0x0, symName: '__ZN103_$LT$alloc..vec..into_iter..IntoIter$LT$T$C$A$GT$$u20$as$u20$core..iter..traits..iterator..Iterator$GT$9size_hint17h59aedfe4ed56fec6E', symObjAddr: 0x8EC, symBinAddr: 0x2B0E64, symSize: 0x5C }
  - { offset: 0x1EE085, size: 0x8, addend: 0x0, symName: '__ZN103_$LT$alloc..vec..into_iter..IntoIter$LT$T$C$A$GT$$u20$as$u20$core..iter..traits..iterator..Iterator$GT$9size_hint17h65da788f2de1d3cbE', symObjAddr: 0x948, symBinAddr: 0x2B0EC0, symSize: 0x5C }
  - { offset: 0x1EE0E0, size: 0x8, addend: 0x0, symName: '__ZN103_$LT$alloc..vec..into_iter..IntoIter$LT$T$C$A$GT$$u20$as$u20$core..iter..traits..iterator..Iterator$GT$9size_hint17h69e1ea01cb783e96E', symObjAddr: 0x9A4, symBinAddr: 0x2B0F1C, symSize: 0x5C }
  - { offset: 0x1EE13B, size: 0x8, addend: 0x0, symName: '__ZN103_$LT$alloc..vec..into_iter..IntoIter$LT$T$C$A$GT$$u20$as$u20$core..iter..traits..iterator..Iterator$GT$9size_hint17h753eeabe8b866d2eE', symObjAddr: 0xA00, symBinAddr: 0x2B0F78, symSize: 0x5C }
  - { offset: 0x1EE196, size: 0x8, addend: 0x0, symName: '__ZN103_$LT$alloc..vec..into_iter..IntoIter$LT$T$C$A$GT$$u20$as$u20$core..iter..traits..iterator..Iterator$GT$9size_hint17h7e1019d1f098993cE', symObjAddr: 0xA5C, symBinAddr: 0x2B0FD4, symSize: 0x5C }
  - { offset: 0x1EE1F1, size: 0x8, addend: 0x0, symName: '__ZN103_$LT$alloc..vec..into_iter..IntoIter$LT$T$C$A$GT$$u20$as$u20$core..iter..traits..iterator..Iterator$GT$9size_hint17hee194f4107dc2250E', symObjAddr: 0xAB8, symBinAddr: 0x2B1030, symSize: 0x5C }
  - { offset: 0x1EE46E, size: 0x8, addend: 0x0, symName: '__ZN104_$LT$alloc..vec..into_iter..IntoIter$LT$T$GT$$u20$as$u20$alloc..vec..in_place_collect..AsVecIntoIter$GT$12as_into_iter17h45ce25ce8312659cE', symObjAddr: 0xB14, symBinAddr: 0x2B108C, symSize: 0x14 }
  - { offset: 0x1EE4A5, size: 0x8, addend: 0x0, symName: '__ZN104_$LT$alloc..vec..into_iter..IntoIter$LT$T$GT$$u20$as$u20$alloc..vec..in_place_collect..AsVecIntoIter$GT$12as_into_iter17h54fbd0fcc0d21487E', symObjAddr: 0xB28, symBinAddr: 0x2B10A0, symSize: 0x14 }
  - { offset: 0x1EE4DC, size: 0x8, addend: 0x0, symName: '__ZN104_$LT$alloc..vec..into_iter..IntoIter$LT$T$GT$$u20$as$u20$alloc..vec..in_place_collect..AsVecIntoIter$GT$12as_into_iter17h9084be19c5abeac2E', symObjAddr: 0xB3C, symBinAddr: 0x2B10B4, symSize: 0x14 }
  - { offset: 0x1EEABF, size: 0x8, addend: 0x0, symName: '__ZN97_$LT$alloc..vec..into_iter..IntoIter$LT$T$C$A$GT$$u20$as$u20$core..iter..adapters..SourceIter$GT$8as_inner17h689f529a9393a2fdE', symObjAddr: 0x1550, symBinAddr: 0x2B1AC8, symSize: 0x14 }
  - { offset: 0x1EEAFF, size: 0x8, addend: 0x0, symName: '__ZN97_$LT$alloc..vec..into_iter..IntoIter$LT$T$C$A$GT$$u20$as$u20$core..iter..adapters..SourceIter$GT$8as_inner17haa5448fb077a2427E', symObjAddr: 0x1564, symBinAddr: 0x2B1ADC, symSize: 0x14 }
  - { offset: 0x1EEB3F, size: 0x8, addend: 0x0, symName: '__ZN97_$LT$alloc..vec..into_iter..IntoIter$LT$T$C$A$GT$$u20$as$u20$core..iter..adapters..SourceIter$GT$8as_inner17haf10459e4136c799E', symObjAddr: 0x1578, symBinAddr: 0x2B1AF0, symSize: 0x14 }
  - { offset: 0x1EF4C7, size: 0x8, addend: 0x0, symName: '__ZN5alloc3vec9into_iter21IntoIter$LT$T$C$A$GT$16as_raw_mut_slice17h61aa70ae400ac7ffE', symObjAddr: 0xC68, symBinAddr: 0x2B11E0, symSize: 0xCC }
  - { offset: 0x1EF681, size: 0x8, addend: 0x0, symName: '__ZN5alloc3vec9into_iter21IntoIter$LT$T$C$A$GT$16as_raw_mut_slice17h69db23a9f5e20893E', symObjAddr: 0xD34, symBinAddr: 0x2B12AC, symSize: 0xCC }
  - { offset: 0x1EF83B, size: 0x8, addend: 0x0, symName: '__ZN5alloc3vec9into_iter21IntoIter$LT$T$C$A$GT$16as_raw_mut_slice17h8d5a30f7a8717e86E', symObjAddr: 0xE00, symBinAddr: 0x2B1378, symSize: 0xCC }
  - { offset: 0x1EF9F5, size: 0x8, addend: 0x0, symName: '__ZN5alloc3vec9into_iter21IntoIter$LT$T$C$A$GT$16as_raw_mut_slice17h933d648ac7fd89edE', symObjAddr: 0xECC, symBinAddr: 0x2B1444, symSize: 0xCC }
  - { offset: 0x1EFBAF, size: 0x8, addend: 0x0, symName: '__ZN5alloc3vec9into_iter21IntoIter$LT$T$C$A$GT$16as_raw_mut_slice17h94e4047a4a9f0289E', symObjAddr: 0xF98, symBinAddr: 0x2B1510, symSize: 0xCC }
  - { offset: 0x1EFD69, size: 0x8, addend: 0x0, symName: '__ZN5alloc3vec9into_iter21IntoIter$LT$T$C$A$GT$16as_raw_mut_slice17hc938eb7ac12a8419E', symObjAddr: 0x1064, symBinAddr: 0x2B15DC, symSize: 0xCC }
  - { offset: 0x1EFF23, size: 0x8, addend: 0x0, symName: '__ZN5alloc3vec9into_iter21IntoIter$LT$T$C$A$GT$16as_raw_mut_slice17hd08e4cfaa4dd53e9E', symObjAddr: 0x1130, symBinAddr: 0x2B16A8, symSize: 0xCC }
  - { offset: 0x1F00DD, size: 0x8, addend: 0x0, symName: '__ZN5alloc3vec9into_iter21IntoIter$LT$T$C$A$GT$16as_raw_mut_slice17hd0dbc00d6d0865bcE', symObjAddr: 0x11FC, symBinAddr: 0x2B1774, symSize: 0xCC }
  - { offset: 0x1F0297, size: 0x8, addend: 0x0, symName: '__ZN5alloc3vec9into_iter21IntoIter$LT$T$C$A$GT$16as_raw_mut_slice17hd70e6f437f1044a9E', symObjAddr: 0x12C8, symBinAddr: 0x2B1840, symSize: 0xCC }
  - { offset: 0x1F0468, size: 0x8, addend: 0x0, symName: '__ZN5alloc3vec9into_iter21IntoIter$LT$T$C$A$GT$32forget_allocation_drop_remaining17h05ead912fd655d7cE', symObjAddr: 0x1394, symBinAddr: 0x2B190C, symSize: 0x6C }
  - { offset: 0x1F0587, size: 0x8, addend: 0x0, symName: '__ZN5alloc3vec9into_iter21IntoIter$LT$T$C$A$GT$32forget_allocation_drop_remaining17h7b158e5897efbfbeE', symObjAddr: 0x1400, symBinAddr: 0x2B1978, symSize: 0x6C }
  - { offset: 0x1F06A6, size: 0x8, addend: 0x0, symName: '__ZN5alloc3vec9into_iter21IntoIter$LT$T$C$A$GT$32forget_allocation_drop_remaining17hdfff496a5300d9b0E', symObjAddr: 0x146C, symBinAddr: 0x2B19E4, symSize: 0x6C }
  - { offset: 0x1F0805, size: 0x8, addend: 0x0, symName: __ZN4core9core_arch7aarch644neon9generated15vmulq_laneq_f6417h4e03bed80da7e996E, symObjAddr: 0x0, symBinAddr: 0x2B1B04, symSize: 0x24 }
  - { offset: 0x1F08BD, size: 0x8, addend: 0x0, symName: __ZN4core9core_arch7aarch644neon9generated15vmulq_laneq_f6417h4e03bed80da7e996E, symObjAddr: 0x0, symBinAddr: 0x2B1B04, symSize: 0x24 }
  - { offset: 0x1F0A41, size: 0x8, addend: 0x0, symName: '__ZN7rustfft3avx11avx_planner22FftPlannerAvx$LT$T$GT$3new17hdd0c1faca628a8a2E', symObjAddr: 0x24, symBinAddr: 0x2B1B28, symSize: 0xC }
  - { offset: 0x1F0B50, size: 0x8, addend: 0x0, symName: '__ZN7rustfft3avx11avx_planner22FftPlannerAvx$LT$T$GT$8plan_fft17h8338da99f86c4ab7E', symObjAddr: 0x30, symBinAddr: 0x2B1B34, symSize: 0x34 }
  - { offset: 0x1F0BA4, size: 0x8, addend: 0x0, symName: __ZN9byteorder9ByteOrder9write_f3217h5ad1ccde9cc82914E, symObjAddr: 0x64, symBinAddr: 0x2B1B68, symSize: 0x40 }
  - { offset: 0x1F0BE6, size: 0x8, addend: 0x0, symName: __ZN9byteorder9ByteOrder9write_i1617h1c4652f94178a320E, symObjAddr: 0xA4, symBinAddr: 0x2B1BA8, symSize: 0x2C }
  - { offset: 0x1F0C28, size: 0x8, addend: 0x0, symName: __ZN9byteorder9ByteOrder9write_i3217heebb143c2c571a39E, symObjAddr: 0xD0, symBinAddr: 0x2B1BD4, symSize: 0x2C }
  - { offset: 0x1F0CDD, size: 0x8, addend: 0x0, symName: __ZN3std5panic12catch_unwind17h033f2119ab6f6155E, symObjAddr: 0x0, symBinAddr: 0x2B1C00, symSize: 0xE8 }
  - { offset: 0x1F47CC, size: 0x8, addend: 0x0, symName: __ZN3std5panic12catch_unwind17h033f2119ab6f6155E, symObjAddr: 0x0, symBinAddr: 0x2B1C00, symSize: 0xE8 }
  - { offset: 0x1F487F, size: 0x8, addend: 0x0, symName: __ZN3std5panic12catch_unwind17h1b3a789c76c41c26E, symObjAddr: 0xE8, symBinAddr: 0x2B1CE8, symSize: 0xE8 }
  - { offset: 0x1F4932, size: 0x8, addend: 0x0, symName: __ZN3std5panic12catch_unwind17h24584c8285d393c2E, symObjAddr: 0x1D0, symBinAddr: 0x2B1DD0, symSize: 0xD0 }
  - { offset: 0x1F49E5, size: 0x8, addend: 0x0, symName: __ZN3std5panic12catch_unwind17h278c2f6f8be774f4E, symObjAddr: 0x2A0, symBinAddr: 0x2B1EA0, symSize: 0xD0 }
  - { offset: 0x1F4A98, size: 0x8, addend: 0x0, symName: __ZN3std5panic12catch_unwind17h2943c08f8e68c9dcE, symObjAddr: 0x370, symBinAddr: 0x2B1F70, symSize: 0xE8 }
  - { offset: 0x1F4B4B, size: 0x8, addend: 0x0, symName: __ZN3std5panic12catch_unwind17h33f7ff3b2bb3ff51E, symObjAddr: 0x458, symBinAddr: 0x2B2058, symSize: 0xD0 }
  - { offset: 0x1F4BFE, size: 0x8, addend: 0x0, symName: __ZN3std5panic12catch_unwind17h352d0f44b68d1d10E, symObjAddr: 0x528, symBinAddr: 0x2B2128, symSize: 0xE8 }
  - { offset: 0x1F4CB1, size: 0x8, addend: 0x0, symName: __ZN3std5panic12catch_unwind17h39ae6e42bbeb90deE, symObjAddr: 0x610, symBinAddr: 0x2B2210, symSize: 0xD0 }
  - { offset: 0x1F4D64, size: 0x8, addend: 0x0, symName: __ZN3std5panic12catch_unwind17h53f9b51b51cb7cdeE, symObjAddr: 0x6E0, symBinAddr: 0x2B22E0, symSize: 0xE8 }
  - { offset: 0x1F4E17, size: 0x8, addend: 0x0, symName: __ZN3std5panic12catch_unwind17h6575ee9e9eb6aed7E, symObjAddr: 0x7C8, symBinAddr: 0x2B23C8, symSize: 0xDC }
  - { offset: 0x1F4ECA, size: 0x8, addend: 0x0, symName: __ZN3std5panic12catch_unwind17h7ba1cbd31cb45d59E, symObjAddr: 0x8A4, symBinAddr: 0x2B24A4, symSize: 0xD0 }
  - { offset: 0x1F4F7D, size: 0x8, addend: 0x0, symName: __ZN3std5panic12catch_unwind17h8a62114df2f3cd23E, symObjAddr: 0x974, symBinAddr: 0x2B2574, symSize: 0xE8 }
  - { offset: 0x1F5030, size: 0x8, addend: 0x0, symName: __ZN3std5panic12catch_unwind17h8d895304100dac73E, symObjAddr: 0xA5C, symBinAddr: 0x2B265C, symSize: 0xE8 }
  - { offset: 0x1F50E3, size: 0x8, addend: 0x0, symName: __ZN3std5panic12catch_unwind17h97b4393eebef23b0E, symObjAddr: 0xB44, symBinAddr: 0x2B2744, symSize: 0xB0 }
  - { offset: 0x1F5175, size: 0x8, addend: 0x0, symName: __ZN3std5panic12catch_unwind17h9b9a8b397cd6cc6fE, symObjAddr: 0xBF4, symBinAddr: 0x2B27F4, symSize: 0xE8 }
  - { offset: 0x1F5228, size: 0x8, addend: 0x0, symName: __ZN3std5panic12catch_unwind17hbb722307c126d723E, symObjAddr: 0xCDC, symBinAddr: 0x2B28DC, symSize: 0xD0 }
  - { offset: 0x1F52DB, size: 0x8, addend: 0x0, symName: __ZN3std5panic12catch_unwind17hc96d75914ece4b17E, symObjAddr: 0xDAC, symBinAddr: 0x2B29AC, symSize: 0xD0 }
  - { offset: 0x1F538E, size: 0x8, addend: 0x0, symName: __ZN3std5panic12catch_unwind17hf2188bf477cf3c01E, symObjAddr: 0xE7C, symBinAddr: 0x2B2A7C, symSize: 0xD0 }
  - { offset: 0x1F6191, size: 0x8, addend: 0x0, symName: '__ZN4core5slice4sort6stable5merge19MergeState$LT$T$GT$10merge_down17h5f25c364550c6003E', symObjAddr: 0x0, symBinAddr: 0x2B2BA0, symSize: 0x1BC }
  - { offset: 0x1F6937, size: 0x8, addend: 0x0, symName: __ZN4core5slice4sort6stable5merge5merge17h9079431e2012938fE, symObjAddr: 0x9A0, symBinAddr: 0x2B3540, symSize: 0x230 }
  - { offset: 0x1F6BB3, size: 0x8, addend: 0x0, symName: __ZN4core5slice4sort6stable5merge5merge17hd822c1f829310d3cE, symObjAddr: 0xBD0, symBinAddr: 0x2B3770, symSize: 0x230 }
  - { offset: 0x1F6E2F, size: 0x8, addend: 0x0, symName: __ZN4core5slice4sort6stable5merge5merge17head374f178e80667E, symObjAddr: 0xE00, symBinAddr: 0x2B39A0, symSize: 0x24C }
  - { offset: 0x1F73CC, size: 0x8, addend: 0x0, symName: '__ZN4core5slice4sort6stable5merge19MergeState$LT$T$GT$10merge_down17h5f25c364550c6003E', symObjAddr: 0x0, symBinAddr: 0x2B2BA0, symSize: 0x1BC }
  - { offset: 0x1F75A0, size: 0x8, addend: 0x0, symName: '__ZN4core5slice4sort6stable5merge19MergeState$LT$T$GT$10merge_down17hbee075fc1d8908e2E', symObjAddr: 0x1BC, symBinAddr: 0x2B2D5C, symSize: 0x1BC }
  - { offset: 0x1F77A4, size: 0x8, addend: 0x0, symName: '__ZN4core5slice4sort6stable5merge19MergeState$LT$T$GT$10merge_down17hd74cffc536e73c99E', symObjAddr: 0x378, symBinAddr: 0x2B2F18, symSize: 0x1D0 }
  - { offset: 0x1F793A, size: 0x8, addend: 0x0, symName: '__ZN4core5slice4sort6stable5merge19MergeState$LT$T$GT$8merge_up17h5d03b4686911d163E', symObjAddr: 0x548, symBinAddr: 0x2B30E8, symSize: 0x180 }
  - { offset: 0x1F7A7C, size: 0x8, addend: 0x0, symName: '__ZN4core5slice4sort6stable5merge19MergeState$LT$T$GT$8merge_up17ha8e353aaa9679aecE', symObjAddr: 0x6C8, symBinAddr: 0x2B3268, symSize: 0x16C }
  - { offset: 0x1F7BBE, size: 0x8, addend: 0x0, symName: '__ZN4core5slice4sort6stable5merge19MergeState$LT$T$GT$8merge_up17hc2ac3e48b7de26e3E', symObjAddr: 0x834, symBinAddr: 0x2B33D4, symSize: 0x16C }
  - { offset: 0x1F7DEC, size: 0x8, addend: 0x0, symName: __ZN10rayon_core8registry12WorkerThread14take_local_job17h5470b3cd60e7e24aE, symObjAddr: 0x0, symBinAddr: 0x2B3BEC, symSize: 0xBC }
  - { offset: 0x1F8156, size: 0x8, addend: 0x0, symName: '__ZN73_$LT$rayon_core..registry..RegistryId$u20$as$u20$core..cmp..PartialEq$GT$2eq17hce297c72d82cd34dE', symObjAddr: 0x1B4, symBinAddr: 0x2B3DA0, symSize: 0x2C }
  - { offset: 0x1F8E91, size: 0x8, addend: 0x0, symName: __ZN10rayon_core8registry12WorkerThread14take_local_job17h5470b3cd60e7e24aE, symObjAddr: 0x0, symBinAddr: 0x2B3BEC, symSize: 0xBC }
  - { offset: 0x1F8EF0, size: 0x8, addend: 0x0, symName: __ZN10rayon_core8registry12WorkerThread4push17h4acf27357a891af5E, symObjAddr: 0xBC, symBinAddr: 0x2B3CA8, symSize: 0x74 }
  - { offset: 0x1F8F40, size: 0x8, addend: 0x0, symName: __ZN10rayon_core8registry12WorkerThread5index17h1ddf535a629e4b76E, symObjAddr: 0x130, symBinAddr: 0x2B3D1C, symSize: 0x18 }
  - { offset: 0x1F8F70, size: 0x8, addend: 0x0, symName: __ZN10rayon_core8registry12WorkerThread7current17h8750ff66207f5ba4E, symObjAddr: 0x148, symBinAddr: 0x2B3D34, symSize: 0x1C }
  - { offset: 0x1F8F83, size: 0x8, addend: 0x0, symName: __ZN10rayon_core8registry12WorkerThread7execute17h750b93b6c376a7b2E, symObjAddr: 0x164, symBinAddr: 0x2B3D50, symSize: 0x3C }
  - { offset: 0x1F8FC2, size: 0x8, addend: 0x0, symName: __ZN10rayon_core8registry12WorkerThread8registry17h7e55016c24e0e75dE, symObjAddr: 0x1A0, symBinAddr: 0x2B3D8C, symSize: 0x14 }
  - { offset: 0x1F9010, size: 0x8, addend: 0x0, symName: __ZN4core9core_arch10arm_shared4neon9generated10vrev64_u3217he4613e6367b42177E, symObjAddr: 0x0, symBinAddr: 0x2B3DCC, symSize: 0x10 }
  - { offset: 0x1F9036, size: 0x8, addend: 0x0, symName: __ZN4core9core_arch10arm_shared4neon9generated10vrev64_u3217he4613e6367b42177E, symObjAddr: 0x0, symBinAddr: 0x2B3DCC, symSize: 0x10 }
  - { offset: 0x1F9082, size: 0x8, addend: 0x0, symName: __ZN4core9core_arch10arm_shared4neon9generated11vmovq_n_f3217h593b5381541985daE, symObjAddr: 0x10, symBinAddr: 0x2B3DDC, symSize: 0x2C }
  - { offset: 0x1F9106, size: 0x8, addend: 0x0, symName: __ZN4core9core_arch10arm_shared4neon9generated11vrev64q_f3217hcb7c28edc9017d1fE, symObjAddr: 0x3C, symBinAddr: 0x2B3E08, symSize: 0x10 }
  - { offset: 0x1F9134, size: 0x8, addend: 0x0, symName: __ZN4core9core_arch10arm_shared4neon9generated12vcombine_f3217h3a18e8d5b66318b7E, symObjAddr: 0x4C, symBinAddr: 0x2B3E18, symSize: 0x1C }
  - { offset: 0x1F9171, size: 0x8, addend: 0x0, symName: __ZN4core9core_arch10arm_shared4neon9generated12vget_low_f3217h5d057f880ccb1197E, symObjAddr: 0x68, symBinAddr: 0x2B3E34, symSize: 0x14 }
  - { offset: 0x1F919F, size: 0x8, addend: 0x0, symName: __ZN4core9core_arch10arm_shared4neon9generated13vget_high_f3217h81fb1b23563612d2E, symObjAddr: 0x7C, symBinAddr: 0x2B3E48, symSize: 0x1C }
  - { offset: 0x1F91CD, size: 0x8, addend: 0x0, symName: __ZN4core9core_arch10arm_shared4neon9generated13vld1q_dup_u6417h62076aeac1c32223E, symObjAddr: 0x98, symBinAddr: 0x2B3E64, symSize: 0x3C }
  - { offset: 0x1F9233, size: 0x8, addend: 0x0, symName: __ZN4core9core_arch10arm_shared4neon9generated18vreinterpret_s8_u817he34d790fe2823af2E, symObjAddr: 0xD4, symBinAddr: 0x2B3EA0, symSize: 0xC }
  - { offset: 0x1F9261, size: 0x8, addend: 0x0, symName: __ZN4core9core_arch10arm_shared4neon9generated19vreinterpret_u64_u817hc715634b579e5ebdE, symObjAddr: 0xE0, symBinAddr: 0x2B3EAC, symSize: 0xC }
  - { offset: 0x1F928F, size: 0x8, addend: 0x0, symName: __ZN4core9core_arch10arm_shared4neon9generated20vreinterpret_f32_u3217h3f8e3901a229a404E, symObjAddr: 0xEC, symBinAddr: 0x2B3EB8, symSize: 0xC }
  - { offset: 0x1F92BD, size: 0x8, addend: 0x0, symName: __ZN4core9core_arch10arm_shared4neon9generated20vreinterpret_u32_f3217h1b0f38c355c6bd61E, symObjAddr: 0xF8, symBinAddr: 0x2B3EC4, symSize: 0xC }
  - { offset: 0x1F92EB, size: 0x8, addend: 0x0, symName: __ZN4core9core_arch10arm_shared4neon9generated21vreinterpretq_f32_u3217he4bd4cb42f8298e9E, symObjAddr: 0x104, symBinAddr: 0x2B3ED0, symSize: 0xC }
  - { offset: 0x1F9319, size: 0x8, addend: 0x0, symName: __ZN4core9core_arch10arm_shared4neon9generated21vreinterpretq_f32_u6417h36efaae8a0637d8eE, symObjAddr: 0x110, symBinAddr: 0x2B3EDC, symSize: 0xC }
  - { offset: 0x1F9347, size: 0x8, addend: 0x0, symName: __ZN4core9core_arch10arm_shared4neon9generated21vreinterpretq_u32_f3217h520017a4c3d740e3E, symObjAddr: 0x11C, symBinAddr: 0x2B3EE8, symSize: 0xC }
  - { offset: 0x1F9375, size: 0x8, addend: 0x0, symName: __ZN4core9core_arch10arm_shared4neon9generated21vreinterpretq_u64_f3217h7aabe4a7d4fb39adE, symObjAddr: 0x128, symBinAddr: 0x2B3EF4, symSize: 0xC }
  - { offset: 0x1F93A3, size: 0x8, addend: 0x0, symName: __ZN4core9core_arch10arm_shared4neon9generated7vceq_u817h53cc15a30e200911E, symObjAddr: 0x134, symBinAddr: 0x2B3F00, symSize: 0x14 }
  - { offset: 0x1F93E0, size: 0x8, addend: 0x0, symName: __ZN4core9core_arch10arm_shared4neon9generated7vorr_u817ha3a3e022cfa14e49E, symObjAddr: 0x148, symBinAddr: 0x2B3F14, symSize: 0x14 }
  - { offset: 0x1F941D, size: 0x8, addend: 0x0, symName: __ZN4core9core_arch10arm_shared4neon9generated8vadd_f3217h26bd13b0f7e9fdd3E, symObjAddr: 0x15C, symBinAddr: 0x2B3F28, symSize: 0x14 }
  - { offset: 0x1F945A, size: 0x8, addend: 0x0, symName: __ZN4core9core_arch10arm_shared4neon9generated8veor_u3217hb5b8fb08fc5cb237E, symObjAddr: 0x170, symBinAddr: 0x2B3F3C, symSize: 0x14 }
  - { offset: 0x1F9497, size: 0x8, addend: 0x0, symName: __ZN4core9core_arch10arm_shared4neon9generated8vneg_f3217h650c9336268d76f8E, symObjAddr: 0x184, symBinAddr: 0x2B3F50, symSize: 0x10 }
  - { offset: 0x1F94C5, size: 0x8, addend: 0x0, symName: __ZN4core9core_arch10arm_shared4neon9generated8vsub_f3217h9a2ab9484a523c0bE, symObjAddr: 0x194, symBinAddr: 0x2B3F60, symSize: 0x14 }
  - { offset: 0x1F9508, size: 0x8, addend: 0x0, symName: __ZN4core9core_arch10arm_shared4neon9generated9vaddq_f3217hf340ba8208826471E, symObjAddr: 0x1A8, symBinAddr: 0x2B3F74, symSize: 0x14 }
  - { offset: 0x1F9545, size: 0x8, addend: 0x0, symName: __ZN4core9core_arch10arm_shared4neon9generated9vdup_n_u817h9f0e93086b2b4348E, symObjAddr: 0x1BC, symBinAddr: 0x2B3F88, symSize: 0x2C }
  - { offset: 0x1F95AB, size: 0x8, addend: 0x0, symName: __ZN4core9core_arch10arm_shared4neon9generated9veorq_u3217hb3c8db935c735a6bE, symObjAddr: 0x1E8, symBinAddr: 0x2B3FB4, symSize: 0x14 }
  - { offset: 0x1F95E8, size: 0x8, addend: 0x0, symName: __ZN4core9core_arch10arm_shared4neon9generated9veorq_u6417h537901e8b5a36f18E, symObjAddr: 0x1FC, symBinAddr: 0x2B3FC8, symSize: 0x14 }
  - { offset: 0x1F9625, size: 0x8, addend: 0x0, symName: __ZN4core9core_arch10arm_shared4neon9generated9vfmaq_f3217he97648ee8c859cefE, symObjAddr: 0x210, symBinAddr: 0x2B3FDC, symSize: 0x18 }
  - { offset: 0x1F9671, size: 0x8, addend: 0x0, symName: __ZN4core9core_arch10arm_shared4neon9generated9vmulq_f3217hdb39d72b8ebc5348E, symObjAddr: 0x228, symBinAddr: 0x2B3FF4, symSize: 0x14 }
  - { offset: 0x1F96AE, size: 0x8, addend: 0x0, symName: __ZN4core9core_arch10arm_shared4neon9generated9vnegq_f3217h971445c27c7e0357E, symObjAddr: 0x23C, symBinAddr: 0x2B4008, symSize: 0x10 }
  - { offset: 0x1F96DC, size: 0x8, addend: 0x0, symName: __ZN4core9core_arch10arm_shared4neon9generated9vsubq_f3217hd9c3377418dfa388E, symObjAddr: 0x24C, symBinAddr: 0x2B4018, symSize: 0x14 }
  - { offset: 0x1F99C0, size: 0x8, addend: 0x0, symName: '__ZN44_$LT$i64$u20$as$u20$num_integer..Integer$GT$3gcd17hfa579b4ba56924a2E', symObjAddr: 0x0, symBinAddr: 0x2B402C, symSize: 0x31C }
  - { offset: 0x1F9A5E, size: 0x8, addend: 0x0, symName: '__ZN44_$LT$i64$u20$as$u20$num_integer..Integer$GT$3gcd17hfa579b4ba56924a2E', symObjAddr: 0x0, symBinAddr: 0x2B402C, symSize: 0x31C }
  - { offset: 0x1F9C13, size: 0x8, addend: 0x0, symName: '__ZN46_$LT$usize$u20$as$u20$num_integer..Integer$GT$3gcd17h20ddb8ef35a1697cE', symObjAddr: 0x31C, symBinAddr: 0x2B4348, symSize: 0x284 }
  - { offset: 0x1F9D6E, size: 0x8, addend: 0x0, symName: '__ZN105_$LT$std..ffi..os_str..OsString$u20$as$u20$core..ops..index..Index$LT$core..ops..range..RangeFull$GT$$GT$5index17he31f57e954bf82b5E', symObjAddr: 0x0, symBinAddr: 0x2B45CC, symSize: 0x70 }
  - { offset: 0x1FA203, size: 0x8, addend: 0x0, symName: '__ZN105_$LT$std..ffi..os_str..OsString$u20$as$u20$core..ops..index..Index$LT$core..ops..range..RangeFull$GT$$GT$5index17he31f57e954bf82b5E', symObjAddr: 0x0, symBinAddr: 0x2B45CC, symSize: 0x70 }
  - { offset: 0x1FA33E, size: 0x8, addend: 0x0, symName: '__ZN3std3ffi6os_str85_$LT$impl$u20$core..convert..AsRef$LT$std..ffi..os_str..OsStr$GT$$u20$for$u20$str$GT$6as_ref17h9ae8713591035a77E', symObjAddr: 0x94, symBinAddr: 0x2B4660, symSize: 0x18 }
  - { offset: 0x1FA42A, size: 0x8, addend: 0x0, symName: __ZN3std3ffi6os_str5OsStr15to_string_lossy17hd695021c23e46b5aE, symObjAddr: 0x70, symBinAddr: 0x2B463C, symSize: 0x24 }
  - { offset: 0x1FA495, size: 0x8, addend: 0x0, symName: __ZN4core5slice4sort6shared9smallsort11insert_tail17h15ecc6a09336d81dE, symObjAddr: 0x0, symBinAddr: 0x2B4678, symSize: 0x18C }
  - { offset: 0x1FB6E3, size: 0x8, addend: 0x0, symName: __ZN4core5slice4sort6shared9smallsort11insert_tail17h15ecc6a09336d81dE, symObjAddr: 0x0, symBinAddr: 0x2B4678, symSize: 0x18C }
  - { offset: 0x1FB839, size: 0x8, addend: 0x0, symName: __ZN4core5slice4sort6shared9smallsort11insert_tail17ha78a3b56ed054870E, symObjAddr: 0x18C, symBinAddr: 0x2B4804, symSize: 0x18C }
  - { offset: 0x1FB98F, size: 0x8, addend: 0x0, symName: __ZN4core5slice4sort6shared9smallsort11insert_tail17he7249559547244bfE, symObjAddr: 0x318, symBinAddr: 0x2B4990, symSize: 0x1B4 }
  - { offset: 0x1FBAE7, size: 0x8, addend: 0x0, symName: __ZN4core5slice4sort6shared9smallsort12sort4_stable17h290c85bc916c090aE, symObjAddr: 0x4CC, symBinAddr: 0x2B4B44, symSize: 0x71C }
  - { offset: 0x1FCDAC, size: 0x8, addend: 0x0, symName: __ZN4core5slice4sort6shared9smallsort12sort4_stable17hb361862f304de46cE, symObjAddr: 0xBE8, symBinAddr: 0x2B5260, symSize: 0x768 }
  - { offset: 0x1FE071, size: 0x8, addend: 0x0, symName: __ZN4core5slice4sort6shared9smallsort12sort4_stable17hbb445be3df0c5e9cE, symObjAddr: 0x1350, symBinAddr: 0x2B59C8, symSize: 0x71C }
  - { offset: 0x1FF336, size: 0x8, addend: 0x0, symName: __ZN4core5slice4sort6shared9smallsort12sort8_stable17h976860d4e89e8004E, symObjAddr: 0x1A6C, symBinAddr: 0x2B60E4, symSize: 0x94 }
  - { offset: 0x1FF401, size: 0x8, addend: 0x0, symName: __ZN4core5slice4sort6shared9smallsort12sort8_stable17hd9f290d539b9363dE, symObjAddr: 0x1B00, symBinAddr: 0x2B6178, symSize: 0x94 }
  - { offset: 0x1FF5B0, size: 0x8, addend: 0x0, symName: __ZN4core5slice4sort6shared9smallsort19bidirectional_merge17h06f3472b11374cacE, symObjAddr: 0x1B94, symBinAddr: 0x2B620C, symSize: 0x4DC }
  - { offset: 0x1FFD37, size: 0x8, addend: 0x0, symName: __ZN4core5slice4sort6shared9smallsort19bidirectional_merge17h4b49655df20cb654E, symObjAddr: 0x2070, symBinAddr: 0x2B66E8, symSize: 0x534 }
  - { offset: 0x2004BE, size: 0x8, addend: 0x0, symName: __ZN4core5slice4sort6shared9smallsort19bidirectional_merge17h4de9d3f9d2bcebf2E, symObjAddr: 0x25A4, symBinAddr: 0x2B6C1C, symSize: 0x4DC }
  - { offset: 0x200B61, size: 0x8, addend: 0x0, symName: __ZN4core5slice4sort6shared9smallsort25insertion_sort_shift_left17h02283bc1342d9dd1E, symObjAddr: 0x2A80, symBinAddr: 0x2B70F8, symSize: 0xC0 }
  - { offset: 0x200C9B, size: 0x8, addend: 0x0, symName: __ZN4core5slice4sort6shared9smallsort25insertion_sort_shift_left17h16f218d981e847afE, symObjAddr: 0x2B40, symBinAddr: 0x2B71B8, symSize: 0xCC }
  - { offset: 0x200DD5, size: 0x8, addend: 0x0, symName: __ZN4core5slice4sort6shared9smallsort25insertion_sort_shift_left17hdd4cb8d8987a6c84E, symObjAddr: 0x2C0C, symBinAddr: 0x2B7284, symSize: 0xC0 }
  - { offset: 0x200F0F, size: 0x8, addend: 0x0, symName: __ZN4core5slice4sort6shared9smallsort31small_sort_general_with_scratch17hcc7c62ecb82fc4a8E, symObjAddr: 0x2CCC, symBinAddr: 0x2B7344, symSize: 0x4DC }
  - { offset: 0x201332, size: 0x8, addend: 0x0, symName: __ZN4core5slice4sort6shared9smallsort31small_sort_general_with_scratch17hd68e20b9b576e3beE, symObjAddr: 0x31A8, symBinAddr: 0x2B7820, symSize: 0x500 }
  - { offset: 0x2017F1, size: 0x8, addend: 0x0, symName: __ZN4core5slice4sort6shared9smallsort31small_sort_general_with_scratch17hff5c1e3a060cea14E, symObjAddr: 0x36A8, symBinAddr: 0x2B7D20, symSize: 0x500 }
  - { offset: 0x202E3F, size: 0x8, addend: 0x0, symName: '__ZN106_$LT$core..ops..range..Range$LT$usize$GT$$u20$as$u20$core..slice..index..SliceIndex$LT$$u5b$T$u5d$$GT$$GT$17get_unchecked_mut18precondition_check17ha5500cf83f69ba16E', symObjAddr: 0x0, symBinAddr: 0x2B8220, symSize: 0x80 }
  - { offset: 0x202E65, size: 0x8, addend: 0x0, symName: '__ZN106_$LT$core..ops..range..Range$LT$usize$GT$$u20$as$u20$core..slice..index..SliceIndex$LT$$u5b$T$u5d$$GT$$GT$17get_unchecked_mut18precondition_check17ha5500cf83f69ba16E', symObjAddr: 0x0, symBinAddr: 0x2B8220, symSize: 0x80 }
  - { offset: 0x202ED2, size: 0x8, addend: 0x0, symName: '__ZN75_$LT$usize$u20$as$u20$core..slice..index..SliceIndex$LT$$u5b$T$u5d$$GT$$GT$13get_unchecked18precondition_check17h6f9d6aa6c3adf773E', symObjAddr: 0x80, symBinAddr: 0x2B82A0, symSize: 0x60 }
  - { offset: 0x202F2B, size: 0x8, addend: 0x0, symName: '__ZN75_$LT$usize$u20$as$u20$core..slice..index..SliceIndex$LT$$u5b$T$u5d$$GT$$GT$17get_unchecked_mut18precondition_check17h6d259711d59eee0eE', symObjAddr: 0xE0, symBinAddr: 0x2B8300, symSize: 0x60 }
  - { offset: 0x202FD6, size: 0x8, addend: 0x0, symName: __ZN9jvol_rust2io10read_nifti17h00f24788971de942E, symObjAddr: 0x0, symBinAddr: 0x2B8360, symSize: 0xC1C }
  - { offset: 0x2055C7, size: 0x8, addend: 0x0, symName: __ZN9jvol_rust2io10read_nifti17h00f24788971de942E, symObjAddr: 0x0, symBinAddr: 0x2B8360, symSize: 0xC1C }
  - { offset: 0x20584C, size: 0x8, addend: 0x0, symName: __ZN9jvol_rust2io11write_nifti17he4c41b1223a08355E, symObjAddr: 0xC1C, symBinAddr: 0x2B8F7C, symSize: 0x11F0 }
  - { offset: 0x205C9B, size: 0x8, addend: 0x0, symName: __ZN9jvol_rust2io20decode_jvol_to_nifti17h277ed0bc5f5ae12dE, symObjAddr: 0x1E0C, symBinAddr: 0x2BA16C, symSize: 0x264 }
  - { offset: 0x205D72, size: 0x8, addend: 0x0, symName: __ZN9jvol_rust2io20encode_nifti_to_jvol17h446d87243de78c0dE, symObjAddr: 0x2070, symBinAddr: 0x2BA3D0, symSize: 0x58C }
  - { offset: 0x205ECC, size: 0x8, addend: 0x0, symName: __ZN9jvol_rust2io21dtype_from_nifti_code17hdc20c7bc2a6e5f0aE, symObjAddr: 0x25FC, symBinAddr: 0x2BA95C, symSize: 0xDC }
  - { offset: 0x205EF8, size: 0x8, addend: 0x0, symName: __ZN9jvol_rust2io9open_jvol17h0cb08b4b117ac925E, symObjAddr: 0x26D8, symBinAddr: 0x2BAA38, symSize: 0x2BC }
  - { offset: 0x205FEA, size: 0x8, addend: 0x0, symName: __ZN9jvol_rust2io9save_jvol17hccc19db09a19445aE, symObjAddr: 0x2994, symBinAddr: 0x2BACF4, symSize: 0x3C4 }
  - { offset: 0x20687A, size: 0x8, addend: 0x0, symName: '__ZN115_$LT$core..panic..unwind_safe..AssertUnwindSafe$LT$F$GT$$u20$as$u20$core..ops..function..FnOnce$LT$$LP$$RP$$GT$$GT$9call_once17h0273c77d4c174febE', symObjAddr: 0x0, symBinAddr: 0x2BB0B8, symSize: 0x40 }
  - { offset: 0x20689B, size: 0x8, addend: 0x0, symName: '__ZN115_$LT$core..panic..unwind_safe..AssertUnwindSafe$LT$F$GT$$u20$as$u20$core..ops..function..FnOnce$LT$$LP$$RP$$GT$$GT$9call_once17h0273c77d4c174febE', symObjAddr: 0x0, symBinAddr: 0x2BB0B8, symSize: 0x40 }
  - { offset: 0x2068F7, size: 0x8, addend: 0x0, symName: '__ZN115_$LT$core..panic..unwind_safe..AssertUnwindSafe$LT$F$GT$$u20$as$u20$core..ops..function..FnOnce$LT$$LP$$RP$$GT$$GT$9call_once17h0f00bb89832a0553E', symObjAddr: 0x40, symBinAddr: 0x2BB0F8, symSize: 0x40 }
  - { offset: 0x206953, size: 0x8, addend: 0x0, symName: '__ZN115_$LT$core..panic..unwind_safe..AssertUnwindSafe$LT$F$GT$$u20$as$u20$core..ops..function..FnOnce$LT$$LP$$RP$$GT$$GT$9call_once17h45db17a55e1508e7E', symObjAddr: 0x80, symBinAddr: 0x2BB138, symSize: 0x40 }
  - { offset: 0x2069AF, size: 0x8, addend: 0x0, symName: '__ZN115_$LT$core..panic..unwind_safe..AssertUnwindSafe$LT$F$GT$$u20$as$u20$core..ops..function..FnOnce$LT$$LP$$RP$$GT$$GT$9call_once17h67a9eda1ea305b48E', symObjAddr: 0xC0, symBinAddr: 0x2BB178, symSize: 0x40 }
  - { offset: 0x206A0B, size: 0x8, addend: 0x0, symName: '__ZN115_$LT$core..panic..unwind_safe..AssertUnwindSafe$LT$F$GT$$u20$as$u20$core..ops..function..FnOnce$LT$$LP$$RP$$GT$$GT$9call_once17h67cb037cea7088e1E', symObjAddr: 0x100, symBinAddr: 0x2BB1B8, symSize: 0x40 }
  - { offset: 0x206A67, size: 0x8, addend: 0x0, symName: '__ZN115_$LT$core..panic..unwind_safe..AssertUnwindSafe$LT$F$GT$$u20$as$u20$core..ops..function..FnOnce$LT$$LP$$RP$$GT$$GT$9call_once17h80fe358d3d4d2b22E', symObjAddr: 0x140, symBinAddr: 0x2BB1F8, symSize: 0x40 }
  - { offset: 0x206AC3, size: 0x8, addend: 0x0, symName: '__ZN115_$LT$core..panic..unwind_safe..AssertUnwindSafe$LT$F$GT$$u20$as$u20$core..ops..function..FnOnce$LT$$LP$$RP$$GT$$GT$9call_once17h87941b776f10fbb4E', symObjAddr: 0x180, symBinAddr: 0x2BB238, symSize: 0x40 }
  - { offset: 0x206B1F, size: 0x8, addend: 0x0, symName: '__ZN115_$LT$core..panic..unwind_safe..AssertUnwindSafe$LT$F$GT$$u20$as$u20$core..ops..function..FnOnce$LT$$LP$$RP$$GT$$GT$9call_once17h8d410c59e8ccb246E', symObjAddr: 0x1C0, symBinAddr: 0x2BB278, symSize: 0x40 }
  - { offset: 0x206B7B, size: 0x8, addend: 0x0, symName: '__ZN115_$LT$core..panic..unwind_safe..AssertUnwindSafe$LT$F$GT$$u20$as$u20$core..ops..function..FnOnce$LT$$LP$$RP$$GT$$GT$9call_once17h9995132b2d88cd81E', symObjAddr: 0x200, symBinAddr: 0x2BB2B8, symSize: 0x40 }
  - { offset: 0x206BD7, size: 0x8, addend: 0x0, symName: '__ZN115_$LT$core..panic..unwind_safe..AssertUnwindSafe$LT$F$GT$$u20$as$u20$core..ops..function..FnOnce$LT$$LP$$RP$$GT$$GT$9call_once17h9cdac1a7510bae0fE', symObjAddr: 0x240, symBinAddr: 0x2BB2F8, symSize: 0x40 }
  - { offset: 0x206C33, size: 0x8, addend: 0x0, symName: '__ZN115_$LT$core..panic..unwind_safe..AssertUnwindSafe$LT$F$GT$$u20$as$u20$core..ops..function..FnOnce$LT$$LP$$RP$$GT$$GT$9call_once17ha6db87bce64b9e70E', symObjAddr: 0x280, symBinAddr: 0x2BB338, symSize: 0x40 }
  - { offset: 0x206C8F, size: 0x8, addend: 0x0, symName: '__ZN115_$LT$core..panic..unwind_safe..AssertUnwindSafe$LT$F$GT$$u20$as$u20$core..ops..function..FnOnce$LT$$LP$$RP$$GT$$GT$9call_once17hb70f138beb3cd32cE', symObjAddr: 0x2C0, symBinAddr: 0x2BB378, symSize: 0x40 }
  - { offset: 0x206CEB, size: 0x8, addend: 0x0, symName: '__ZN115_$LT$core..panic..unwind_safe..AssertUnwindSafe$LT$F$GT$$u20$as$u20$core..ops..function..FnOnce$LT$$LP$$RP$$GT$$GT$9call_once17hce0ac85858ac9716E', symObjAddr: 0x300, symBinAddr: 0x2BB3B8, symSize: 0x40 }
  - { offset: 0x206D47, size: 0x8, addend: 0x0, symName: '__ZN115_$LT$core..panic..unwind_safe..AssertUnwindSafe$LT$F$GT$$u20$as$u20$core..ops..function..FnOnce$LT$$LP$$RP$$GT$$GT$9call_once17hd9a18b40b683b57cE', symObjAddr: 0x340, symBinAddr: 0x2BB3F8, symSize: 0x40 }
  - { offset: 0x206DA3, size: 0x8, addend: 0x0, symName: '__ZN115_$LT$core..panic..unwind_safe..AssertUnwindSafe$LT$F$GT$$u20$as$u20$core..ops..function..FnOnce$LT$$LP$$RP$$GT$$GT$9call_once17hdc46e1e250034067E', symObjAddr: 0x380, symBinAddr: 0x2BB438, symSize: 0x40 }
  - { offset: 0x206DFF, size: 0x8, addend: 0x0, symName: '__ZN115_$LT$core..panic..unwind_safe..AssertUnwindSafe$LT$F$GT$$u20$as$u20$core..ops..function..FnOnce$LT$$LP$$RP$$GT$$GT$9call_once17hec079d76906c51c2E', symObjAddr: 0x3C0, symBinAddr: 0x2BB478, symSize: 0x40 }
  - { offset: 0x20833D, size: 0x8, addend: 0x0, symName: __ZN4core9core_arch10arm_shared4neon9generated14vld1q_lane_u6417hd6a6565bbf1f114cE, symObjAddr: 0x0, symBinAddr: 0x2BB4B8, symSize: 0x20 }
  - { offset: 0x208371, size: 0x8, addend: 0x0, symName: __ZN4core9core_arch10arm_shared4neon9generated14vld1q_lane_u6417hd6a6565bbf1f114cE, symObjAddr: 0x0, symBinAddr: 0x2BB4B8, symSize: 0x20 }
  - { offset: 0x2083D1, size: 0x8, addend: 0x0, symName: '__ZN67_$LT$core..array..TryFromSliceError$u20$as$u20$core..fmt..Debug$GT$3fmt17h34cb44a2e8df4270E', symObjAddr: 0x20, symBinAddr: 0x2BB4D8, symSize: 0x54 }
  - { offset: 0x20855B, size: 0x8, addend: 0x0, symName: '__ZN7ndarray11arraytraits94_$LT$impl$u20$core..ops..index..Index$LT$I$GT$$u20$for$u20$ndarray..ArrayBase$LT$S$C$D$GT$$GT$5index28_$u7b$$u7b$closure$u7d$$u7d$17h85a5051278e2f930E', symObjAddr: 0x74, symBinAddr: 0x2BB52C, symSize: 0x10 }
  - { offset: 0x20859E, size: 0x8, addend: 0x0, symName: '__ZN7ndarray11arraytraits94_$LT$impl$u20$core..ops..index..Index$LT$I$GT$$u20$for$u20$ndarray..ArrayBase$LT$S$C$D$GT$$GT$5index28_$u7b$$u7b$closure$u7d$$u7d$17hd5b5bcdef9ebcebdE', symObjAddr: 0x84, symBinAddr: 0x2BB53C, symSize: 0x10 }
  - { offset: 0x2085FB, size: 0x8, addend: 0x0, symName: '__ZN7ndarray11arraytraits97_$LT$impl$u20$core..ops..index..IndexMut$LT$I$GT$$u20$for$u20$ndarray..ArrayBase$LT$S$C$D$GT$$GT$9index_mut28_$u7b$$u7b$closure$u7d$$u7d$17h0792a86f653ad518E', symObjAddr: 0x94, symBinAddr: 0x2BB54C, symSize: 0x10 }
  - { offset: 0x2087EA, size: 0x8, addend: 0x0, symName: '__ZN70_$LT$safe_transmute..error..GuardError$u20$as$u20$core..fmt..Debug$GT$3fmt17h7299af53149909bbE', symObjAddr: 0x0, symBinAddr: 0x2BB55C, symSize: 0xB0 }
  - { offset: 0x20883F, size: 0x8, addend: 0x0, symName: '__ZN70_$LT$safe_transmute..error..GuardError$u20$as$u20$core..fmt..Debug$GT$3fmt17h7299af53149909bbE', symObjAddr: 0x0, symBinAddr: 0x2BB55C, symSize: 0xB0 }
  - { offset: 0x20887F, size: 0x8, addend: 0x0, symName: '__ZN71_$LT$safe_transmute..error..ErrorReason$u20$as$u20$core..fmt..Debug$GT$3fmt17h176fd71c7d0e7997E', symObjAddr: 0xB0, symBinAddr: 0x2BB60C, symSize: 0xA4 }
  - { offset: 0x208A6D, size: 0x8, addend: 0x0, symName: __ZN6flate22gz7bufread6finish17he1b4f7cc333664e5E, symObjAddr: 0x0, symBinAddr: 0x2BB6B0, symSize: 0x58 }
  - { offset: 0x208A89, size: 0x8, addend: 0x0, symName: __ZN6flate22gz7bufread6finish17he1b4f7cc333664e5E, symObjAddr: 0x0, symBinAddr: 0x2BB6B0, symSize: 0x58 }
  - { offset: 0x208B40, size: 0x8, addend: 0x0, symName: __ZN4pyo35impl_10trampoline10trampoline17h275603767fd9c116E, symObjAddr: 0x0, symBinAddr: 0x2BB708, symSize: 0x160 }
  - { offset: 0x209FBF, size: 0x8, addend: 0x0, symName: __ZN4pyo35impl_10trampoline10trampoline17h275603767fd9c116E, symObjAddr: 0x0, symBinAddr: 0x2BB708, symSize: 0x160 }
  - { offset: 0x20A063, size: 0x8, addend: 0x0, symName: __ZN4pyo35impl_10trampoline10trampoline17h86f59406269b4c9dE, symObjAddr: 0x160, symBinAddr: 0x2BB868, symSize: 0x14C }
  - { offset: 0x20A10A, size: 0x8, addend: 0x0, symName: '__ZN4pyo35impl_10trampoline10trampoline28_$u7b$$u7b$closure$u7d$$u7d$17h608e3805f647bd10E', symObjAddr: 0x2AC, symBinAddr: 0x2BB9B4, symSize: 0x40 }
  - { offset: 0x20A159, size: 0x8, addend: 0x0, symName: '__ZN4pyo35impl_10trampoline10trampoline28_$u7b$$u7b$closure$u7d$$u7d$17he73119ddf1bc978cE', symObjAddr: 0x2EC, symBinAddr: 0x2BB9F4, symSize: 0x24 }
  - { offset: 0x20A1AD, size: 0x8, addend: 0x0, symName: '__ZN4pyo35impl_10trampoline11module_init28_$u7b$$u7b$closure$u7d$$u7d$17h66a329533f8b853eE', symObjAddr: 0x310, symBinAddr: 0x2BBA18, symSize: 0x40 }
  - { offset: 0x20A1F9, size: 0x8, addend: 0x0, symName: '__ZN4pyo35impl_10trampoline11module_init28_$u7b$$u7b$closure$u7d$$u7d$28_$u7b$$u7b$closure$u7d$$u7d$17h55a0120c7bdc8f67E', symObjAddr: 0x350, symBinAddr: 0x2BBA58, symSize: 0x24 }
  - { offset: 0x20A250, size: 0x8, addend: 0x0, symName: '__ZN4pyo35impl_10trampoline22fastcall_with_keywords28_$u7b$$u7b$closure$u7d$$u7d$17h544d10b4bc5aca40E', symObjAddr: 0x374, symBinAddr: 0x2BBA7C, symSize: 0x48 }
  - { offset: 0x20AC82, size: 0x8, addend: 0x0, symName: '__ZN4core3ops8function5impls79_$LT$impl$u20$core..ops..function..FnMut$LT$A$GT$$u20$for$u20$$RF$mut$u20$F$GT$8call_mut17hff93f42900ac4157E', symObjAddr: 0x0, symBinAddr: 0x2BBAC4, symSize: 0x30 }
  - { offset: 0x20ACE4, size: 0x8, addend: 0x0, symName: __ZN7ndarray9dimension11is_layout_c17h4b610607a7bee4abE, symObjAddr: 0x30, symBinAddr: 0x2BBAF4, symSize: 0x27C }
  - { offset: 0x20ADC7, size: 0x8, addend: 0x0, symName: __ZN7ndarray9dimension11is_layout_c17h5c3c860fc7440b93E, symObjAddr: 0x2AC, symBinAddr: 0x2BBD70, symSize: 0x27C }
  - { offset: 0x20AEAA, size: 0x8, addend: 0x0, symName: __ZN7ndarray9dimension11is_layout_c17hb620177e243c6a1eE, symObjAddr: 0x528, symBinAddr: 0x2BBFEC, symSize: 0x27C }
  - { offset: 0x20AF8D, size: 0x8, addend: 0x0, symName: __ZN7ndarray9dimension11is_layout_f17h3ce7bcd134403388E, symObjAddr: 0x7A4, symBinAddr: 0x2BC268, symSize: 0x26C }
  - { offset: 0x20B070, size: 0x8, addend: 0x0, symName: __ZN7ndarray9dimension11is_layout_f17h6d5cd8d422280ab8E, symObjAddr: 0xA10, symBinAddr: 0x2BC4D4, symSize: 0x26C }
  - { offset: 0x20B153, size: 0x8, addend: 0x0, symName: __ZN7ndarray9dimension15can_index_slice17h0734c13c7e2c6d26E, symObjAddr: 0xC7C, symBinAddr: 0x2BC740, symSize: 0xB0 }
  - { offset: 0x20B1E7, size: 0x8, addend: 0x0, symName: __ZN7ndarray9dimension15can_index_slice17h139e46e2c88b4ac8E, symObjAddr: 0xD2C, symBinAddr: 0x2BC7F0, symSize: 0xB0 }
  - { offset: 0x20B27B, size: 0x8, addend: 0x0, symName: __ZN7ndarray9dimension15can_index_slice17h753df0cf907f9d28E, symObjAddr: 0xDDC, symBinAddr: 0x2BC8A0, symSize: 0xB0 }
  - { offset: 0x20B336, size: 0x8, addend: 0x0, symName: __ZN7ndarray9dimension16do_collapse_axis17hc00793f2e3486b8cE, symObjAddr: 0xE8C, symBinAddr: 0x2BC950, symSize: 0x1CC }
  - { offset: 0x20B42A, size: 0x8, addend: 0x0, symName: __ZN7ndarray9dimension18dim_stride_overlap17h902f6fec29e43e93E, symObjAddr: 0x1058, symBinAddr: 0x2BCB1C, symSize: 0x274 }
  - { offset: 0x20B609, size: 0x8, addend: 0x0, symName: __ZN7ndarray9dimension18dim_stride_overlap17haec6d72a8f3270edE, symObjAddr: 0x12CC, symBinAddr: 0x2BCD90, symSize: 0x2D8 }
  - { offset: 0x20B756, size: 0x8, addend: 0x0, symName: __ZN7ndarray9dimension18dim_stride_overlap17hff46d02dca433d3bE, symObjAddr: 0x15A4, symBinAddr: 0x2BD068, symSize: 0x2D8 }
  - { offset: 0x20B8A3, size: 0x8, addend: 0x0, symName: __ZN7ndarray9dimension20can_index_slice_impl17h279658e35b1da791E, symObjAddr: 0x187C, symBinAddr: 0x2BD340, symSize: 0x100 }
  - { offset: 0x20B91B, size: 0x8, addend: 0x0, symName: __ZN7ndarray9dimension20can_index_slice_impl17h4e414017a4559a43E, symObjAddr: 0x197C, symBinAddr: 0x2BD440, symSize: 0x100 }
  - { offset: 0x20B993, size: 0x8, addend: 0x0, symName: __ZN7ndarray9dimension20can_index_slice_impl17ha9d970fd0bbb810fE, symObjAddr: 0x1A7C, symBinAddr: 0x2BD540, symSize: 0x100 }
  - { offset: 0x20BA10, size: 0x8, addend: 0x0, symName: '__ZN7ndarray9dimension20can_index_slice_impl28_$u7b$$u7b$closure$u7d$$u7d$17h952cef42285c2263E', symObjAddr: 0x1B7C, symBinAddr: 0x2BD640, symSize: 0x28 }
  - { offset: 0x20BA6C, size: 0x8, addend: 0x0, symName: '__ZN7ndarray9dimension20can_index_slice_impl28_$u7b$$u7b$closure$u7d$$u7d$17hedb7800eac732137E', symObjAddr: 0x1BA4, symBinAddr: 0x2BD668, symSize: 0x28 }
  - { offset: 0x20BAC8, size: 0x8, addend: 0x0, symName: '__ZN7ndarray9dimension20can_index_slice_impl28_$u7b$$u7b$closure$u7d$$u7d$17hfe62cd3bd5114775E', symObjAddr: 0x1BCC, symBinAddr: 0x2BD690, symSize: 0x28 }
  - { offset: 0x20BB3A, size: 0x8, addend: 0x0, symName: __ZN7ndarray9dimension20strides_non_negative17h83714820e4ded229E, symObjAddr: 0x1BF4, symBinAddr: 0x2BD6B8, symSize: 0x84 }
  - { offset: 0x20BB9D, size: 0x8, addend: 0x0, symName: __ZN7ndarray9dimension20strides_non_negative17hb7a771748a02ca7eE, symObjAddr: 0x1C78, symBinAddr: 0x2BD73C, symSize: 0x84 }
  - { offset: 0x20BC00, size: 0x8, addend: 0x0, symName: __ZN7ndarray9dimension21size_of_shape_checked17h6cf58447e2759a44E, symObjAddr: 0x1CFC, symBinAddr: 0x2BD7C0, symSize: 0xDC }
  - { offset: 0x20BC6F, size: 0x8, addend: 0x0, symName: __ZN7ndarray9dimension21size_of_shape_checked17ha543655bcc48627fE, symObjAddr: 0x1DD8, symBinAddr: 0x2BD89C, symSize: 0xDC }
  - { offset: 0x20BCDE, size: 0x8, addend: 0x0, symName: __ZN7ndarray9dimension21size_of_shape_checked17hb858a8ab0fe47e43E, symObjAddr: 0x1EB4, symBinAddr: 0x2BD978, symSize: 0xDC }
  - { offset: 0x20BD4D, size: 0x8, addend: 0x0, symName: __ZN7ndarray9dimension21size_of_shape_checked17hf3026bf2ecaae030E, symObjAddr: 0x1F90, symBinAddr: 0x2BDA54, symSize: 0xDC }
  - { offset: 0x20BDC1, size: 0x8, addend: 0x0, symName: '__ZN7ndarray9dimension21size_of_shape_checked28_$u7b$$u7b$closure$u7d$$u7d$17h05b54966e57ef25cE', symObjAddr: 0x206C, symBinAddr: 0x2BDB30, symSize: 0x2C }
  - { offset: 0x20BE19, size: 0x8, addend: 0x0, symName: '__ZN7ndarray9dimension21size_of_shape_checked28_$u7b$$u7b$closure$u7d$$u7d$17h15fc1c235014415bE', symObjAddr: 0x2098, symBinAddr: 0x2BDB5C, symSize: 0x3C }
  - { offset: 0x20BE7F, size: 0x8, addend: 0x0, symName: '__ZN7ndarray9dimension21size_of_shape_checked28_$u7b$$u7b$closure$u7d$$u7d$17h35ee113a99b2c756E', symObjAddr: 0x20D4, symBinAddr: 0x2BDB98, symSize: 0x2C }
  - { offset: 0x20BED7, size: 0x8, addend: 0x0, symName: '__ZN7ndarray9dimension21size_of_shape_checked28_$u7b$$u7b$closure$u7d$$u7d$17h4f127cd4e3b7501fE', symObjAddr: 0x2100, symBinAddr: 0x2BDBC4, symSize: 0x2C }
  - { offset: 0x20BF2F, size: 0x8, addend: 0x0, symName: '__ZN7ndarray9dimension21size_of_shape_checked28_$u7b$$u7b$closure$u7d$$u7d$17h794abf033394c600E', symObjAddr: 0x212C, symBinAddr: 0x2BDBF0, symSize: 0x18 }
  - { offset: 0x20BF60, size: 0x8, addend: 0x0, symName: '__ZN7ndarray9dimension21size_of_shape_checked28_$u7b$$u7b$closure$u7d$$u7d$17h7e96c832183bbeb9E', symObjAddr: 0x2144, symBinAddr: 0x2BDC08, symSize: 0x18 }
  - { offset: 0x20BF91, size: 0x8, addend: 0x0, symName: '__ZN7ndarray9dimension21size_of_shape_checked28_$u7b$$u7b$closure$u7d$$u7d$17hc12cdf415ff43619E', symObjAddr: 0x215C, symBinAddr: 0x2BDC20, symSize: 0x18 }
  - { offset: 0x20BFC2, size: 0x8, addend: 0x0, symName: '__ZN7ndarray9dimension21size_of_shape_checked28_$u7b$$u7b$closure$u7d$$u7d$17hc54508ba958dc8a6E', symObjAddr: 0x2174, symBinAddr: 0x2BDC38, symSize: 0x3C }
  - { offset: 0x20C028, size: 0x8, addend: 0x0, symName: '__ZN7ndarray9dimension21size_of_shape_checked28_$u7b$$u7b$closure$u7d$$u7d$17hcaa8dba3750feb3aE', symObjAddr: 0x21B0, symBinAddr: 0x2BDC74, symSize: 0x3C }
  - { offset: 0x20C08E, size: 0x8, addend: 0x0, symName: '__ZN7ndarray9dimension21size_of_shape_checked28_$u7b$$u7b$closure$u7d$$u7d$17he0b1452723f91864E', symObjAddr: 0x21EC, symBinAddr: 0x2BDCB0, symSize: 0x3C }
  - { offset: 0x20C0F4, size: 0x8, addend: 0x0, symName: '__ZN7ndarray9dimension21size_of_shape_checked28_$u7b$$u7b$closure$u7d$$u7d$17hf69da3f457f404feE', symObjAddr: 0x2228, symBinAddr: 0x2BDCEC, symSize: 0x18 }
  - { offset: 0x20C125, size: 0x8, addend: 0x0, symName: '__ZN7ndarray9dimension21size_of_shape_checked28_$u7b$$u7b$closure$u7d$$u7d$17hf886b7ef52a2eda3E', symObjAddr: 0x2240, symBinAddr: 0x2BDD04, symSize: 0x2C }
  - { offset: 0x20C1D2, size: 0x8, addend: 0x0, symName: __ZN7ndarray9dimension26can_index_slice_not_custom17h7791a32cfea4049eE, symObjAddr: 0x226C, symBinAddr: 0x2BDD30, symSize: 0xA4 }
  - { offset: 0x20C247, size: 0x8, addend: 0x0, symName: __ZN7ndarray9dimension26can_index_slice_not_custom17hb849e96cf1f77f72E, symObjAddr: 0x2310, symBinAddr: 0x2BDDD4, symSize: 0xA4 }
  - { offset: 0x20C2BC, size: 0x8, addend: 0x0, symName: __ZN7ndarray9dimension28can_index_slice_with_strides17h78f236c50df73a4dE, symObjAddr: 0x23B4, symBinAddr: 0x2BDE78, symSize: 0x9C }
  - { offset: 0x20C333, size: 0x8, addend: 0x0, symName: __ZN7ndarray9dimension28can_index_slice_with_strides17h98b0fe04fa4e79bbE, symObjAddr: 0x2450, symBinAddr: 0x2BDF14, symSize: 0x8C }
  - { offset: 0x20C3AA, size: 0x8, addend: 0x0, symName: __ZN7ndarray9dimension28move_min_stride_axis_to_last17h97977d9026c4d0b1E, symObjAddr: 0x24DC, symBinAddr: 0x2BDFA0, symSize: 0x264 }
  - { offset: 0x20C48F, size: 0x8, addend: 0x0, symName: '__ZN7ndarray9dimension28move_min_stride_axis_to_last28_$u7b$$u7b$closure$u7d$$u7d$17h5dbd7d13a7702d7eE', symObjAddr: 0x2740, symBinAddr: 0x2BE204, symSize: 0x88 }
  - { offset: 0x20C518, size: 0x8, addend: 0x0, symName: '__ZN7ndarray9dimension28move_min_stride_axis_to_last28_$u7b$$u7b$closure$u7d$$u7d$17hfcbadcc021c13bcaE', symObjAddr: 0x27C8, symBinAddr: 0x2BE28C, symSize: 0x84 }
  - { offset: 0x20C5B5, size: 0x8, addend: 0x0, symName: __ZN7ndarray9dimension29max_abs_offset_check_overflow17h31618b9c398c7d50E, symObjAddr: 0x284C, symBinAddr: 0x2BE310, symSize: 0x40 }
  - { offset: 0x20C601, size: 0x8, addend: 0x0, symName: __ZN7ndarray9dimension29max_abs_offset_check_overflow17h9863bbc83fa28b6aE, symObjAddr: 0x288C, symBinAddr: 0x2BE350, symSize: 0x40 }
  - { offset: 0x20C64D, size: 0x8, addend: 0x0, symName: __ZN7ndarray9dimension29max_abs_offset_check_overflow17hbe2a03f853a28a92E, symObjAddr: 0x28CC, symBinAddr: 0x2BE390, symSize: 0x40 }
  - { offset: 0x20C699, size: 0x8, addend: 0x0, symName: __ZN7ndarray9dimension29max_abs_offset_check_overflow17hd1773daa884d3c24E, symObjAddr: 0x290C, symBinAddr: 0x2BE3D0, symSize: 0x40 }
  - { offset: 0x20C6E5, size: 0x8, addend: 0x0, symName: __ZN7ndarray9dimension34max_abs_offset_check_overflow_impl17h30c87f6af3ed598cE, symObjAddr: 0x294C, symBinAddr: 0x2BE410, symSize: 0x22C }
  - { offset: 0x20C7B8, size: 0x8, addend: 0x0, symName: __ZN7ndarray9dimension34max_abs_offset_check_overflow_impl17h81e789c65d6e2f1eE, symObjAddr: 0x2B78, symBinAddr: 0x2BE63C, symSize: 0x22C }
  - { offset: 0x20C88B, size: 0x8, addend: 0x0, symName: __ZN7ndarray9dimension34max_abs_offset_check_overflow_impl17hba476b9ed4beddf0E, symObjAddr: 0x2DA4, symBinAddr: 0x2BE868, symSize: 0x22C }
  - { offset: 0x20C95E, size: 0x8, addend: 0x0, symName: __ZN7ndarray9dimension34max_abs_offset_check_overflow_impl17hbe05f53708d2109aE, symObjAddr: 0x2FD0, symBinAddr: 0x2BEA94, symSize: 0x22C }
  - { offset: 0x20CA36, size: 0x8, addend: 0x0, symName: '__ZN7ndarray9dimension34max_abs_offset_check_overflow_impl28_$u7b$$u7b$closure$u7d$$u7d$17h10f0b98f870b5b4cE', symObjAddr: 0x31FC, symBinAddr: 0x2BECC0, symSize: 0x18 }
  - { offset: 0x20CA67, size: 0x8, addend: 0x0, symName: '__ZN7ndarray9dimension34max_abs_offset_check_overflow_impl28_$u7b$$u7b$closure$u7d$$u7d$17h1ac0e71474efe3daE', symObjAddr: 0x3214, symBinAddr: 0x2BECD8, symSize: 0x18 }
  - { offset: 0x20CA98, size: 0x8, addend: 0x0, symName: '__ZN7ndarray9dimension34max_abs_offset_check_overflow_impl28_$u7b$$u7b$closure$u7d$$u7d$17h357a5a67e08cc892E', symObjAddr: 0x322C, symBinAddr: 0x2BECF0, symSize: 0x18 }
  - { offset: 0x20CAC9, size: 0x8, addend: 0x0, symName: '__ZN7ndarray9dimension34max_abs_offset_check_overflow_impl28_$u7b$$u7b$closure$u7d$$u7d$17h4d0d33548864db8aE', symObjAddr: 0x3244, symBinAddr: 0x2BED08, symSize: 0x18 }
  - { offset: 0x20CAFA, size: 0x8, addend: 0x0, symName: '__ZN7ndarray9dimension34max_abs_offset_check_overflow_impl28_$u7b$$u7b$closure$u7d$$u7d$17h5320a68f8defef89E', symObjAddr: 0x325C, symBinAddr: 0x2BED20, symSize: 0xD0 }
  - { offset: 0x20CBEC, size: 0x8, addend: 0x0, symName: '__ZN7ndarray9dimension34max_abs_offset_check_overflow_impl28_$u7b$$u7b$closure$u7d$$u7d$17h53cea32be632597cE', symObjAddr: 0x332C, symBinAddr: 0x2BEDF0, symSize: 0xD0 }
  - { offset: 0x20CCDE, size: 0x8, addend: 0x0, symName: '__ZN7ndarray9dimension34max_abs_offset_check_overflow_impl28_$u7b$$u7b$closure$u7d$$u7d$17h8eecf85ba4f2ec85E', symObjAddr: 0x33FC, symBinAddr: 0x2BEEC0, symSize: 0x18 }
  - { offset: 0x20CD0F, size: 0x8, addend: 0x0, symName: '__ZN7ndarray9dimension34max_abs_offset_check_overflow_impl28_$u7b$$u7b$closure$u7d$$u7d$17h9093de76fb1a7d6aE', symObjAddr: 0x3414, symBinAddr: 0x2BEED8, symSize: 0x18 }
  - { offset: 0x20CD40, size: 0x8, addend: 0x0, symName: '__ZN7ndarray9dimension34max_abs_offset_check_overflow_impl28_$u7b$$u7b$closure$u7d$$u7d$17h91e50c24772f9e4bE', symObjAddr: 0x342C, symBinAddr: 0x2BEEF0, symSize: 0x18 }
  - { offset: 0x20CD71, size: 0x8, addend: 0x0, symName: '__ZN7ndarray9dimension34max_abs_offset_check_overflow_impl28_$u7b$$u7b$closure$u7d$$u7d$17h9c544befe4033e39E', symObjAddr: 0x3444, symBinAddr: 0x2BEF08, symSize: 0x18 }
  - { offset: 0x20CDA2, size: 0x8, addend: 0x0, symName: '__ZN7ndarray9dimension34max_abs_offset_check_overflow_impl28_$u7b$$u7b$closure$u7d$$u7d$17hcc1f68d18f440dcfE', symObjAddr: 0x345C, symBinAddr: 0x2BEF20, symSize: 0xD0 }
  - { offset: 0x20CE94, size: 0x8, addend: 0x0, symName: '__ZN7ndarray9dimension34max_abs_offset_check_overflow_impl28_$u7b$$u7b$closure$u7d$$u7d$17he9b3ffafae15ee11E', symObjAddr: 0x352C, symBinAddr: 0x2BEFF0, symSize: 0xD0 }
  - { offset: 0x20CFDB, size: 0x8, addend: 0x0, symName: __ZN7ndarray9dimension39offset_from_low_addr_ptr_to_logical_ptr17h244a9ec748b79dd7E, symObjAddr: 0x35FC, symBinAddr: 0x2BF0C0, symSize: 0x9C }
  - { offset: 0x20D03F, size: 0x8, addend: 0x0, symName: __ZN7ndarray9dimension39offset_from_low_addr_ptr_to_logical_ptr17h99f2c6619be695c2E, symObjAddr: 0x3698, symBinAddr: 0x2BF15C, symSize: 0x9C }
  - { offset: 0x20D0A3, size: 0x8, addend: 0x0, symName: __ZN7ndarray9dimension39offset_from_low_addr_ptr_to_logical_ptr17hb6e8e5c4c10ec9f1E, symObjAddr: 0x3734, symBinAddr: 0x2BF1F8, symSize: 0x9C }
  - { offset: 0x20D10C, size: 0x8, addend: 0x0, symName: '__ZN7ndarray9dimension39offset_from_low_addr_ptr_to_logical_ptr28_$u7b$$u7b$closure$u7d$$u7d$17ha8d3254d868be5f0E', symObjAddr: 0x37D0, symBinAddr: 0x2BF294, symSize: 0xFC }
  - { offset: 0x20D195, size: 0x8, addend: 0x0, symName: '__ZN7ndarray9dimension39offset_from_low_addr_ptr_to_logical_ptr28_$u7b$$u7b$closure$u7d$$u7d$17hc1c1fd5441a76990E', symObjAddr: 0x38CC, symBinAddr: 0x2BF390, symSize: 0xFC }
  - { offset: 0x20D21E, size: 0x8, addend: 0x0, symName: '__ZN7ndarray9dimension39offset_from_low_addr_ptr_to_logical_ptr28_$u7b$$u7b$closure$u7d$$u7d$17hee7288997c060839E', symObjAddr: 0x39C8, symBinAddr: 0x2BF48C, symSize: 0xFC }
  - { offset: 0x20D4A1, size: 0x8, addend: 0x0, symName: '__ZN4core3ops8function5impls79_$LT$impl$u20$core..ops..function..FnMut$LT$A$GT$$u20$for$u20$$RF$mut$u20$F$GT$8call_mut17hff93f42900ac4157E', symObjAddr: 0x0, symBinAddr: 0x2BBAC4, symSize: 0x30 }
  - { offset: 0x20DE0F, size: 0x8, addend: 0x0, symName: '__ZN64_$LT$bincode..de..read..SliceReader$u20$as$u20$std..io..Read$GT$10read_exact28_$u7b$$u7b$closure$u7d$$u7d$17h824e37a59c6e20d8E', symObjAddr: 0x0, symBinAddr: 0x2BF588, symSize: 0x10 }
  - { offset: 0x20E09A, size: 0x8, addend: 0x0, symName: '__ZN64_$LT$bincode..de..read..SliceReader$u20$as$u20$std..io..Read$GT$10read_exact28_$u7b$$u7b$closure$u7d$$u7d$17h824e37a59c6e20d8E', symObjAddr: 0x0, symBinAddr: 0x2BF588, symSize: 0x10 }
  - { offset: 0x20E15A, size: 0x8, addend: 0x0, symName: __ZN7bincode9byteorder12ReadBytesExt7read_u817h2e5f002fcf1435c6E, symObjAddr: 0x10, symBinAddr: 0x2BF598, symSize: 0x174 }
  - { offset: 0x20E231, size: 0x8, addend: 0x0, symName: __ZN7bincode9byteorder12ReadBytesExt8read_f3217h4bea637873d7f271E, symObjAddr: 0x184, symBinAddr: 0x2BF70C, symSize: 0x180 }
  - { offset: 0x20E316, size: 0x8, addend: 0x0, symName: __ZN7bincode9byteorder12ReadBytesExt8read_f6417h0fb2d71017990508E, symObjAddr: 0x304, symBinAddr: 0x2BF88C, symSize: 0x174 }
  - { offset: 0x20E3FB, size: 0x8, addend: 0x0, symName: __ZN7bincode9byteorder12ReadBytesExt8read_u3217h4cb4ad0cd751ce6aE, symObjAddr: 0x478, symBinAddr: 0x2BFA00, symSize: 0x180 }
  - { offset: 0x20E4DB, size: 0x8, addend: 0x0, symName: __ZN7bincode9byteorder12ReadBytesExt8read_u6417h64d3e2a74a05c612E, symObjAddr: 0x5F8, symBinAddr: 0x2BFB80, symSize: 0x170 }
  - { offset: 0x20EAF2, size: 0x8, addend: 0x0, symName: '__ZN57_$LT$T$u20$as$u20$pyo3..conversion..FromPyObjectBound$GT$20from_py_object_bound17hd88ec77d6823a24cE', symObjAddr: 0x0, symBinAddr: 0x2BFCF0, symSize: 0x34 }
  - { offset: 0x210368, size: 0x8, addend: 0x0, symName: '__ZN94_$LT$numpy..borrow..PyReadonlyArray$LT$T$C$D$GT$$u20$as$u20$pyo3..conversion..FromPyObject$GT$13extract_bound17h0a74e20d82b6a802E', symObjAddr: 0x290, symBinAddr: 0x2BFF80, symSize: 0xA8 }
  - { offset: 0x2103E1, size: 0x8, addend: 0x0, symName: '__ZN94_$LT$numpy..borrow..PyReadonlyArray$LT$T$C$D$GT$$u20$as$u20$pyo3..conversion..FromPyObject$GT$13extract_bound17h514daa9b99a3d1bfE', symObjAddr: 0x338, symBinAddr: 0x2C0028, symSize: 0xA8 }
  - { offset: 0x2104F0, size: 0x8, addend: 0x0, symName: '__ZN57_$LT$T$u20$as$u20$pyo3..conversion..FromPyObjectBound$GT$20from_py_object_bound17hd88ec77d6823a24cE', symObjAddr: 0x0, symBinAddr: 0x2BFCF0, symSize: 0x34 }
  - { offset: 0x210527, size: 0x8, addend: 0x0, symName: '__ZN57_$LT$T$u20$as$u20$pyo3..conversion..FromPyObjectBound$GT$20from_py_object_bound17hdeb68fbbe51dfaa3E', symObjAddr: 0x34, symBinAddr: 0x2BFD24, symSize: 0x34 }
  - { offset: 0x21077C, size: 0x8, addend: 0x0, symName: '__ZN71_$LT$T$u20$as$u20$pyo3..impl_..extract_argument..PyFunctionArgument$GT$7extract17he5512a435f99f876E', symObjAddr: 0x240, symBinAddr: 0x2BFF30, symSize: 0x28 }
  - { offset: 0x2107BB, size: 0x8, addend: 0x0, symName: '__ZN71_$LT$T$u20$as$u20$pyo3..impl_..extract_argument..PyFunctionArgument$GT$7extract17hf915d9eeabc27f61E', symObjAddr: 0x268, symBinAddr: 0x2BFF58, symSize: 0x28 }
  - { offset: 0x210DF0, size: 0x8, addend: 0x0, symName: '__ZN5numpy6borrow28PyReadonlyArray$LT$T$C$D$GT$7try_new17h38e86f28c9ae5056E', symObjAddr: 0x68, symBinAddr: 0x2BFD58, symSize: 0xEC }
  - { offset: 0x210E4E, size: 0x8, addend: 0x0, symName: '__ZN5numpy6borrow28PyReadonlyArray$LT$T$C$D$GT$7try_new17h3ba2810adc499e82E', symObjAddr: 0x154, symBinAddr: 0x2BFE44, symSize: 0xEC }
  - { offset: 0x211277, size: 0x8, addend: 0x0, symName: __ZN4core3ptr11write_bytes18precondition_check17h28c9e9d4d0f1567eE, symObjAddr: 0x0, symBinAddr: 0x2C00D0, symSize: 0x9C }
  - { offset: 0x211465, size: 0x8, addend: 0x0, symName: __ZN4core3ptr11write_bytes18precondition_check17h28c9e9d4d0f1567eE, symObjAddr: 0x0, symBinAddr: 0x2C00D0, symSize: 0x9C }
  - { offset: 0x21153D, size: 0x8, addend: 0x0, symName: __ZN4core3ptr19copy_nonoverlapping18precondition_check17hf6a049bad0d82cdbE, symObjAddr: 0x9C, symBinAddr: 0x2C016C, symSize: 0x168 }
  - { offset: 0x2116F7, size: 0x8, addend: 0x0, symName: __ZN4core3ptr4copy18precondition_check17h4bc97f8188b9a76eE, symObjAddr: 0x564, symBinAddr: 0x2C02D4, symSize: 0x130 }
  - { offset: 0x2118C2, size: 0x8, addend: 0x0, symName: '__ZN3std3f6421_$LT$impl$u20$f64$GT$3cos17hc39cc6b2ad1fc569E', symObjAddr: 0x0, symBinAddr: 0x2C0404, symSize: 0x28 }
  - { offset: 0x2118DE, size: 0x8, addend: 0x0, symName: '__ZN3std3f6421_$LT$impl$u20$f64$GT$3cos17hc39cc6b2ad1fc569E', symObjAddr: 0x0, symBinAddr: 0x2C0404, symSize: 0x28 }
  - { offset: 0x21190C, size: 0x8, addend: 0x0, symName: '__ZN3std3f6421_$LT$impl$u20$f64$GT$3exp17h6c74bba1ce963b49E', symObjAddr: 0x28, symBinAddr: 0x2C042C, symSize: 0x28 }
  - { offset: 0x21193A, size: 0x8, addend: 0x0, symName: '__ZN3std3f6421_$LT$impl$u20$f64$GT$3sin17h90d3c570f72b59f1E', symObjAddr: 0x50, symBinAddr: 0x2C0454, symSize: 0x28 }
  - { offset: 0x211968, size: 0x8, addend: 0x0, symName: '__ZN3std3f6421_$LT$impl$u20$f64$GT$4ceil17h6390bb6ed29d55c9E', symObjAddr: 0x78, symBinAddr: 0x2C047C, symSize: 0x1C }
  - { offset: 0x2119B1, size: 0x8, addend: 0x0, symName: '__ZN3std3f6421_$LT$impl$u20$f64$GT$4sqrt17he55c0874504269e4E', symObjAddr: 0x94, symBinAddr: 0x2C0498, symSize: 0x1C }
  - { offset: 0x2119FD, size: 0x8, addend: 0x0, symName: '__ZN3std3f6421_$LT$impl$u20$f64$GT$5round17h2c3f972002e36da5E', symObjAddr: 0xB0, symBinAddr: 0x2C04B4, symSize: 0x1C }
  - { offset: 0x211AB8, size: 0x8, addend: 0x0, symName: '__ZN4core3f6421_$LT$impl$u20$f64$GT$3max17h453f9e3e21ef070fE', symObjAddr: 0xCC, symBinAddr: 0x2C04D0, symSize: 0x20 }
  - { offset: 0x211AF5, size: 0x8, addend: 0x0, symName: '__ZN4core3f6421_$LT$impl$u20$f64$GT$3min17hb5ca99f4889769cdE', symObjAddr: 0xEC, symBinAddr: 0x2C04F0, symSize: 0x20 }
  - { offset: 0x211B5A, size: 0x8, addend: 0x0, symName: '__ZN42_$LT$$RF$T$u20$as$u20$core..fmt..Debug$GT$3fmt17h28af9e68c0e5aa79E', symObjAddr: 0x0, symBinAddr: 0x2C0510, symSize: 0x30 }
  - { offset: 0x211B76, size: 0x8, addend: 0x0, symName: '__ZN42_$LT$$RF$T$u20$as$u20$core..fmt..Debug$GT$3fmt17h28af9e68c0e5aa79E', symObjAddr: 0x0, symBinAddr: 0x2C0510, symSize: 0x30 }
  - { offset: 0x211C72, size: 0x8, addend: 0x0, symName: '__ZN4core4hash5impls52_$LT$impl$u20$core..hash..Hash$u20$for$u20$$RF$T$GT$4hash17h9b052c8d62761dd5E', symObjAddr: 0x58, symBinAddr: 0x2C0568, symSize: 0x30 }
  - { offset: 0x211CC3, size: 0x8, addend: 0x0, symName: '__ZN4core4hash5impls52_$LT$impl$u20$core..hash..Hash$u20$for$u20$usize$GT$4hash17hdf907704fa4eef1bE', symObjAddr: 0x88, symBinAddr: 0x2C0598, symSize: 0x38 }
  - { offset: 0x211E98, size: 0x8, addend: 0x0, symName: __ZN4core3any6TypeId2of17h5b93ef9e7711be21E, symObjAddr: 0x30, symBinAddr: 0x2C0540, symSize: 0x14 }
  - { offset: 0x211EBC, size: 0x8, addend: 0x0, symName: __ZN4core3any6TypeId2of17h9f112bcea5ba3009E, symObjAddr: 0x44, symBinAddr: 0x2C0554, symSize: 0x14 }
  - { offset: 0x211FD7, size: 0x8, addend: 0x0, symName: __ZN5nifti9extension17ExtensionSequence11from_reader17h328e8101b2029754E, symObjAddr: 0x0, symBinAddr: 0x2C05D0, symSize: 0x4C0 }
  - { offset: 0x212546, size: 0x8, addend: 0x0, symName: '__ZN5nifti9extension17ExtensionSequence11from_reader28_$u7b$$u7b$closure$u7d$$u7d$17h19137bde2f670118E', symObjAddr: 0xE40, symBinAddr: 0x2C1410, symSize: 0x38 }
  - { offset: 0x212594, size: 0x8, addend: 0x0, symName: '__ZN5nifti9extension17ExtensionSequence11from_reader28_$u7b$$u7b$closure$u7d$$u7d$17h62c285aceee6d935E', symObjAddr: 0xE78, symBinAddr: 0x2C1448, symSize: 0x38 }
  - { offset: 0x2125E2, size: 0x8, addend: 0x0, symName: '__ZN5nifti9extension17ExtensionSequence11from_reader28_$u7b$$u7b$closure$u7d$$u7d$17h8c1cacc4f6629ff7E', symObjAddr: 0xEB0, symBinAddr: 0x2C1480, symSize: 0x38 }
  - { offset: 0x213D9A, size: 0x8, addend: 0x0, symName: __ZN5nifti9extension17ExtensionSequence11from_reader17h328e8101b2029754E, symObjAddr: 0x0, symBinAddr: 0x2C05D0, symSize: 0x4C0 }
  - { offset: 0x213F0F, size: 0x8, addend: 0x0, symName: __ZN5nifti9extension17ExtensionSequence11from_reader17h48a452a51593af0bE, symObjAddr: 0x4C0, symBinAddr: 0x2C0A90, symSize: 0x4C0 }
  - { offset: 0x214084, size: 0x8, addend: 0x0, symName: __ZN5nifti9extension17ExtensionSequence11from_reader17h887f88f9ee94c98cE, symObjAddr: 0x980, symBinAddr: 0x2C0F50, symSize: 0x4C0 }
  - { offset: 0x2141EC, size: 0x8, addend: 0x0, symName: __ZN5nifti9extension8Extender11from_reader17h539863fff2082578E, symObjAddr: 0xEE8, symBinAddr: 0x2C14B8, symSize: 0xF8 }
  - { offset: 0x214249, size: 0x8, addend: 0x0, symName: __ZN5nifti9extension8Extender11from_reader17h8cbbb17dafc20ad4E, symObjAddr: 0xFE0, symBinAddr: 0x2C15B0, symSize: 0xF8 }
  - { offset: 0x2142A6, size: 0x8, addend: 0x0, symName: __ZN5nifti9extension8Extender20from_reader_optional17h4d5fb30493238796E, symObjAddr: 0x10D8, symBinAddr: 0x2C16A8, symSize: 0x204 }
  - { offset: 0x214328, size: 0x8, addend: 0x0, symName: __ZN5nifti9extension8Extender20from_reader_optional17hda05dd078fc91d2eE, symObjAddr: 0x12DC, symBinAddr: 0x2C18AC, symSize: 0x204 }
  - { offset: 0x2143E2, size: 0x8, addend: 0x0, symName: __ZN4core5slice4sort6stable14driftsort_main17h8e3e426c015ea29fE, symObjAddr: 0x0, symBinAddr: 0x2C1AB0, symSize: 0x1EC }
  - { offset: 0x2145C4, size: 0x8, addend: 0x0, symName: __ZN4core5slice4sort6stable14driftsort_main17h8e3e426c015ea29fE, symObjAddr: 0x0, symBinAddr: 0x2C1AB0, symSize: 0x1EC }
  - { offset: 0x214768, size: 0x8, addend: 0x0, symName: __ZN4core5slice4sort6stable14driftsort_main17hc500a56ba4c18e0dE, symObjAddr: 0x1EC, symBinAddr: 0x2C1C9C, symSize: 0x1EC }
  - { offset: 0x21496E, size: 0x8, addend: 0x0, symName: __ZN4core5slice4sort6stable14driftsort_main17hf7452f99b82cac4bE, symObjAddr: 0x3D8, symBinAddr: 0x2C1E88, symSize: 0x1EC }
  - { offset: 0x214F0C, size: 0x8, addend: 0x0, symName: '__ZN4core5slice4sort6stable27AlignedStorage$LT$T$C$_$GT$19as_uninit_slice_mut17h74a27bdb65debaaaE', symObjAddr: 0x5C4, symBinAddr: 0x2C2074, symSize: 0x80 }
  - { offset: 0x214FF4, size: 0x8, addend: 0x0, symName: '__ZN4core5slice4sort6stable27AlignedStorage$LT$T$C$_$GT$19as_uninit_slice_mut17hf5c3ef7c662e285eE', symObjAddr: 0x644, symBinAddr: 0x2C20F4, symSize: 0x84 }
  - { offset: 0x21535B, size: 0x8, addend: 0x0, symName: '__ZN45_$LT$T$u20$as$u20$rustdct..common..DctNum$GT$3two17h08584282cfd59e9eE', symObjAddr: 0x0, symBinAddr: 0x2C2178, symSize: 0x48 }
  - { offset: 0x216967, size: 0x8, addend: 0x0, symName: '__ZN45_$LT$T$u20$as$u20$rustdct..common..DctNum$GT$3two17h08584282cfd59e9eE', symObjAddr: 0x0, symBinAddr: 0x2C2178, symSize: 0x48 }
  - { offset: 0x2169AB, size: 0x8, addend: 0x0, symName: '__ZN45_$LT$T$u20$as$u20$rustdct..common..DctNum$GT$4half17h0bdd2743b398aa6eE', symObjAddr: 0x48, symBinAddr: 0x2C21C0, symSize: 0x48 }
  - { offset: 0x2172F6, size: 0x8, addend: 0x0, symName: '__ZN4pyo35impl_4wrap82EmptyTupleConverter$LT$core..result..Result$LT$$LP$$RP$$C$pyo3..err..PyErr$GT$$GT$12map_into_ptr17h255f9a89c45c15ffE', symObjAddr: 0x90, symBinAddr: 0x2C2208, symSize: 0x44 }
  - { offset: 0x21735E, size: 0x8, addend: 0x0, symName: '__ZN66_$LT$$BP$mut$u20$T$u20$as$u20$ndarray..zip..ndproducer..Offset$GT$13stride_offset17ha3e66e175b35e655E', symObjAddr: 0x0, symBinAddr: 0x2C224C, symSize: 0x7C }
  - { offset: 0x2173E5, size: 0x8, addend: 0x0, symName: '__ZN66_$LT$$BP$mut$u20$T$u20$as$u20$ndarray..zip..ndproducer..Offset$GT$13stride_offset17ha3e66e175b35e655E', symObjAddr: 0x0, symBinAddr: 0x2C224C, symSize: 0x7C }
  - { offset: 0x217484, size: 0x8, addend: 0x0, symName: __ZN5nifti6header11NiftiHeader11from_reader17h539781a87a35a334E, symObjAddr: 0x0, symBinAddr: 0x2C22C8, symSize: 0x24 }
  - { offset: 0x217C10, size: 0x8, addend: 0x0, symName: __ZN5nifti6header14parse_header_117h2479ab61c4b70113E, symObjAddr: 0x48, symBinAddr: 0x2C2310, symSize: 0x5DC }
  - { offset: 0x217DFF, size: 0x8, addend: 0x0, symName: __ZN5nifti6header14parse_header_117hae11cdb075934de7E, symObjAddr: 0x624, symBinAddr: 0x2C28EC, symSize: 0x5DC }
  - { offset: 0x217FEE, size: 0x8, addend: 0x0, symName: __ZN5nifti6header14parse_header_217h216425f83e4e8aabE, symObjAddr: 0xC00, symBinAddr: 0x2C2EC8, symSize: 0x12D8 }
  - { offset: 0x2184AB, size: 0x8, addend: 0x0, symName: __ZN5nifti6header14parse_header_217h4e60f88fc8b81de6E, symObjAddr: 0x1ED8, symBinAddr: 0x2C41A0, symSize: 0x12D8 }
  - { offset: 0x218968, size: 0x8, addend: 0x0, symName: __ZN5nifti6header14parse_header_217hd80e8991c5a61a65E, symObjAddr: 0x31B0, symBinAddr: 0x2C5478, symSize: 0x12D8 }
  - { offset: 0x218E25, size: 0x8, addend: 0x0, symName: __ZN5nifti6header14parse_header_217hed9182f05a6871afE, symObjAddr: 0x4488, symBinAddr: 0x2C6750, symSize: 0x12D8 }
  - { offset: 0x21A358, size: 0x8, addend: 0x0, symName: __ZN5nifti6header11NiftiHeader11from_reader17h539781a87a35a334E, symObjAddr: 0x0, symBinAddr: 0x2C22C8, symSize: 0x24 }
  - { offset: 0x21A8E4, size: 0x8, addend: 0x0, symName: __ZN5nifti6header11NiftiHeader11from_reader17hd53f93cf9676971bE, symObjAddr: 0x24, symBinAddr: 0x2C22EC, symSize: 0x24 }
  - { offset: 0x21A9A2, size: 0x8, addend: 0x0, symName: '__ZN49_$LT$T$u20$as$u20$core..array..SpecArrayClone$GT$5clone17h1effc13b64c92bc8E', symObjAddr: 0x0, symBinAddr: 0x2C7A28, symSize: 0x20 }
  - { offset: 0x21C747, size: 0x8, addend: 0x0, symName: '__ZN49_$LT$T$u20$as$u20$core..array..SpecArrayClone$GT$5clone17h1effc13b64c92bc8E', symObjAddr: 0x0, symBinAddr: 0x2C7A28, symSize: 0x20 }
  - { offset: 0x21C79C, size: 0x8, addend: 0x0, symName: '__ZN49_$LT$T$u20$as$u20$core..array..SpecArrayClone$GT$5clone17h2ddd4fe961cd02d6E', symObjAddr: 0x20, symBinAddr: 0x2C7A48, symSize: 0x28 }
  - { offset: 0x21C7F1, size: 0x8, addend: 0x0, symName: '__ZN49_$LT$T$u20$as$u20$core..array..SpecArrayClone$GT$5clone17hc9327c4ffd20aea3E', symObjAddr: 0x48, symBinAddr: 0x2C7A70, symSize: 0x1C }
  - { offset: 0x21C847, size: 0x8, addend: 0x0, symName: __ZN4core5array11try_from_fn17h025c42587c459cf8E, symObjAddr: 0x64, symBinAddr: 0x2C7A8C, symSize: 0x84 }
  - { offset: 0x21C8C0, size: 0x8, addend: 0x0, symName: __ZN4core5array11try_from_fn17h06160d3a4805afd1E, symObjAddr: 0xE8, symBinAddr: 0x2C7B10, symSize: 0x84 }
  - { offset: 0x21C939, size: 0x8, addend: 0x0, symName: __ZN4core5array11try_from_fn17h09e06e378aab0f68E, symObjAddr: 0x16C, symBinAddr: 0x2C7B94, symSize: 0x5C }
  - { offset: 0x21C9B1, size: 0x8, addend: 0x0, symName: __ZN4core5array11try_from_fn17h14a9b1bb597f20beE, symObjAddr: 0x1C8, symBinAddr: 0x2C7BF0, symSize: 0x84 }
  - { offset: 0x21CA2A, size: 0x8, addend: 0x0, symName: __ZN4core5array11try_from_fn17h16a08c4eb174c56cE, symObjAddr: 0x24C, symBinAddr: 0x2C7C74, symSize: 0x7C }
  - { offset: 0x21CAA2, size: 0x8, addend: 0x0, symName: __ZN4core5array11try_from_fn17h240ba867e2aca442E, symObjAddr: 0x2C8, symBinAddr: 0x2C7CF0, symSize: 0x84 }
  - { offset: 0x21CB1B, size: 0x8, addend: 0x0, symName: __ZN4core5array11try_from_fn17h2439940622813c3eE, symObjAddr: 0x34C, symBinAddr: 0x2C7D74, symSize: 0x7C }
  - { offset: 0x21CB94, size: 0x8, addend: 0x0, symName: __ZN4core5array11try_from_fn17h274f71104a6d2d30E, symObjAddr: 0x3C8, symBinAddr: 0x2C7DF0, symSize: 0x84 }
  - { offset: 0x21CC0D, size: 0x8, addend: 0x0, symName: __ZN4core5array11try_from_fn17h2849eb19d9b55cc3E, symObjAddr: 0x44C, symBinAddr: 0x2C7E74, symSize: 0x84 }
  - { offset: 0x21CC86, size: 0x8, addend: 0x0, symName: __ZN4core5array11try_from_fn17h29320bc5f5e72cdbE, symObjAddr: 0x4D0, symBinAddr: 0x2C7EF8, symSize: 0x84 }
  - { offset: 0x21CCFF, size: 0x8, addend: 0x0, symName: __ZN4core5array11try_from_fn17h296ee52233beb54aE, symObjAddr: 0x554, symBinAddr: 0x2C7F7C, symSize: 0x84 }
  - { offset: 0x21CD78, size: 0x8, addend: 0x0, symName: __ZN4core5array11try_from_fn17h2c35a75cbd0feec7E, symObjAddr: 0x5D8, symBinAddr: 0x2C8000, symSize: 0x84 }
  - { offset: 0x21CDF1, size: 0x8, addend: 0x0, symName: __ZN4core5array11try_from_fn17h2ed34e01242de3e0E, symObjAddr: 0x65C, symBinAddr: 0x2C8084, symSize: 0x84 }
  - { offset: 0x21CE6A, size: 0x8, addend: 0x0, symName: __ZN4core5array11try_from_fn17h38ad0b1e69636787E, symObjAddr: 0x6E0, symBinAddr: 0x2C8108, symSize: 0x6C }
  - { offset: 0x21CEE2, size: 0x8, addend: 0x0, symName: __ZN4core5array11try_from_fn17h41823352567a79ebE, symObjAddr: 0x74C, symBinAddr: 0x2C8174, symSize: 0x6C }
  - { offset: 0x21CF5A, size: 0x8, addend: 0x0, symName: __ZN4core5array11try_from_fn17h448a86325a1d7a60E, symObjAddr: 0x7B8, symBinAddr: 0x2C81E0, symSize: 0x84 }
  - { offset: 0x21CFD3, size: 0x8, addend: 0x0, symName: __ZN4core5array11try_from_fn17h541c64aad31159f0E, symObjAddr: 0x83C, symBinAddr: 0x2C8264, symSize: 0x84 }
  - { offset: 0x21D04C, size: 0x8, addend: 0x0, symName: __ZN4core5array11try_from_fn17h58e2c58ce4c8cb9aE, symObjAddr: 0x8C0, symBinAddr: 0x2C82E8, symSize: 0x84 }
  - { offset: 0x21D0C5, size: 0x8, addend: 0x0, symName: __ZN4core5array11try_from_fn17h5c2f84fa414395fbE, symObjAddr: 0x944, symBinAddr: 0x2C836C, symSize: 0x5C }
  - { offset: 0x21D13D, size: 0x8, addend: 0x0, symName: __ZN4core5array11try_from_fn17h5ceb8def170632b2E, symObjAddr: 0x9A0, symBinAddr: 0x2C83C8, symSize: 0x84 }
  - { offset: 0x21D1B6, size: 0x8, addend: 0x0, symName: __ZN4core5array11try_from_fn17h5f0e03f7342bbf46E, symObjAddr: 0xA24, symBinAddr: 0x2C844C, symSize: 0x84 }
  - { offset: 0x21D22F, size: 0x8, addend: 0x0, symName: __ZN4core5array11try_from_fn17h64cee2c11282e36aE, symObjAddr: 0xAA8, symBinAddr: 0x2C84D0, symSize: 0x7C }
  - { offset: 0x21D2A7, size: 0x8, addend: 0x0, symName: __ZN4core5array11try_from_fn17h66e80eb26a5a50bcE, symObjAddr: 0xB24, symBinAddr: 0x2C854C, symSize: 0x84 }
  - { offset: 0x21D320, size: 0x8, addend: 0x0, symName: __ZN4core5array11try_from_fn17h6ebb595a1a7225c9E, symObjAddr: 0xBA8, symBinAddr: 0x2C85D0, symSize: 0x84 }
  - { offset: 0x21D399, size: 0x8, addend: 0x0, symName: __ZN4core5array11try_from_fn17h7165cc7a6340742dE, symObjAddr: 0xC2C, symBinAddr: 0x2C8654, symSize: 0x84 }
  - { offset: 0x21D412, size: 0x8, addend: 0x0, symName: __ZN4core5array11try_from_fn17h720b8e5aa9d8f7ecE, symObjAddr: 0xCB0, symBinAddr: 0x2C86D8, symSize: 0x84 }
  - { offset: 0x21D48B, size: 0x8, addend: 0x0, symName: __ZN4core5array11try_from_fn17h72230337cadd7952E, symObjAddr: 0xD34, symBinAddr: 0x2C875C, symSize: 0x84 }
  - { offset: 0x21D504, size: 0x8, addend: 0x0, symName: __ZN4core5array11try_from_fn17h72b2bfe364025e85E, symObjAddr: 0xDB8, symBinAddr: 0x2C87E0, symSize: 0x7C }
  - { offset: 0x21D57C, size: 0x8, addend: 0x0, symName: __ZN4core5array11try_from_fn17h744e822c6d1df1f9E, symObjAddr: 0xE34, symBinAddr: 0x2C885C, symSize: 0x84 }
  - { offset: 0x21D5F5, size: 0x8, addend: 0x0, symName: __ZN4core5array11try_from_fn17h755cd69d5308ee36E, symObjAddr: 0xEB8, symBinAddr: 0x2C88E0, symSize: 0x84 }
  - { offset: 0x21D66E, size: 0x8, addend: 0x0, symName: __ZN4core5array11try_from_fn17h76ca9f81e40cbbf2E, symObjAddr: 0xF3C, symBinAddr: 0x2C8964, symSize: 0x7C }
  - { offset: 0x21D6E7, size: 0x8, addend: 0x0, symName: __ZN4core5array11try_from_fn17h8287e98b1b095cf3E, symObjAddr: 0xFB8, symBinAddr: 0x2C89E0, symSize: 0x84 }
  - { offset: 0x21D760, size: 0x8, addend: 0x0, symName: __ZN4core5array11try_from_fn17h83379e1a49afcb88E, symObjAddr: 0x103C, symBinAddr: 0x2C8A64, symSize: 0x7C }
  - { offset: 0x21D7D8, size: 0x8, addend: 0x0, symName: __ZN4core5array11try_from_fn17h83bf49154256252aE, symObjAddr: 0x10B8, symBinAddr: 0x2C8AE0, symSize: 0x6C }
  - { offset: 0x21D850, size: 0x8, addend: 0x0, symName: __ZN4core5array11try_from_fn17h83fad8ead95dd75aE, symObjAddr: 0x1124, symBinAddr: 0x2C8B4C, symSize: 0x84 }
  - { offset: 0x21D8C9, size: 0x8, addend: 0x0, symName: __ZN4core5array11try_from_fn17h851a305f976815c9E, symObjAddr: 0x11A8, symBinAddr: 0x2C8BD0, symSize: 0x6C }
  - { offset: 0x21D941, size: 0x8, addend: 0x0, symName: __ZN4core5array11try_from_fn17h8a273a6852717700E, symObjAddr: 0x1214, symBinAddr: 0x2C8C3C, symSize: 0x84 }
  - { offset: 0x21D9BA, size: 0x8, addend: 0x0, symName: __ZN4core5array11try_from_fn17h8bc68706b9a846dfE, symObjAddr: 0x1298, symBinAddr: 0x2C8CC0, symSize: 0x7C }
  - { offset: 0x21DA32, size: 0x8, addend: 0x0, symName: __ZN4core5array11try_from_fn17h97ad5133adc70372E, symObjAddr: 0x1314, symBinAddr: 0x2C8D3C, symSize: 0x84 }
  - { offset: 0x21DAAB, size: 0x8, addend: 0x0, symName: __ZN4core5array11try_from_fn17ha29fab6642145001E, symObjAddr: 0x1398, symBinAddr: 0x2C8DC0, symSize: 0x6C }
  - { offset: 0x21DB23, size: 0x8, addend: 0x0, symName: __ZN4core5array11try_from_fn17ha67de6cb941462c3E, symObjAddr: 0x1404, symBinAddr: 0x2C8E2C, symSize: 0x84 }
  - { offset: 0x21DB9C, size: 0x8, addend: 0x0, symName: __ZN4core5array11try_from_fn17ha75fc4276dd66f99E, symObjAddr: 0x1488, symBinAddr: 0x2C8EB0, symSize: 0x7C }
  - { offset: 0x21DC14, size: 0x8, addend: 0x0, symName: __ZN4core5array11try_from_fn17haba13537f47bbb11E, symObjAddr: 0x1504, symBinAddr: 0x2C8F2C, symSize: 0x84 }
  - { offset: 0x21DC8D, size: 0x8, addend: 0x0, symName: __ZN4core5array11try_from_fn17hac42810194889e02E, symObjAddr: 0x1588, symBinAddr: 0x2C8FB0, symSize: 0x7C }
  - { offset: 0x21DD05, size: 0x8, addend: 0x0, symName: __ZN4core5array11try_from_fn17hade776124eae1ec8E, symObjAddr: 0x1604, symBinAddr: 0x2C902C, symSize: 0x6C }
  - { offset: 0x21DD7D, size: 0x8, addend: 0x0, symName: __ZN4core5array11try_from_fn17hb10139d910d6b128E, symObjAddr: 0x1670, symBinAddr: 0x2C9098, symSize: 0x84 }
  - { offset: 0x21DDF6, size: 0x8, addend: 0x0, symName: __ZN4core5array11try_from_fn17hb16017983aa57f96E, symObjAddr: 0x16F4, symBinAddr: 0x2C911C, symSize: 0x7C }
  - { offset: 0x21DE6E, size: 0x8, addend: 0x0, symName: __ZN4core5array11try_from_fn17hb3c67a745bbdbebfE, symObjAddr: 0x1770, symBinAddr: 0x2C9198, symSize: 0x84 }
  - { offset: 0x21DEE7, size: 0x8, addend: 0x0, symName: __ZN4core5array11try_from_fn17hb6eb4028a6c0349dE, symObjAddr: 0x17F4, symBinAddr: 0x2C921C, symSize: 0x6C }
  - { offset: 0x21DF5F, size: 0x8, addend: 0x0, symName: __ZN4core5array11try_from_fn17hb7c89ccd8690a045E, symObjAddr: 0x1860, symBinAddr: 0x2C9288, symSize: 0x84 }
  - { offset: 0x21DFD8, size: 0x8, addend: 0x0, symName: __ZN4core5array11try_from_fn17hbc523155435fd568E, symObjAddr: 0x18E4, symBinAddr: 0x2C930C, symSize: 0x84 }
  - { offset: 0x21E051, size: 0x8, addend: 0x0, symName: __ZN4core5array11try_from_fn17hbcb783185a530584E, symObjAddr: 0x1968, symBinAddr: 0x2C9390, symSize: 0x84 }
  - { offset: 0x21E0CA, size: 0x8, addend: 0x0, symName: __ZN4core5array11try_from_fn17hbeb66d30aba7b491E, symObjAddr: 0x19EC, symBinAddr: 0x2C9414, symSize: 0x84 }
  - { offset: 0x21E143, size: 0x8, addend: 0x0, symName: __ZN4core5array11try_from_fn17hc2ba7e21a7185c45E, symObjAddr: 0x1A70, symBinAddr: 0x2C9498, symSize: 0x84 }
  - { offset: 0x21E1BC, size: 0x8, addend: 0x0, symName: __ZN4core5array11try_from_fn17hc398810b46aef914E, symObjAddr: 0x1AF4, symBinAddr: 0x2C951C, symSize: 0x84 }
  - { offset: 0x21E235, size: 0x8, addend: 0x0, symName: __ZN4core5array11try_from_fn17hd3c4982635078b2cE, symObjAddr: 0x1B78, symBinAddr: 0x2C95A0, symSize: 0x7C }
  - { offset: 0x21E2AD, size: 0x8, addend: 0x0, symName: __ZN4core5array11try_from_fn17hd5adf8bea2f06285E, symObjAddr: 0x1BF4, symBinAddr: 0x2C961C, symSize: 0x84 }
  - { offset: 0x21E326, size: 0x8, addend: 0x0, symName: __ZN4core5array11try_from_fn17he49eb81777ac3321E, symObjAddr: 0x1C78, symBinAddr: 0x2C96A0, symSize: 0x7C }
  - { offset: 0x21E39E, size: 0x8, addend: 0x0, symName: __ZN4core5array11try_from_fn17hec7eb0e4e578bcedE, symObjAddr: 0x1CF4, symBinAddr: 0x2C971C, symSize: 0x7C }
  - { offset: 0x21E416, size: 0x8, addend: 0x0, symName: __ZN4core5array11try_from_fn17hf2a777bc33bf7be0E, symObjAddr: 0x1D70, symBinAddr: 0x2C9798, symSize: 0x84 }
  - { offset: 0x21E48F, size: 0x8, addend: 0x0, symName: __ZN4core5array11try_from_fn17hf2ed726cf9c1a7efE, symObjAddr: 0x1DF4, symBinAddr: 0x2C981C, symSize: 0x84 }
  - { offset: 0x21E508, size: 0x8, addend: 0x0, symName: __ZN4core5array11try_from_fn17hf2f97a32467028d3E, symObjAddr: 0x1E78, symBinAddr: 0x2C98A0, symSize: 0x84 }
  - { offset: 0x21E6F3, size: 0x8, addend: 0x0, symName: __ZN4core5array18try_from_fn_erased17h073ee21e95650e0eE, symObjAddr: 0x2348, symBinAddr: 0x2C9D70, symSize: 0xEC }
  - { offset: 0x21E7AB, size: 0x8, addend: 0x0, symName: __ZN4core5array18try_from_fn_erased17h091353397622105fE, symObjAddr: 0x2434, symBinAddr: 0x2C9E5C, symSize: 0x10C }
  - { offset: 0x21E864, size: 0x8, addend: 0x0, symName: __ZN4core5array18try_from_fn_erased17h0b0b85aad1a2a0c9E, symObjAddr: 0x2540, symBinAddr: 0x2C9F68, symSize: 0xEC }
  - { offset: 0x21E91C, size: 0x8, addend: 0x0, symName: __ZN4core5array18try_from_fn_erased17h18c4d270574bc298E, symObjAddr: 0x262C, symBinAddr: 0x2CA054, symSize: 0xEC }
  - { offset: 0x21E9D4, size: 0x8, addend: 0x0, symName: __ZN4core5array18try_from_fn_erased17h18c6a68646ff8ceeE, symObjAddr: 0x2718, symBinAddr: 0x2CA140, symSize: 0xEC }
  - { offset: 0x21EA8C, size: 0x8, addend: 0x0, symName: __ZN4core5array18try_from_fn_erased17h1ac6bf8aa52f7ad3E, symObjAddr: 0x2804, symBinAddr: 0x2CA22C, symSize: 0xEC }
  - { offset: 0x21EB44, size: 0x8, addend: 0x0, symName: __ZN4core5array18try_from_fn_erased17h1ae27210658d7826E, symObjAddr: 0x28F0, symBinAddr: 0x2CA318, symSize: 0xE4 }
  - { offset: 0x21EBFD, size: 0x8, addend: 0x0, symName: __ZN4core5array18try_from_fn_erased17h1bbf7fea4f454dfeE, symObjAddr: 0x29D4, symBinAddr: 0x2CA3FC, symSize: 0xEC }
  - { offset: 0x21ECB5, size: 0x8, addend: 0x0, symName: __ZN4core5array18try_from_fn_erased17h1ef96c003261dec6E, symObjAddr: 0x2AC0, symBinAddr: 0x2CA4E8, symSize: 0xEC }
  - { offset: 0x21ED6D, size: 0x8, addend: 0x0, symName: __ZN4core5array18try_from_fn_erased17h212c12ebbc80ccb5E, symObjAddr: 0x2BAC, symBinAddr: 0x2CA5D4, symSize: 0xE4 }
  - { offset: 0x21EE26, size: 0x8, addend: 0x0, symName: __ZN4core5array18try_from_fn_erased17h21cecc3d641a0a68E, symObjAddr: 0x2C90, symBinAddr: 0x2CA6B8, symSize: 0x10C }
  - { offset: 0x21EEDF, size: 0x8, addend: 0x0, symName: __ZN4core5array18try_from_fn_erased17h2264fe9b23d14e7dE, symObjAddr: 0x2D9C, symBinAddr: 0x2CA7C4, symSize: 0xE4 }
  - { offset: 0x21EF98, size: 0x8, addend: 0x0, symName: __ZN4core5array18try_from_fn_erased17h24b67d9d969c3fbbE, symObjAddr: 0x2E80, symBinAddr: 0x2CA8A8, symSize: 0xEC }
  - { offset: 0x21F050, size: 0x8, addend: 0x0, symName: __ZN4core5array18try_from_fn_erased17h2c6326af9190b6d0E, symObjAddr: 0x2F6C, symBinAddr: 0x2CA994, symSize: 0xE4 }
  - { offset: 0x21F109, size: 0x8, addend: 0x0, symName: __ZN4core5array18try_from_fn_erased17h2fd82781a159f1f6E, symObjAddr: 0x3050, symBinAddr: 0x2CAA78, symSize: 0x10C }
  - { offset: 0x21F1C2, size: 0x8, addend: 0x0, symName: __ZN4core5array18try_from_fn_erased17h3d50d7ee4b1a1ddeE, symObjAddr: 0x315C, symBinAddr: 0x2CAB84, symSize: 0xEC }
  - { offset: 0x21F27A, size: 0x8, addend: 0x0, symName: __ZN4core5array18try_from_fn_erased17h3e4f5ccb3b1297b0E, symObjAddr: 0x3248, symBinAddr: 0x2CAC70, symSize: 0x10C }
  - { offset: 0x21F333, size: 0x8, addend: 0x0, symName: __ZN4core5array18try_from_fn_erased17h420e068d6523cc3cE, symObjAddr: 0x3354, symBinAddr: 0x2CAD7C, symSize: 0xEC }
  - { offset: 0x21F3EB, size: 0x8, addend: 0x0, symName: __ZN4core5array18try_from_fn_erased17h4232a7f8ea4de168E, symObjAddr: 0x3440, symBinAddr: 0x2CAE68, symSize: 0x10C }
  - { offset: 0x21F4A4, size: 0x8, addend: 0x0, symName: __ZN4core5array18try_from_fn_erased17h46ee358614bbed4cE, symObjAddr: 0x354C, symBinAddr: 0x2CAF74, symSize: 0xEC }
  - { offset: 0x21F55C, size: 0x8, addend: 0x0, symName: __ZN4core5array18try_from_fn_erased17h628f2d6e5f3d4456E, symObjAddr: 0x3638, symBinAddr: 0x2CB060, symSize: 0x10C }
  - { offset: 0x21F615, size: 0x8, addend: 0x0, symName: __ZN4core5array18try_from_fn_erased17h6b1e815a1f27497bE, symObjAddr: 0x3744, symBinAddr: 0x2CB16C, symSize: 0x10C }
  - { offset: 0x21F6CE, size: 0x8, addend: 0x0, symName: __ZN4core5array18try_from_fn_erased17h720f98504ba43144E, symObjAddr: 0x3850, symBinAddr: 0x2CB278, symSize: 0x10C }
  - { offset: 0x21F787, size: 0x8, addend: 0x0, symName: __ZN4core5array18try_from_fn_erased17h82faf3ce84173abcE, symObjAddr: 0x395C, symBinAddr: 0x2CB384, symSize: 0xEC }
  - { offset: 0x21F83F, size: 0x8, addend: 0x0, symName: __ZN4core5array18try_from_fn_erased17h836fcd661ab40ca8E, symObjAddr: 0x3A48, symBinAddr: 0x2CB470, symSize: 0xE4 }
  - { offset: 0x21F8F8, size: 0x8, addend: 0x0, symName: __ZN4core5array18try_from_fn_erased17h86479e74ffc3707eE, symObjAddr: 0x3B2C, symBinAddr: 0x2CB554, symSize: 0xE4 }
  - { offset: 0x21F9B1, size: 0x8, addend: 0x0, symName: __ZN4core5array18try_from_fn_erased17h88ccbf18e50e05a7E, symObjAddr: 0x3C10, symBinAddr: 0x2CB638, symSize: 0xEC }
  - { offset: 0x21FA69, size: 0x8, addend: 0x0, symName: __ZN4core5array18try_from_fn_erased17h8ba3c93910fb5123E, symObjAddr: 0x3CFC, symBinAddr: 0x2CB724, symSize: 0x10C }
  - { offset: 0x21FB22, size: 0x8, addend: 0x0, symName: __ZN4core5array18try_from_fn_erased17h8c12f8eec3019dbfE, symObjAddr: 0x3E08, symBinAddr: 0x2CB830, symSize: 0xE4 }
  - { offset: 0x21FBDB, size: 0x8, addend: 0x0, symName: __ZN4core5array18try_from_fn_erased17h909f89121e83d594E, symObjAddr: 0x3EEC, symBinAddr: 0x2CB914, symSize: 0x10C }
  - { offset: 0x21FC94, size: 0x8, addend: 0x0, symName: __ZN4core5array18try_from_fn_erased17h919e6059686f3b72E, symObjAddr: 0x3FF8, symBinAddr: 0x2CBA20, symSize: 0xEC }
  - { offset: 0x21FD4C, size: 0x8, addend: 0x0, symName: __ZN4core5array18try_from_fn_erased17h9210b7f271e01ad6E, symObjAddr: 0x40E4, symBinAddr: 0x2CBB0C, symSize: 0xEC }
  - { offset: 0x21FE04, size: 0x8, addend: 0x0, symName: __ZN4core5array18try_from_fn_erased17h9c0b3abd5118cc96E, symObjAddr: 0x41D0, symBinAddr: 0x2CBBF8, symSize: 0xEC }
  - { offset: 0x21FEBC, size: 0x8, addend: 0x0, symName: __ZN4core5array18try_from_fn_erased17h9d9deb8ecd4f6683E, symObjAddr: 0x42BC, symBinAddr: 0x2CBCE4, symSize: 0xE4 }
  - { offset: 0x21FF75, size: 0x8, addend: 0x0, symName: __ZN4core5array18try_from_fn_erased17ha1515ae438558346E, symObjAddr: 0x43A0, symBinAddr: 0x2CBDC8, symSize: 0xEC }
  - { offset: 0x22002D, size: 0x8, addend: 0x0, symName: __ZN4core5array18try_from_fn_erased17ha1ecc1559305864bE, symObjAddr: 0x448C, symBinAddr: 0x2CBEB4, symSize: 0xEC }
  - { offset: 0x2200E5, size: 0x8, addend: 0x0, symName: __ZN4core5array18try_from_fn_erased17ha76d7abdabb1a4c6E, symObjAddr: 0x4578, symBinAddr: 0x2CBFA0, symSize: 0xEC }
  - { offset: 0x22019D, size: 0x8, addend: 0x0, symName: __ZN4core5array18try_from_fn_erased17ha852539cf78f0785E, symObjAddr: 0x4664, symBinAddr: 0x2CC08C, symSize: 0xEC }
  - { offset: 0x220255, size: 0x8, addend: 0x0, symName: __ZN4core5array18try_from_fn_erased17hb91de4ee50c21edaE, symObjAddr: 0x4750, symBinAddr: 0x2CC178, symSize: 0xE4 }
  - { offset: 0x22030E, size: 0x8, addend: 0x0, symName: __ZN4core5array18try_from_fn_erased17hbffbd5ee37dae136E, symObjAddr: 0x4834, symBinAddr: 0x2CC25C, symSize: 0xEC }
  - { offset: 0x2203C6, size: 0x8, addend: 0x0, symName: __ZN4core5array18try_from_fn_erased17hc25a0eecf719e2b9E, symObjAddr: 0x4920, symBinAddr: 0x2CC348, symSize: 0xEC }
  - { offset: 0x22047E, size: 0x8, addend: 0x0, symName: __ZN4core5array18try_from_fn_erased17hc2f2787abcd7cf21E, symObjAddr: 0x4A0C, symBinAddr: 0x2CC434, symSize: 0xEC }
  - { offset: 0x220536, size: 0x8, addend: 0x0, symName: __ZN4core5array18try_from_fn_erased17hc93ecba39b95db69E, symObjAddr: 0x4AF8, symBinAddr: 0x2CC520, symSize: 0xEC }
  - { offset: 0x2205EE, size: 0x8, addend: 0x0, symName: __ZN4core5array18try_from_fn_erased17hce2a44a7a04a31e2E, symObjAddr: 0x4BE4, symBinAddr: 0x2CC60C, symSize: 0xEC }
  - { offset: 0x2206A6, size: 0x8, addend: 0x0, symName: __ZN4core5array18try_from_fn_erased17hcfa7d29911389ccfE, symObjAddr: 0x4CD0, symBinAddr: 0x2CC6F8, symSize: 0xE4 }
  - { offset: 0x22075F, size: 0x8, addend: 0x0, symName: __ZN4core5array18try_from_fn_erased17hcfe88f406ffe2312E, symObjAddr: 0x4DB4, symBinAddr: 0x2CC7DC, symSize: 0x10C }
  - { offset: 0x220818, size: 0x8, addend: 0x0, symName: __ZN4core5array18try_from_fn_erased17hd2da51ec13111f62E, symObjAddr: 0x4EC0, symBinAddr: 0x2CC8E8, symSize: 0xE4 }
  - { offset: 0x2208D1, size: 0x8, addend: 0x0, symName: __ZN4core5array18try_from_fn_erased17hd3064a348c028b47E, symObjAddr: 0x4FA4, symBinAddr: 0x2CC9CC, symSize: 0x10C }
  - { offset: 0x22098A, size: 0x8, addend: 0x0, symName: __ZN4core5array18try_from_fn_erased17hd5b7c4174e74309aE, symObjAddr: 0x50B0, symBinAddr: 0x2CCAD8, symSize: 0xEC }
  - { offset: 0x220A42, size: 0x8, addend: 0x0, symName: __ZN4core5array18try_from_fn_erased17hda03a16530244244E, symObjAddr: 0x519C, symBinAddr: 0x2CCBC4, symSize: 0xEC }
  - { offset: 0x220AFA, size: 0x8, addend: 0x0, symName: __ZN4core5array18try_from_fn_erased17hdbe346cebb811971E, symObjAddr: 0x5288, symBinAddr: 0x2CCCB0, symSize: 0xEC }
  - { offset: 0x220BB2, size: 0x8, addend: 0x0, symName: __ZN4core5array18try_from_fn_erased17hdf2b8564bd6626c7E, symObjAddr: 0x5374, symBinAddr: 0x2CCD9C, symSize: 0xE4 }
  - { offset: 0x220C6B, size: 0x8, addend: 0x0, symName: __ZN4core5array18try_from_fn_erased17he479fbdc6ce889f2E, symObjAddr: 0x5458, symBinAddr: 0x2CCE80, symSize: 0x10C }
  - { offset: 0x220D24, size: 0x8, addend: 0x0, symName: __ZN4core5array18try_from_fn_erased17he56a7ed75cb3801dE, symObjAddr: 0x5564, symBinAddr: 0x2CCF8C, symSize: 0xEC }
  - { offset: 0x220DDC, size: 0x8, addend: 0x0, symName: __ZN4core5array18try_from_fn_erased17he60b805aaeda624eE, symObjAddr: 0x5650, symBinAddr: 0x2CD078, symSize: 0x10C }
  - { offset: 0x220E95, size: 0x8, addend: 0x0, symName: __ZN4core5array18try_from_fn_erased17hec792aa4e602bb92E, symObjAddr: 0x575C, symBinAddr: 0x2CD184, symSize: 0xEC }
  - { offset: 0x220F4D, size: 0x8, addend: 0x0, symName: __ZN4core5array18try_from_fn_erased17hef1a3e9455e474c5E, symObjAddr: 0x5848, symBinAddr: 0x2CD270, symSize: 0xEC }
  - { offset: 0x221005, size: 0x8, addend: 0x0, symName: __ZN4core5array18try_from_fn_erased17hf097ce49684f8050E, symObjAddr: 0x5934, symBinAddr: 0x2CD35C, symSize: 0x10C }
  - { offset: 0x2210BE, size: 0x8, addend: 0x0, symName: __ZN4core5array18try_from_fn_erased17hf4c4e4db2b77ed11E, symObjAddr: 0x5A40, symBinAddr: 0x2CD468, symSize: 0x10C }
  - { offset: 0x221177, size: 0x8, addend: 0x0, symName: __ZN4core5array18try_from_fn_erased17hf55e870e856b77cfE, symObjAddr: 0x5B4C, symBinAddr: 0x2CD574, symSize: 0xE4 }
  - { offset: 0x221230, size: 0x8, addend: 0x0, symName: __ZN4core5array18try_from_fn_erased17hf938a085c6ed4615E, symObjAddr: 0x5C30, symBinAddr: 0x2CD658, symSize: 0xEC }
  - { offset: 0x2212E8, size: 0x8, addend: 0x0, symName: __ZN4core5array18try_from_fn_erased17hfeb9b352bab1cacdE, symObjAddr: 0x5D1C, symBinAddr: 0x2CD744, symSize: 0xE4 }
  - { offset: 0x2213A6, size: 0x8, addend: 0x0, symName: '__ZN4core5array40_$LT$impl$u20$$u5b$T$u3b$$u20$N$u5d$$GT$3map17h03d555469d2ebb5bE', symObjAddr: 0x5E00, symBinAddr: 0x2CD828, symSize: 0x54 }
  - { offset: 0x22141E, size: 0x8, addend: 0x0, symName: '__ZN4core5array40_$LT$impl$u20$$u5b$T$u3b$$u20$N$u5d$$GT$3map17h056cf81d74fbb4d2E', symObjAddr: 0x5E54, symBinAddr: 0x2CD87C, symSize: 0x54 }
  - { offset: 0x221496, size: 0x8, addend: 0x0, symName: '__ZN4core5array40_$LT$impl$u20$$u5b$T$u3b$$u20$N$u5d$$GT$3map17h14d741c7463159e2E', symObjAddr: 0x5EA8, symBinAddr: 0x2CD8D0, symSize: 0x54 }
  - { offset: 0x22150E, size: 0x8, addend: 0x0, symName: '__ZN4core5array40_$LT$impl$u20$$u5b$T$u3b$$u20$N$u5d$$GT$3map17h1683cefddde4f7edE', symObjAddr: 0x5EFC, symBinAddr: 0x2CD924, symSize: 0x54 }
  - { offset: 0x221586, size: 0x8, addend: 0x0, symName: '__ZN4core5array40_$LT$impl$u20$$u5b$T$u3b$$u20$N$u5d$$GT$3map17h1d276c062f254fcaE', symObjAddr: 0x5F50, symBinAddr: 0x2CD978, symSize: 0x54 }
  - { offset: 0x2215FE, size: 0x8, addend: 0x0, symName: '__ZN4core5array40_$LT$impl$u20$$u5b$T$u3b$$u20$N$u5d$$GT$3map17h1e468e9174ef7930E', symObjAddr: 0x5FA4, symBinAddr: 0x2CD9CC, symSize: 0x48 }
  - { offset: 0x221657, size: 0x8, addend: 0x0, symName: '__ZN4core5array40_$LT$impl$u20$$u5b$T$u3b$$u20$N$u5d$$GT$3map17h220d843d7a0e6267E', symObjAddr: 0x5FEC, symBinAddr: 0x2CDA14, symSize: 0x48 }
  - { offset: 0x2216B0, size: 0x8, addend: 0x0, symName: '__ZN4core5array40_$LT$impl$u20$$u5b$T$u3b$$u20$N$u5d$$GT$3map17h35e430061c27aecfE', symObjAddr: 0x6034, symBinAddr: 0x2CDA5C, symSize: 0x44 }
  - { offset: 0x221709, size: 0x8, addend: 0x0, symName: '__ZN4core5array40_$LT$impl$u20$$u5b$T$u3b$$u20$N$u5d$$GT$3map17h3baa2d1c56105a8aE', symObjAddr: 0x6078, symBinAddr: 0x2CDAA0, symSize: 0x54 }
  - { offset: 0x221781, size: 0x8, addend: 0x0, symName: '__ZN4core5array40_$LT$impl$u20$$u5b$T$u3b$$u20$N$u5d$$GT$3map17h3c87afc4b49ac622E', symObjAddr: 0x60CC, symBinAddr: 0x2CDAF4, symSize: 0x48 }
  - { offset: 0x2217D9, size: 0x8, addend: 0x0, symName: '__ZN4core5array40_$LT$impl$u20$$u5b$T$u3b$$u20$N$u5d$$GT$3map17h3da58c6a674516e0E', symObjAddr: 0x6114, symBinAddr: 0x2CDB3C, symSize: 0x54 }
  - { offset: 0x221851, size: 0x8, addend: 0x0, symName: '__ZN4core5array40_$LT$impl$u20$$u5b$T$u3b$$u20$N$u5d$$GT$3map17h4a290887fb77615aE', symObjAddr: 0x6168, symBinAddr: 0x2CDB90, symSize: 0x3C }
  - { offset: 0x2218AA, size: 0x8, addend: 0x0, symName: '__ZN4core5array40_$LT$impl$u20$$u5b$T$u3b$$u20$N$u5d$$GT$3map17h4bfee1fd522c553eE', symObjAddr: 0x61A4, symBinAddr: 0x2CDBCC, symSize: 0x54 }
  - { offset: 0x221922, size: 0x8, addend: 0x0, symName: '__ZN4core5array40_$LT$impl$u20$$u5b$T$u3b$$u20$N$u5d$$GT$3map17h4edabc714e031d82E', symObjAddr: 0x61F8, symBinAddr: 0x2CDC20, symSize: 0x50 }
  - { offset: 0x22199A, size: 0x8, addend: 0x0, symName: '__ZN4core5array40_$LT$impl$u20$$u5b$T$u3b$$u20$N$u5d$$GT$3map17h4f01aa6499d6df5aE', symObjAddr: 0x6248, symBinAddr: 0x2CDC70, symSize: 0x4C }
  - { offset: 0x2219F2, size: 0x8, addend: 0x0, symName: '__ZN4core5array40_$LT$impl$u20$$u5b$T$u3b$$u20$N$u5d$$GT$3map17h576a7e5944e356b1E', symObjAddr: 0x6294, symBinAddr: 0x2CDCBC, symSize: 0x40 }
  - { offset: 0x221A4B, size: 0x8, addend: 0x0, symName: '__ZN4core5array40_$LT$impl$u20$$u5b$T$u3b$$u20$N$u5d$$GT$3map17h6121aea26ebfb772E', symObjAddr: 0x62D4, symBinAddr: 0x2CDCFC, symSize: 0x54 }
  - { offset: 0x221AC3, size: 0x8, addend: 0x0, symName: '__ZN4core5array40_$LT$impl$u20$$u5b$T$u3b$$u20$N$u5d$$GT$3map17h886cbe0403aeff86E', symObjAddr: 0x6328, symBinAddr: 0x2CDD50, symSize: 0x48 }
  - { offset: 0x221B1B, size: 0x8, addend: 0x0, symName: '__ZN4core5array40_$LT$impl$u20$$u5b$T$u3b$$u20$N$u5d$$GT$3map17hacc702cc18b847a3E', symObjAddr: 0x6370, symBinAddr: 0x2CDD98, symSize: 0x4C }
  - { offset: 0x221B73, size: 0x8, addend: 0x0, symName: '__ZN4core5array40_$LT$impl$u20$$u5b$T$u3b$$u20$N$u5d$$GT$3map17hb7146b503e593da3E', symObjAddr: 0x63BC, symBinAddr: 0x2CDDE4, symSize: 0x5C }
  - { offset: 0x221BEB, size: 0x8, addend: 0x0, symName: '__ZN4core5array40_$LT$impl$u20$$u5b$T$u3b$$u20$N$u5d$$GT$3map17hbcea83a20f2c4f28E', symObjAddr: 0x6418, symBinAddr: 0x2CDE40, symSize: 0x5C }
  - { offset: 0x221C63, size: 0x8, addend: 0x0, symName: '__ZN4core5array40_$LT$impl$u20$$u5b$T$u3b$$u20$N$u5d$$GT$3map17hc2d6ca102a275519E', symObjAddr: 0x6474, symBinAddr: 0x2CDE9C, symSize: 0x54 }
  - { offset: 0x221CDB, size: 0x8, addend: 0x0, symName: '__ZN4core5array40_$LT$impl$u20$$u5b$T$u3b$$u20$N$u5d$$GT$3map17hc4086cb8b35084a5E', symObjAddr: 0x64C8, symBinAddr: 0x2CDEF0, symSize: 0x54 }
  - { offset: 0x221D53, size: 0x8, addend: 0x0, symName: '__ZN4core5array40_$LT$impl$u20$$u5b$T$u3b$$u20$N$u5d$$GT$3map17hc8dca75cf1e13863E', symObjAddr: 0x651C, symBinAddr: 0x2CDF44, symSize: 0x54 }
  - { offset: 0x221DCB, size: 0x8, addend: 0x0, symName: '__ZN4core5array40_$LT$impl$u20$$u5b$T$u3b$$u20$N$u5d$$GT$3map17hd2398dcfec823764E', symObjAddr: 0x6570, symBinAddr: 0x2CDF98, symSize: 0x48 }
  - { offset: 0x221E24, size: 0x8, addend: 0x0, symName: '__ZN4core5array40_$LT$impl$u20$$u5b$T$u3b$$u20$N$u5d$$GT$3map17hd82bc6745340f2c7E', symObjAddr: 0x65B8, symBinAddr: 0x2CDFE0, symSize: 0x44 }
  - { offset: 0x221E7D, size: 0x8, addend: 0x0, symName: '__ZN4core5array40_$LT$impl$u20$$u5b$T$u3b$$u20$N$u5d$$GT$3map17he8df937813c3a8f2E', symObjAddr: 0x65FC, symBinAddr: 0x2CE024, symSize: 0x4C }
  - { offset: 0x221ED5, size: 0x8, addend: 0x0, symName: '__ZN4core5array40_$LT$impl$u20$$u5b$T$u3b$$u20$N$u5d$$GT$3map17hedef7adc438adce7E', symObjAddr: 0x6648, symBinAddr: 0x2CE070, symSize: 0x54 }
  - { offset: 0x221F4D, size: 0x8, addend: 0x0, symName: '__ZN4core5array40_$LT$impl$u20$$u5b$T$u3b$$u20$N$u5d$$GT$3map17hf60eeace77e0f665E', symObjAddr: 0x669C, symBinAddr: 0x2CE0C4, symSize: 0x48 }
  - { offset: 0x221FA5, size: 0x8, addend: 0x0, symName: '__ZN4core5array40_$LT$impl$u20$$u5b$T$u3b$$u20$N$u5d$$GT$3map17hf6cb9ebe37be9528E', symObjAddr: 0x66E4, symBinAddr: 0x2CE10C, symSize: 0x40 }
  - { offset: 0x221FFD, size: 0x8, addend: 0x0, symName: '__ZN4core5array40_$LT$impl$u20$$u5b$T$u3b$$u20$N$u5d$$GT$7try_map17h09e260c53af4fcceE', symObjAddr: 0x6724, symBinAddr: 0x2CE14C, symSize: 0xB4 }
  - { offset: 0x22214C, size: 0x8, addend: 0x0, symName: '__ZN4core5array40_$LT$impl$u20$$u5b$T$u3b$$u20$N$u5d$$GT$7try_map17h0af7a1da976d3393E', symObjAddr: 0x67D8, symBinAddr: 0x2CE200, symSize: 0xBC }
  - { offset: 0x22229B, size: 0x8, addend: 0x0, symName: '__ZN4core5array40_$LT$impl$u20$$u5b$T$u3b$$u20$N$u5d$$GT$7try_map17h15460cbd4e0bdd58E', symObjAddr: 0x6894, symBinAddr: 0x2CE2BC, symSize: 0xB4 }
  - { offset: 0x2223EA, size: 0x8, addend: 0x0, symName: '__ZN4core5array40_$LT$impl$u20$$u5b$T$u3b$$u20$N$u5d$$GT$7try_map17h1b97829485376d15E', symObjAddr: 0x6948, symBinAddr: 0x2CE370, symSize: 0xB4 }
  - { offset: 0x222539, size: 0x8, addend: 0x0, symName: '__ZN4core5array40_$LT$impl$u20$$u5b$T$u3b$$u20$N$u5d$$GT$7try_map17h2a1b040b8b3cc1cfE', symObjAddr: 0x69FC, symBinAddr: 0x2CE424, symSize: 0xD4 }
  - { offset: 0x2226A2, size: 0x8, addend: 0x0, symName: '__ZN4core5array40_$LT$impl$u20$$u5b$T$u3b$$u20$N$u5d$$GT$7try_map17h2f57fc4064fe2dddE', symObjAddr: 0x6AD0, symBinAddr: 0x2CE4F8, symSize: 0xF4 }
  - { offset: 0x22280D, size: 0x8, addend: 0x0, symName: '__ZN4core5array40_$LT$impl$u20$$u5b$T$u3b$$u20$N$u5d$$GT$7try_map17h3745fd8abf3aa08eE', symObjAddr: 0x6BC4, symBinAddr: 0x2CE5EC, symSize: 0xF4 }
  - { offset: 0x222978, size: 0x8, addend: 0x0, symName: '__ZN4core5array40_$LT$impl$u20$$u5b$T$u3b$$u20$N$u5d$$GT$7try_map17h3ce2255795afb009E', symObjAddr: 0x6CB8, symBinAddr: 0x2CE6E0, symSize: 0xD8 }
  - { offset: 0x222AE1, size: 0x8, addend: 0x0, symName: '__ZN4core5array40_$LT$impl$u20$$u5b$T$u3b$$u20$N$u5d$$GT$7try_map17h450e27b99790fae4E', symObjAddr: 0x6D90, symBinAddr: 0x2CE7B8, symSize: 0xB4 }
  - { offset: 0x222C30, size: 0x8, addend: 0x0, symName: '__ZN4core5array40_$LT$impl$u20$$u5b$T$u3b$$u20$N$u5d$$GT$7try_map17h55d42c2880f0ca7aE', symObjAddr: 0x6E44, symBinAddr: 0x2CE86C, symSize: 0xBC }
  - { offset: 0x222D7F, size: 0x8, addend: 0x0, symName: '__ZN4core5array40_$LT$impl$u20$$u5b$T$u3b$$u20$N$u5d$$GT$7try_map17h58ec1532152eda3dE', symObjAddr: 0x6F00, symBinAddr: 0x2CE928, symSize: 0xB4 }
  - { offset: 0x222ECE, size: 0x8, addend: 0x0, symName: '__ZN4core5array40_$LT$impl$u20$$u5b$T$u3b$$u20$N$u5d$$GT$7try_map17h5ac69f7a973e8b80E', symObjAddr: 0x6FB4, symBinAddr: 0x2CE9DC, symSize: 0xBC }
  - { offset: 0x22301D, size: 0x8, addend: 0x0, symName: '__ZN4core5array40_$LT$impl$u20$$u5b$T$u3b$$u20$N$u5d$$GT$7try_map17h5c0c48aafe00da16E', symObjAddr: 0x7070, symBinAddr: 0x2CEA98, symSize: 0xBC }
  - { offset: 0x22316C, size: 0x8, addend: 0x0, symName: '__ZN4core5array40_$LT$impl$u20$$u5b$T$u3b$$u20$N$u5d$$GT$7try_map17h72d384ea2bb399a3E', symObjAddr: 0x712C, symBinAddr: 0x2CEB54, symSize: 0xDC }
  - { offset: 0x2232D5, size: 0x8, addend: 0x0, symName: '__ZN4core5array40_$LT$impl$u20$$u5b$T$u3b$$u20$N$u5d$$GT$7try_map17h78a0b82638c94cacE', symObjAddr: 0x7208, symBinAddr: 0x2CEC30, symSize: 0xBC }
  - { offset: 0x223424, size: 0x8, addend: 0x0, symName: '__ZN4core5array40_$LT$impl$u20$$u5b$T$u3b$$u20$N$u5d$$GT$7try_map17h7d905afeccaa56caE', symObjAddr: 0x72C4, symBinAddr: 0x2CECEC, symSize: 0xB4 }
  - { offset: 0x223573, size: 0x8, addend: 0x0, symName: '__ZN4core5array40_$LT$impl$u20$$u5b$T$u3b$$u20$N$u5d$$GT$7try_map17h80726e68204e9f4dE', symObjAddr: 0x7378, symBinAddr: 0x2CEDA0, symSize: 0xB4 }
  - { offset: 0x2236C2, size: 0x8, addend: 0x0, symName: '__ZN4core5array40_$LT$impl$u20$$u5b$T$u3b$$u20$N$u5d$$GT$7try_map17h88138ad4f33fe419E', symObjAddr: 0x742C, symBinAddr: 0x2CEE54, symSize: 0xB4 }
  - { offset: 0x223811, size: 0x8, addend: 0x0, symName: '__ZN4core5array40_$LT$impl$u20$$u5b$T$u3b$$u20$N$u5d$$GT$7try_map17h8bbbb88e3b1758f3E', symObjAddr: 0x74E0, symBinAddr: 0x2CEF08, symSize: 0xDC }
  - { offset: 0x22397B, size: 0x8, addend: 0x0, symName: '__ZN4core5array40_$LT$impl$u20$$u5b$T$u3b$$u20$N$u5d$$GT$7try_map17h931da45664c472b3E', symObjAddr: 0x75BC, symBinAddr: 0x2CEFE4, symSize: 0xBC }
  - { offset: 0x223ACA, size: 0x8, addend: 0x0, symName: '__ZN4core5array40_$LT$impl$u20$$u5b$T$u3b$$u20$N$u5d$$GT$7try_map17h975c4fb3d63bb7adE', symObjAddr: 0x7678, symBinAddr: 0x2CF0A0, symSize: 0xBC }
  - { offset: 0x223C19, size: 0x8, addend: 0x0, symName: '__ZN4core5array40_$LT$impl$u20$$u5b$T$u3b$$u20$N$u5d$$GT$7try_map17ha7535bd80f088f1aE', symObjAddr: 0x7734, symBinAddr: 0x2CF15C, symSize: 0xB4 }
  - { offset: 0x223D68, size: 0x8, addend: 0x0, symName: '__ZN4core5array40_$LT$impl$u20$$u5b$T$u3b$$u20$N$u5d$$GT$7try_map17haddcf4cec4f34ddfE', symObjAddr: 0x77E8, symBinAddr: 0x2CF210, symSize: 0xF4 }
  - { offset: 0x223ED3, size: 0x8, addend: 0x0, symName: '__ZN4core5array40_$LT$impl$u20$$u5b$T$u3b$$u20$N$u5d$$GT$7try_map17hb496a0ec85ec753fE', symObjAddr: 0x78DC, symBinAddr: 0x2CF304, symSize: 0xB4 }
  - { offset: 0x224022, size: 0x8, addend: 0x0, symName: '__ZN4core5array40_$LT$impl$u20$$u5b$T$u3b$$u20$N$u5d$$GT$7try_map17hc0d24630b06a6ce2E', symObjAddr: 0x7990, symBinAddr: 0x2CF3B8, symSize: 0xB4 }
  - { offset: 0x224171, size: 0x8, addend: 0x0, symName: '__ZN4core5array40_$LT$impl$u20$$u5b$T$u3b$$u20$N$u5d$$GT$7try_map17hcd5598cf4ee15ac2E', symObjAddr: 0x7A44, symBinAddr: 0x2CF46C, symSize: 0xB4 }
  - { offset: 0x2242C0, size: 0x8, addend: 0x0, symName: '__ZN4core5array40_$LT$impl$u20$$u5b$T$u3b$$u20$N$u5d$$GT$7try_map17hd627bd5088959b2dE', symObjAddr: 0x7AF8, symBinAddr: 0x2CF520, symSize: 0xB4 }
  - { offset: 0x22440F, size: 0x8, addend: 0x0, symName: '__ZN4core5array40_$LT$impl$u20$$u5b$T$u3b$$u20$N$u5d$$GT$7try_map17hd776f1617ea8c2c5E', symObjAddr: 0x7BAC, symBinAddr: 0x2CF5D4, symSize: 0xB4 }
  - { offset: 0x22455E, size: 0x8, addend: 0x0, symName: '__ZN4core5array40_$LT$impl$u20$$u5b$T$u3b$$u20$N$u5d$$GT$7try_map17he4f69b277389d922E', symObjAddr: 0x7C60, symBinAddr: 0x2CF688, symSize: 0xB4 }
  - { offset: 0x2246AD, size: 0x8, addend: 0x0, symName: '__ZN4core5array40_$LT$impl$u20$$u5b$T$u3b$$u20$N$u5d$$GT$7try_map17he53c52bd9dcbbfa3E', symObjAddr: 0x7D14, symBinAddr: 0x2CF73C, symSize: 0xB4 }
  - { offset: 0x22611F, size: 0x8, addend: 0x0, symName: '__ZN4core5array85_$LT$impl$u20$core..ops..index..Index$LT$I$GT$$u20$for$u20$$u5b$T$u3b$$u20$N$u5d$$GT$5index17h709ad417bdccb979E', symObjAddr: 0x7F58, symBinAddr: 0x2CF980, symSize: 0x50 }
  - { offset: 0x22619A, size: 0x8, addend: 0x0, symName: '__ZN4core5array69_$LT$impl$u20$core..fmt..Debug$u20$for$u20$$u5b$T$u3b$$u20$N$u5d$$GT$3fmt17h0f6fa147d16c0051E', symObjAddr: 0x7DC8, symBinAddr: 0x2CF7F0, symSize: 0x44 }
  - { offset: 0x226224, size: 0x8, addend: 0x0, symName: '__ZN4core5array69_$LT$impl$u20$core..fmt..Debug$u20$for$u20$$u5b$T$u3b$$u20$N$u5d$$GT$3fmt17h3b4a0ca6ac763998E', symObjAddr: 0x7E0C, symBinAddr: 0x2CF834, symSize: 0x44 }
  - { offset: 0x2262AE, size: 0x8, addend: 0x0, symName: '__ZN4core5array69_$LT$impl$u20$core..fmt..Debug$u20$for$u20$$u5b$T$u3b$$u20$N$u5d$$GT$3fmt17hace396fdfc4a1fc8E', symObjAddr: 0x7E50, symBinAddr: 0x2CF878, symSize: 0x44 }
  - { offset: 0x22633E, size: 0x8, addend: 0x0, symName: '__ZN4core5array71_$LT$impl$u20$core..clone..Clone$u20$for$u20$$u5b$T$u3b$$u20$N$u5d$$GT$5clone17h1b1ccb6ace98d2b8E', symObjAddr: 0x7E94, symBinAddr: 0x2CF8BC, symSize: 0x24 }
  - { offset: 0x226375, size: 0x8, addend: 0x0, symName: '__ZN4core5array71_$LT$impl$u20$core..clone..Clone$u20$for$u20$$u5b$T$u3b$$u20$N$u5d$$GT$5clone17hd31d76b66b047d90E', symObjAddr: 0x7EB8, symBinAddr: 0x2CF8E0, symSize: 0x24 }
  - { offset: 0x2263AC, size: 0x8, addend: 0x0, symName: '__ZN4core5array71_$LT$impl$u20$core..clone..Clone$u20$for$u20$$u5b$T$u3b$$u20$N$u5d$$GT$5clone17hdd047aac7b282fc4E', symObjAddr: 0x7EDC, symBinAddr: 0x2CF904, symSize: 0x34 }
  - { offset: 0x2263E9, size: 0x8, addend: 0x0, symName: '__ZN4core5array75_$LT$impl$u20$core..default..Default$u20$for$u20$$u5b$T$u3b$$u20$2$u5d$$GT$7default17hfa99664e0009ee9dE', symObjAddr: 0x7F10, symBinAddr: 0x2CF938, symSize: 0x20 }
  - { offset: 0x22642C, size: 0x8, addend: 0x0, symName: '__ZN4core5array75_$LT$impl$u20$core..default..Default$u20$for$u20$$u5b$T$u3b$$u20$3$u5d$$GT$7default17hdb0383b36160dc47E', symObjAddr: 0x7F30, symBinAddr: 0x2CF958, symSize: 0x28 }
  - { offset: 0x226484, size: 0x8, addend: 0x0, symName: '__ZN4core5array88_$LT$impl$u20$core..ops..index..IndexMut$LT$I$GT$$u20$for$u20$$u5b$T$u3b$$u20$N$u5d$$GT$9index_mut17hac60d05b239d7b98E', symObjAddr: 0x7FA8, symBinAddr: 0x2CF9D0, symSize: 0x50 }
  - { offset: 0x2264FF, size: 0x8, addend: 0x0, symName: '__ZN4core5array98_$LT$impl$u20$core..iter..traits..collect..IntoIterator$u20$for$u20$$RF$$u5b$T$u3b$$u20$N$u5d$$GT$9into_iter17h0a3522143d530db1E', symObjAddr: 0x7FF8, symBinAddr: 0x2CFA20, symSize: 0x58 }
  - { offset: 0x226635, size: 0x8, addend: 0x0, symName: '__ZN4core5array98_$LT$impl$u20$core..iter..traits..collect..IntoIterator$u20$for$u20$$RF$$u5b$T$u3b$$u20$N$u5d$$GT$9into_iter17h691777a2381edcb0E', symObjAddr: 0x8050, symBinAddr: 0x2CFA78, symSize: 0x58 }
  - { offset: 0x22676B, size: 0x8, addend: 0x0, symName: '__ZN4core5array98_$LT$impl$u20$core..iter..traits..collect..IntoIterator$u20$for$u20$$RF$$u5b$T$u3b$$u20$N$u5d$$GT$9into_iter17h76c0ca1775ffddddE', symObjAddr: 0x80A8, symBinAddr: 0x2CFAD0, symSize: 0x58 }
  - { offset: 0x2268A1, size: 0x8, addend: 0x0, symName: '__ZN4core5array98_$LT$impl$u20$core..iter..traits..collect..IntoIterator$u20$for$u20$$RF$$u5b$T$u3b$$u20$N$u5d$$GT$9into_iter17hc2907b38c7627334E', symObjAddr: 0x8100, symBinAddr: 0x2CFB28, symSize: 0x58 }
  - { offset: 0x22B9CD, size: 0x8, addend: 0x0, symName: '__ZN4core5array14Guard$LT$T$GT$14push_unchecked17h17a1e0915a387245E', symObjAddr: 0x1EFC, symBinAddr: 0x2C9924, symSize: 0xD8 }
  - { offset: 0x22BB9A, size: 0x8, addend: 0x0, symName: '__ZN4core5array14Guard$LT$T$GT$14push_unchecked17h1996c0aedfed3311E', symObjAddr: 0x1FD4, symBinAddr: 0x2C99FC, symSize: 0xD8 }
  - { offset: 0x22BD3B, size: 0x8, addend: 0x0, symName: '__ZN4core5array14Guard$LT$T$GT$14push_unchecked17h249727477f215a95E', symObjAddr: 0x20AC, symBinAddr: 0x2C9AD4, symSize: 0xD4 }
  - { offset: 0x22BEA8, size: 0x8, addend: 0x0, symName: '__ZN4core5array14Guard$LT$T$GT$14push_unchecked17h424aa02605534adfE', symObjAddr: 0x2180, symBinAddr: 0x2C9BA8, symSize: 0xE4 }
  - { offset: 0x22C017, size: 0x8, addend: 0x0, symName: '__ZN4core5array14Guard$LT$T$GT$14push_unchecked17hec597ecdb7cc4554E', symObjAddr: 0x2264, symBinAddr: 0x2C9C8C, symSize: 0xE4 }
  - { offset: 0x22E7CB, size: 0x8, addend: 0x0, symName: '__ZN100_$LT$core..iter..adapters..take..Take$LT$I$GT$$u20$as$u20$core..iter..traits..iterator..Iterator$GT$4next17hafb97a4cd4fa13d0E', symObjAddr: 0x0, symBinAddr: 0x2CFB80, symSize: 0x60 }
  - { offset: 0x22E834, size: 0x8, addend: 0x0, symName: '__ZN100_$LT$core..iter..adapters..take..Take$LT$I$GT$$u20$as$u20$core..iter..traits..iterator..Iterator$GT$4next17hafb97a4cd4fa13d0E', symObjAddr: 0x0, symBinAddr: 0x2CFB80, symSize: 0x60 }
  - { offset: 0x22E869, size: 0x8, addend: 0x0, symName: '__ZN100_$LT$core..iter..adapters..take..Take$LT$I$GT$$u20$as$u20$core..iter..traits..iterator..Iterator$GT$4next17hbe1d2c9162c1aeccE', symObjAddr: 0x60, symBinAddr: 0x2CFBE0, symSize: 0x60 }
  - { offset: 0x22E89E, size: 0x8, addend: 0x0, symName: '__ZN100_$LT$core..iter..adapters..take..Take$LT$I$GT$$u20$as$u20$core..iter..traits..iterator..Iterator$GT$8for_each17h74c1b7d092c3cffbE', symObjAddr: 0xC0, symBinAddr: 0x2CFC40, symSize: 0x24 }
  - { offset: 0x22E8E7, size: 0x8, addend: 0x0, symName: '__ZN100_$LT$core..iter..adapters..take..Take$LT$I$GT$$u20$as$u20$core..iter..traits..iterator..Iterator$GT$9size_hint17h20fbd5be9844fb76E', symObjAddr: 0xE4, symBinAddr: 0x2CFC64, symSize: 0x104 }
  - { offset: 0x22E9EA, size: 0x8, addend: 0x0, symName: '__ZN98_$LT$core..iter..adapters..take..Take$LT$I$GT$$u20$as$u20$core..iter..adapters..take..SpecTake$GT$13spec_for_each5check28_$u7b$$u7b$closure$u7d$$u7d$17hec7d78e3480383e3E', symObjAddr: 0x300, symBinAddr: 0x2CFE80, symSize: 0x90 }
  - { offset: 0x22EA6A, size: 0x8, addend: 0x0, symName: '__ZN98_$LT$core..iter..adapters..take..Take$LT$I$GT$$u20$as$u20$core..iter..adapters..take..SpecTake$GT$13spec_for_each17h9b158ebc4721bcf5E', symObjAddr: 0x25C, symBinAddr: 0x2CFDDC, symSize: 0xA4 }
  - { offset: 0x22EB7A, size: 0x8, addend: 0x0, symName: '__ZN63_$LT$I$u20$as$u20$core..iter..traits..collect..IntoIterator$GT$9into_iter17h1b71056b914c2390E', symObjAddr: 0x1E8, symBinAddr: 0x2CFD68, symSize: 0x30 }
  - { offset: 0x22EBB2, size: 0x8, addend: 0x0, symName: '__ZN63_$LT$I$u20$as$u20$core..iter..traits..collect..IntoIterator$GT$9into_iter17h8c278b7053d71bb6E', symObjAddr: 0x218, symBinAddr: 0x2CFD98, symSize: 0x30 }
  - { offset: 0x22EBEA, size: 0x8, addend: 0x0, symName: '__ZN63_$LT$I$u20$as$u20$core..iter..traits..collect..IntoIterator$GT$9into_iter17hff4d4e82a4aa3859E', symObjAddr: 0x248, symBinAddr: 0x2CFDC8, symSize: 0x14 }
  - { offset: 0x22F00F, size: 0x8, addend: 0x0, symName: __ZN3std9panicking12catch_unwind7do_call17h13ebb941c1a5cf32E, symObjAddr: 0x0, symBinAddr: 0x2CFF10, symSize: 0x80 }
  - { offset: 0x232062, size: 0x8, addend: 0x0, symName: __ZN3std9panicking12catch_unwind7do_call17h13ebb941c1a5cf32E, symObjAddr: 0x0, symBinAddr: 0x2CFF10, symSize: 0x80 }
  - { offset: 0x232149, size: 0x8, addend: 0x0, symName: __ZN3std9panicking12catch_unwind7do_call17h1710cec53f90e7f6E, symObjAddr: 0x80, symBinAddr: 0x2CFF90, symSize: 0x74 }
  - { offset: 0x23222F, size: 0x8, addend: 0x0, symName: __ZN3std9panicking12catch_unwind7do_call17h1b102ea9333783c7E, symObjAddr: 0xF4, symBinAddr: 0x2D0004, symSize: 0x78 }
  - { offset: 0x232316, size: 0x8, addend: 0x0, symName: __ZN3std9panicking12catch_unwind7do_call17h2bc3868717ecfd6aE, symObjAddr: 0x16C, symBinAddr: 0x2D007C, symSize: 0x80 }
  - { offset: 0x2323FD, size: 0x8, addend: 0x0, symName: __ZN3std9panicking12catch_unwind7do_call17h31845bda777c9c58E, symObjAddr: 0x1EC, symBinAddr: 0x2D00FC, symSize: 0x6C }
  - { offset: 0x2324E4, size: 0x8, addend: 0x0, symName: __ZN3std9panicking12catch_unwind7do_call17h41754dafe8eafbccE, symObjAddr: 0x258, symBinAddr: 0x2D0168, symSize: 0x74 }
  - { offset: 0x2325CA, size: 0x8, addend: 0x0, symName: __ZN3std9panicking12catch_unwind7do_call17h4e599399a2b94298E, symObjAddr: 0x2CC, symBinAddr: 0x2D01DC, symSize: 0x74 }
  - { offset: 0x2326B0, size: 0x8, addend: 0x0, symName: __ZN3std9panicking12catch_unwind7do_call17h4feb81d64c9396e2E, symObjAddr: 0x340, symBinAddr: 0x2D0250, symSize: 0x80 }
  - { offset: 0x232797, size: 0x8, addend: 0x0, symName: __ZN3std9panicking12catch_unwind7do_call17h5334f7b73127b69dE, symObjAddr: 0x3C0, symBinAddr: 0x2D02D0, symSize: 0x74 }
  - { offset: 0x23287D, size: 0x8, addend: 0x0, symName: __ZN3std9panicking12catch_unwind7do_call17h5ff6f4bdf0b22600E, symObjAddr: 0x434, symBinAddr: 0x2D0344, symSize: 0x74 }
  - { offset: 0x232963, size: 0x8, addend: 0x0, symName: __ZN3std9panicking12catch_unwind7do_call17h649c24deec27f7c5E, symObjAddr: 0x4A8, symBinAddr: 0x2D03B8, symSize: 0x80 }
  - { offset: 0x232A4A, size: 0x8, addend: 0x0, symName: __ZN3std9panicking12catch_unwind7do_call17h6d99fec253b61fd6E, symObjAddr: 0x528, symBinAddr: 0x2D0438, symSize: 0x74 }
  - { offset: 0x232B30, size: 0x8, addend: 0x0, symName: __ZN3std9panicking12catch_unwind7do_call17h89be90b415975df0E, symObjAddr: 0x59C, symBinAddr: 0x2D04AC, symSize: 0x80 }
  - { offset: 0x232C17, size: 0x8, addend: 0x0, symName: __ZN3std9panicking12catch_unwind7do_call17h89f5c28edd8bbf1aE, symObjAddr: 0x61C, symBinAddr: 0x2D052C, symSize: 0x74 }
  - { offset: 0x232CFD, size: 0x8, addend: 0x0, symName: __ZN3std9panicking12catch_unwind7do_call17ha3c41b7d3ac61240E, symObjAddr: 0x690, symBinAddr: 0x2D05A0, symSize: 0x80 }
  - { offset: 0x232DE4, size: 0x8, addend: 0x0, symName: __ZN3std9panicking12catch_unwind7do_call17hd6939d2f0a25ad4bE, symObjAddr: 0x710, symBinAddr: 0x2D0620, symSize: 0x80 }
  - { offset: 0x232ECB, size: 0x8, addend: 0x0, symName: __ZN3std9panicking12catch_unwind7do_call17hef6f27003c961af0E, symObjAddr: 0x790, symBinAddr: 0x2D06A0, symSize: 0x74 }
  - { offset: 0x232FB1, size: 0x8, addend: 0x0, symName: __ZN3std9panicking12catch_unwind7do_call17hf5dc8dce3d52b481E, symObjAddr: 0x804, symBinAddr: 0x2D0714, symSize: 0x80 }
  - { offset: 0x233098, size: 0x8, addend: 0x0, symName: __ZN3std9panicking12catch_unwind8do_catch17h00b10bc28c0971aeE, symObjAddr: 0x884, symBinAddr: 0x2D0794, symSize: 0x70 }
  - { offset: 0x23312D, size: 0x8, addend: 0x0, symName: __ZN3std9panicking12catch_unwind8do_catch17h0a70554d57e4c79eE, symObjAddr: 0x8F4, symBinAddr: 0x2D0804, symSize: 0x70 }
  - { offset: 0x2331C2, size: 0x8, addend: 0x0, symName: __ZN3std9panicking12catch_unwind8do_catch17h0e37f49cd68f1091E, symObjAddr: 0x964, symBinAddr: 0x2D0874, symSize: 0x70 }
  - { offset: 0x233257, size: 0x8, addend: 0x0, symName: __ZN3std9panicking12catch_unwind8do_catch17h1eaaae9a8ce12d75E, symObjAddr: 0x9D4, symBinAddr: 0x2D08E4, symSize: 0x70 }
  - { offset: 0x2332EC, size: 0x8, addend: 0x0, symName: __ZN3std9panicking12catch_unwind8do_catch17h3c558b074bb23045E, symObjAddr: 0xA44, symBinAddr: 0x2D0954, symSize: 0x70 }
  - { offset: 0x233381, size: 0x8, addend: 0x0, symName: __ZN3std9panicking12catch_unwind8do_catch17h3f303d953f5b526dE, symObjAddr: 0xAB4, symBinAddr: 0x2D09C4, symSize: 0x70 }
  - { offset: 0x233416, size: 0x8, addend: 0x0, symName: __ZN3std9panicking12catch_unwind8do_catch17h481d721e401a9eb0E, symObjAddr: 0xB24, symBinAddr: 0x2D0A34, symSize: 0x70 }
  - { offset: 0x2334AB, size: 0x8, addend: 0x0, symName: __ZN3std9panicking12catch_unwind8do_catch17h4b84464a30bf69fcE, symObjAddr: 0xB94, symBinAddr: 0x2D0AA4, symSize: 0x70 }
  - { offset: 0x233540, size: 0x8, addend: 0x0, symName: __ZN3std9panicking12catch_unwind8do_catch17h4d28ffc57aeca8d0E, symObjAddr: 0xC04, symBinAddr: 0x2D0B14, symSize: 0x70 }
  - { offset: 0x2335D5, size: 0x8, addend: 0x0, symName: __ZN3std9panicking12catch_unwind8do_catch17h6a90c078cd6561deE, symObjAddr: 0xC74, symBinAddr: 0x2D0B84, symSize: 0x70 }
  - { offset: 0x23366A, size: 0x8, addend: 0x0, symName: __ZN3std9panicking12catch_unwind8do_catch17h6f4541716d800b0dE, symObjAddr: 0xCE4, symBinAddr: 0x2D0BF4, symSize: 0x70 }
  - { offset: 0x2336FF, size: 0x8, addend: 0x0, symName: __ZN3std9panicking12catch_unwind8do_catch17h7f1416459cffd607E, symObjAddr: 0xD54, symBinAddr: 0x2D0C64, symSize: 0x70 }
  - { offset: 0x233794, size: 0x8, addend: 0x0, symName: __ZN3std9panicking12catch_unwind8do_catch17h837f218c446247abE, symObjAddr: 0xDC4, symBinAddr: 0x2D0CD4, symSize: 0x70 }
  - { offset: 0x233829, size: 0x8, addend: 0x0, symName: __ZN3std9panicking12catch_unwind8do_catch17h99f8ca7c31f41a58E, symObjAddr: 0xE34, symBinAddr: 0x2D0D44, symSize: 0x70 }
  - { offset: 0x2338BE, size: 0x8, addend: 0x0, symName: __ZN3std9panicking12catch_unwind8do_catch17hc6c4e874d3d82392E, symObjAddr: 0xEA4, symBinAddr: 0x2D0DB4, symSize: 0x70 }
  - { offset: 0x233953, size: 0x8, addend: 0x0, symName: __ZN3std9panicking12catch_unwind8do_catch17hc8f0f37a1fd427d3E, symObjAddr: 0xF14, symBinAddr: 0x2D0E24, symSize: 0x70 }
  - { offset: 0x2339E8, size: 0x8, addend: 0x0, symName: __ZN3std9panicking12catch_unwind8do_catch17hcdd9553a26e8705eE, symObjAddr: 0xF84, symBinAddr: 0x2D0E94, symSize: 0x70 }
  - { offset: 0x233A7D, size: 0x8, addend: 0x0, symName: __ZN3std9panicking12catch_unwind8do_catch17hd0702d1101507675E, symObjAddr: 0xFF4, symBinAddr: 0x2D0F04, symSize: 0x70 }
  - { offset: 0x234FE4, size: 0x8, addend: 0x0, symName: '__ZN51_$LT$f64$u20$as$u20$num_traits..identities..One$GT$3one17heef613a267798709E', symObjAddr: 0x0, symBinAddr: 0x2D0F74, symSize: 0x8 }
  - { offset: 0x235092, size: 0x8, addend: 0x0, symName: '__ZN51_$LT$f64$u20$as$u20$num_traits..identities..One$GT$3one17heef613a267798709E', symObjAddr: 0x0, symBinAddr: 0x2D0F74, symSize: 0x8 }
  - { offset: 0x2350B5, size: 0x8, addend: 0x0, symName: '__ZN51_$LT$i64$u20$as$u20$num_traits..identities..One$GT$3one17h9466a3ecbd2820d7E', symObjAddr: 0x8, symBinAddr: 0x2D0F7C, symSize: 0xC }
  - { offset: 0x2350D8, size: 0x8, addend: 0x0, symName: '__ZN52_$LT$f32$u20$as$u20$num_traits..identities..Zero$GT$4zero17h83aacb0d8b35a349E', symObjAddr: 0x14, symBinAddr: 0x2D0F88, symSize: 0x8 }
  - { offset: 0x2350FB, size: 0x8, addend: 0x0, symName: '__ZN52_$LT$f64$u20$as$u20$num_traits..identities..Zero$GT$4zero17h56dd85d08d30ad54E', symObjAddr: 0x1C, symBinAddr: 0x2D0F90, symSize: 0x8 }
  - { offset: 0x23511E, size: 0x8, addend: 0x0, symName: '__ZN52_$LT$i64$u20$as$u20$num_traits..identities..Zero$GT$4zero17h4c65c9a44cfc595eE', symObjAddr: 0x24, symBinAddr: 0x2D0F98, symSize: 0x8 }
  - { offset: 0x23513B, size: 0x8, addend: 0x0, symName: '__ZN52_$LT$i64$u20$as$u20$num_traits..identities..Zero$GT$7is_zero17h8c1cb803a13d5798E', symObjAddr: 0x2C, symBinAddr: 0x2D0FA0, symSize: 0x20 }
  - { offset: 0x23529D, size: 0x8, addend: 0x0, symName: '__ZN7rustfft9wasm_simd17wasm_simd_planner27FftPlannerWasmSimd$LT$T$GT$3new17he5eecec8365a56d7E', symObjAddr: 0x4C, symBinAddr: 0x2D0FC0, symSize: 0xC }
  - { offset: 0x2353AC, size: 0x8, addend: 0x0, symName: '__ZN7rustfft9wasm_simd17wasm_simd_planner27FftPlannerWasmSimd$LT$T$GT$8plan_fft17he33880322473e464E', symObjAddr: 0x58, symBinAddr: 0x2D0FCC, symSize: 0x34 }
  - { offset: 0x235436, size: 0x8, addend: 0x0, symName: '__ZN107_$LT$rustdct..algorithm..type2and3_butterflies..Type2And3Butterfly2$LT$T$GT$$u20$as$u20$rustfft..Length$GT$3len17h38386062f6f15b34E', symObjAddr: 0x0, symBinAddr: 0x2D1000, symSize: 0x18 }
  - { offset: 0x235457, size: 0x8, addend: 0x0, symName: '__ZN107_$LT$rustdct..algorithm..type2and3_butterflies..Type2And3Butterfly2$LT$T$GT$$u20$as$u20$rustfft..Length$GT$3len17h38386062f6f15b34E', symObjAddr: 0x0, symBinAddr: 0x2D1000, symSize: 0x18 }
  - { offset: 0x235492, size: 0x8, addend: 0x0, symName: '__ZN107_$LT$rustdct..algorithm..type2and3_butterflies..Type2And3Butterfly3$LT$T$GT$$u20$as$u20$rustfft..Length$GT$3len17h2972b09bcb25bb6dE', symObjAddr: 0x18, symBinAddr: 0x2D1018, symSize: 0x18 }
  - { offset: 0x2354CD, size: 0x8, addend: 0x0, symName: '__ZN107_$LT$rustdct..algorithm..type2and3_butterflies..Type2And3Butterfly4$LT$T$GT$$u20$as$u20$rustfft..Length$GT$3len17h77731dc3bab35e2bE', symObjAddr: 0x30, symBinAddr: 0x2D1030, symSize: 0x18 }
  - { offset: 0x235508, size: 0x8, addend: 0x0, symName: '__ZN107_$LT$rustdct..algorithm..type2and3_butterflies..Type2And3Butterfly8$LT$T$GT$$u20$as$u20$rustfft..Length$GT$3len17h3ecb78fde208bb93E', symObjAddr: 0x48, symBinAddr: 0x2D1048, symSize: 0x18 }
  - { offset: 0x235543, size: 0x8, addend: 0x0, symName: '__ZN108_$LT$rustdct..algorithm..type2and3_butterflies..Type2And3Butterfly16$LT$T$GT$$u20$as$u20$rustfft..Length$GT$3len17h53e353cfea295ab4E', symObjAddr: 0x60, symBinAddr: 0x2D1060, symSize: 0x18 }
  - { offset: 0x23557E, size: 0x8, addend: 0x0, symName: '__ZN114_$LT$rustdct..algorithm..type2and3_butterflies..Type2And3Butterfly2$LT$T$GT$$u20$as$u20$rustdct..Dct2$LT$T$GT$$GT$25process_dct2_with_scratch17h92f18250641a104bE', symObjAddr: 0x78, symBinAddr: 0x2D1078, symSize: 0x1F8 }
  - { offset: 0x2355E6, size: 0x8, addend: 0x0, symName: '__ZN114_$LT$rustdct..algorithm..type2and3_butterflies..Type2And3Butterfly2$LT$T$GT$$u20$as$u20$rustdct..Dct3$LT$T$GT$$GT$25process_dct3_with_scratch17h996ff2751aa8c9b8E', symObjAddr: 0x270, symBinAddr: 0x2D1270, symSize: 0x1BC }
  - { offset: 0x235663, size: 0x8, addend: 0x0, symName: '__ZN114_$LT$rustdct..algorithm..type2and3_butterflies..Type2And3Butterfly2$LT$T$GT$$u20$as$u20$rustdct..Dst2$LT$T$GT$$GT$25process_dst2_with_scratch17h8be3e0c51dad0ae2E', symObjAddr: 0x42C, symBinAddr: 0x2D142C, symSize: 0x1F8 }
  - { offset: 0x2356CB, size: 0x8, addend: 0x0, symName: '__ZN114_$LT$rustdct..algorithm..type2and3_butterflies..Type2And3Butterfly2$LT$T$GT$$u20$as$u20$rustdct..Dst3$LT$T$GT$$GT$25process_dst3_with_scratch17h0374b33ee7bfe3d3E', symObjAddr: 0x624, symBinAddr: 0x2D1624, symSize: 0x1BC }
  - { offset: 0x235748, size: 0x8, addend: 0x0, symName: '__ZN114_$LT$rustdct..algorithm..type2and3_butterflies..Type2And3Butterfly3$LT$T$GT$$u20$as$u20$rustdct..Dct2$LT$T$GT$$GT$25process_dct2_with_scratch17hc391a2748c1a4c66E', symObjAddr: 0x7E0, symBinAddr: 0x2D17E0, symSize: 0x84 }
  - { offset: 0x23579B, size: 0x8, addend: 0x0, symName: '__ZN114_$LT$rustdct..algorithm..type2and3_butterflies..Type2And3Butterfly3$LT$T$GT$$u20$as$u20$rustdct..Dct3$LT$T$GT$$GT$25process_dct3_with_scratch17h7f5af0e73a6346ccE', symObjAddr: 0x864, symBinAddr: 0x2D1864, symSize: 0x84 }
  - { offset: 0x2357EE, size: 0x8, addend: 0x0, symName: '__ZN114_$LT$rustdct..algorithm..type2and3_butterflies..Type2And3Butterfly3$LT$T$GT$$u20$as$u20$rustdct..Dst2$LT$T$GT$$GT$25process_dst2_with_scratch17hc5d8bc7eef74153bE', symObjAddr: 0x8E8, symBinAddr: 0x2D18E8, symSize: 0x84 }
  - { offset: 0x235841, size: 0x8, addend: 0x0, symName: '__ZN114_$LT$rustdct..algorithm..type2and3_butterflies..Type2And3Butterfly3$LT$T$GT$$u20$as$u20$rustdct..Dst3$LT$T$GT$$GT$25process_dst3_with_scratch17h95abc55de7bdf24cE', symObjAddr: 0x96C, symBinAddr: 0x2D196C, symSize: 0x84 }
  - { offset: 0x235894, size: 0x8, addend: 0x0, symName: '__ZN114_$LT$rustdct..algorithm..type2and3_butterflies..Type2And3Butterfly4$LT$T$GT$$u20$as$u20$rustdct..Dct2$LT$T$GT$$GT$25process_dct2_with_scratch17hc5c642a4b989b627E', symObjAddr: 0x9F0, symBinAddr: 0x2D19F0, symSize: 0x84 }
  - { offset: 0x2358E7, size: 0x8, addend: 0x0, symName: '__ZN114_$LT$rustdct..algorithm..type2and3_butterflies..Type2And3Butterfly4$LT$T$GT$$u20$as$u20$rustdct..Dct3$LT$T$GT$$GT$25process_dct3_with_scratch17h15e33e9333401d00E', symObjAddr: 0xA74, symBinAddr: 0x2D1A74, symSize: 0x84 }
  - { offset: 0x23593A, size: 0x8, addend: 0x0, symName: '__ZN114_$LT$rustdct..algorithm..type2and3_butterflies..Type2And3Butterfly4$LT$T$GT$$u20$as$u20$rustdct..Dst2$LT$T$GT$$GT$25process_dst2_with_scratch17hb87d0a9899e21fb5E', symObjAddr: 0xAF8, symBinAddr: 0x2D1AF8, symSize: 0x84 }
  - { offset: 0x23598D, size: 0x8, addend: 0x0, symName: '__ZN114_$LT$rustdct..algorithm..type2and3_butterflies..Type2And3Butterfly4$LT$T$GT$$u20$as$u20$rustdct..Dst3$LT$T$GT$$GT$25process_dst3_with_scratch17h46b1f4b65d588d4cE', symObjAddr: 0xB7C, symBinAddr: 0x2D1B7C, symSize: 0x84 }
  - { offset: 0x2359E0, size: 0x8, addend: 0x0, symName: '__ZN114_$LT$rustdct..algorithm..type2and3_butterflies..Type2And3Butterfly8$LT$T$GT$$u20$as$u20$rustdct..Dct2$LT$T$GT$$GT$25process_dct2_with_scratch17h4711382fe4f2e816E', symObjAddr: 0xC00, symBinAddr: 0x2D1C00, symSize: 0x84 }
  - { offset: 0x235A33, size: 0x8, addend: 0x0, symName: '__ZN114_$LT$rustdct..algorithm..type2and3_butterflies..Type2And3Butterfly8$LT$T$GT$$u20$as$u20$rustdct..Dct3$LT$T$GT$$GT$25process_dct3_with_scratch17h151e901b69878569E', symObjAddr: 0xC84, symBinAddr: 0x2D1C84, symSize: 0x84 }
  - { offset: 0x235A86, size: 0x8, addend: 0x0, symName: '__ZN114_$LT$rustdct..algorithm..type2and3_butterflies..Type2And3Butterfly8$LT$T$GT$$u20$as$u20$rustdct..Dst2$LT$T$GT$$GT$25process_dst2_with_scratch17h3d47ede27d624d7fE', symObjAddr: 0xD08, symBinAddr: 0x2D1D08, symSize: 0x84 }
  - { offset: 0x235AD9, size: 0x8, addend: 0x0, symName: '__ZN114_$LT$rustdct..algorithm..type2and3_butterflies..Type2And3Butterfly8$LT$T$GT$$u20$as$u20$rustdct..Dst3$LT$T$GT$$GT$25process_dst3_with_scratch17h0f0094dc46413bf0E', symObjAddr: 0xD8C, symBinAddr: 0x2D1D8C, symSize: 0x84 }
  - { offset: 0x235B2C, size: 0x8, addend: 0x0, symName: '__ZN115_$LT$rustdct..algorithm..type2and3_butterflies..Type2And3Butterfly16$LT$T$GT$$u20$as$u20$rustdct..Dct2$LT$T$GT$$GT$25process_dct2_with_scratch17h0a2a7b6bad444633E', symObjAddr: 0xE10, symBinAddr: 0x2D1E10, symSize: 0x84 }
  - { offset: 0x235B7F, size: 0x8, addend: 0x0, symName: '__ZN115_$LT$rustdct..algorithm..type2and3_butterflies..Type2And3Butterfly16$LT$T$GT$$u20$as$u20$rustdct..Dct3$LT$T$GT$$GT$25process_dct3_with_scratch17he16d218a1ea6b9a0E', symObjAddr: 0xE94, symBinAddr: 0x2D1E94, symSize: 0x84 }
  - { offset: 0x235BD2, size: 0x8, addend: 0x0, symName: '__ZN115_$LT$rustdct..algorithm..type2and3_butterflies..Type2And3Butterfly16$LT$T$GT$$u20$as$u20$rustdct..Dst2$LT$T$GT$$GT$25process_dst2_with_scratch17h05f9bc505a6805f4E', symObjAddr: 0xF18, symBinAddr: 0x2D1F18, symSize: 0x84 }
  - { offset: 0x235C25, size: 0x8, addend: 0x0, symName: '__ZN115_$LT$rustdct..algorithm..type2and3_butterflies..Type2And3Butterfly16$LT$T$GT$$u20$as$u20$rustdct..Dst3$LT$T$GT$$GT$25process_dst3_with_scratch17hea741d30c806def0E', symObjAddr: 0xF9C, symBinAddr: 0x2D1F9C, symSize: 0x84 }
  - { offset: 0x235C78, size: 0x8, addend: 0x0, symName: '__ZN116_$LT$rustdct..algorithm..type2and3_butterflies..Type2And3Butterfly2$LT$T$GT$$u20$as$u20$rustdct..RequiredScratch$GT$15get_scratch_len17habe747b2b3ada4bfE', symObjAddr: 0x1020, symBinAddr: 0x2D2020, symSize: 0x14 }
  - { offset: 0x235CB3, size: 0x8, addend: 0x0, symName: '__ZN116_$LT$rustdct..algorithm..type2and3_butterflies..Type2And3Butterfly3$LT$T$GT$$u20$as$u20$rustdct..RequiredScratch$GT$15get_scratch_len17h980f3c6a9f4ebd7aE', symObjAddr: 0x1034, symBinAddr: 0x2D2034, symSize: 0x14 }
  - { offset: 0x235CEE, size: 0x8, addend: 0x0, symName: '__ZN116_$LT$rustdct..algorithm..type2and3_butterflies..Type2And3Butterfly4$LT$T$GT$$u20$as$u20$rustdct..RequiredScratch$GT$15get_scratch_len17h34396a71c6571d0bE', symObjAddr: 0x1048, symBinAddr: 0x2D2048, symSize: 0x14 }
  - { offset: 0x235D29, size: 0x8, addend: 0x0, symName: '__ZN116_$LT$rustdct..algorithm..type2and3_butterflies..Type2And3Butterfly8$LT$T$GT$$u20$as$u20$rustdct..RequiredScratch$GT$15get_scratch_len17ha86a441f593610d7E', symObjAddr: 0x105C, symBinAddr: 0x2D205C, symSize: 0x14 }
  - { offset: 0x235D64, size: 0x8, addend: 0x0, symName: '__ZN117_$LT$rustdct..algorithm..type2and3_butterflies..Type2And3Butterfly16$LT$T$GT$$u20$as$u20$rustdct..RequiredScratch$GT$15get_scratch_len17haa1729a284482f3bE', symObjAddr: 0x1070, symBinAddr: 0x2D2070, symSize: 0x14 }
  - { offset: 0x2361A0, size: 0x8, addend: 0x0, symName: __ZN7rustdct4Dct212process_dct217h1d4bd8fe7cd6f40cE, symObjAddr: 0x1084, symBinAddr: 0x2D2084, symSize: 0xB0 }
  - { offset: 0x2361FE, size: 0x8, addend: 0x0, symName: __ZN7rustdct4Dct212process_dct217h390c653855efed79E, symObjAddr: 0x1134, symBinAddr: 0x2D2134, symSize: 0xB0 }
  - { offset: 0x23625C, size: 0x8, addend: 0x0, symName: __ZN7rustdct4Dct212process_dct217h5a09e44d994620b5E, symObjAddr: 0x11E4, symBinAddr: 0x2D21E4, symSize: 0xB0 }
  - { offset: 0x2362BA, size: 0x8, addend: 0x0, symName: __ZN7rustdct4Dct212process_dct217hbb3544536b13da14E, symObjAddr: 0x1294, symBinAddr: 0x2D2294, symSize: 0xB0 }
  - { offset: 0x236318, size: 0x8, addend: 0x0, symName: __ZN7rustdct4Dct212process_dct217hf3c446f451141783E, symObjAddr: 0x1344, symBinAddr: 0x2D2344, symSize: 0xB0 }
  - { offset: 0x23637C, size: 0x8, addend: 0x0, symName: __ZN7rustdct4Dct312process_dct317h54fd13679626674cE, symObjAddr: 0x13F4, symBinAddr: 0x2D23F4, symSize: 0xB0 }
  - { offset: 0x2363DA, size: 0x8, addend: 0x0, symName: __ZN7rustdct4Dct312process_dct317h8336f0835c17649cE, symObjAddr: 0x14A4, symBinAddr: 0x2D24A4, symSize: 0xB0 }
  - { offset: 0x236438, size: 0x8, addend: 0x0, symName: __ZN7rustdct4Dct312process_dct317h99c5d9a346e65bffE, symObjAddr: 0x1554, symBinAddr: 0x2D2554, symSize: 0xB0 }
  - { offset: 0x236496, size: 0x8, addend: 0x0, symName: __ZN7rustdct4Dct312process_dct317hf52422b7cf9265e8E, symObjAddr: 0x1604, symBinAddr: 0x2D2604, symSize: 0xB0 }
  - { offset: 0x2364F4, size: 0x8, addend: 0x0, symName: __ZN7rustdct4Dct312process_dct317hfb1ebfff1dc6218fE, symObjAddr: 0x16B4, symBinAddr: 0x2D26B4, symSize: 0xB0 }
  - { offset: 0x236558, size: 0x8, addend: 0x0, symName: __ZN7rustdct4Dst212process_dst217h2bc8d93e1d92d2d9E, symObjAddr: 0x1764, symBinAddr: 0x2D2764, symSize: 0xB0 }
  - { offset: 0x2365B6, size: 0x8, addend: 0x0, symName: __ZN7rustdct4Dst212process_dst217h59215bf63eaadbb8E, symObjAddr: 0x1814, symBinAddr: 0x2D2814, symSize: 0xB0 }
  - { offset: 0x236614, size: 0x8, addend: 0x0, symName: __ZN7rustdct4Dst212process_dst217hbc3d928b7611665eE, symObjAddr: 0x18C4, symBinAddr: 0x2D28C4, symSize: 0xB0 }
  - { offset: 0x236672, size: 0x8, addend: 0x0, symName: __ZN7rustdct4Dst212process_dst217hc8fcf071e5eda52aE, symObjAddr: 0x1974, symBinAddr: 0x2D2974, symSize: 0xB0 }
  - { offset: 0x2366D0, size: 0x8, addend: 0x0, symName: __ZN7rustdct4Dst212process_dst217hd3d0b3d30953f487E, symObjAddr: 0x1A24, symBinAddr: 0x2D2A24, symSize: 0xB0 }
  - { offset: 0x236734, size: 0x8, addend: 0x0, symName: __ZN7rustdct4Dst312process_dst317h4b77f4deb1b6b50eE, symObjAddr: 0x1AD4, symBinAddr: 0x2D2AD4, symSize: 0xB0 }
  - { offset: 0x236792, size: 0x8, addend: 0x0, symName: __ZN7rustdct4Dst312process_dst317h6a6cb7d066a514adE, symObjAddr: 0x1B84, symBinAddr: 0x2D2B84, symSize: 0xB0 }
  - { offset: 0x2367F0, size: 0x8, addend: 0x0, symName: __ZN7rustdct4Dst312process_dst317h7b5e07f9735366eeE, symObjAddr: 0x1C34, symBinAddr: 0x2D2C34, symSize: 0xB0 }
  - { offset: 0x23684E, size: 0x8, addend: 0x0, symName: __ZN7rustdct4Dst312process_dst317h98feb7551a4410a7E, symObjAddr: 0x1CE4, symBinAddr: 0x2D2CE4, symSize: 0xB0 }
  - { offset: 0x2368AC, size: 0x8, addend: 0x0, symName: __ZN7rustdct4Dst312process_dst317heb253cd35de69fc9E, symObjAddr: 0x1D94, symBinAddr: 0x2D2D94, symSize: 0xB0 }
  - { offset: 0x236BCE, size: 0x8, addend: 0x0, symName: '__ZN7rustdct9algorithm21type2and3_butterflies28Type2And3Butterfly2$LT$T$GT$20process_inplace_dct217h0aeab67144ba0d7dE', symObjAddr: 0x1E44, symBinAddr: 0x2D2E44, symSize: 0x14C }
  - { offset: 0x236C24, size: 0x8, addend: 0x0, symName: '__ZN7rustdct9algorithm21type2and3_butterflies28Type2And3Butterfly2$LT$T$GT$20process_inplace_dct317hb7480f3480e708a7E', symObjAddr: 0x1F90, symBinAddr: 0x2D2F90, symSize: 0x130 }
  - { offset: 0x236C97, size: 0x8, addend: 0x0, symName: '__ZN7rustdct9algorithm21type2and3_butterflies28Type2And3Butterfly2$LT$T$GT$20process_inplace_dst217hade7ff8a5ac2a9b0E', symObjAddr: 0x20C0, symBinAddr: 0x2D30C0, symSize: 0x14C }
  - { offset: 0x236CED, size: 0x8, addend: 0x0, symName: '__ZN7rustdct9algorithm21type2and3_butterflies28Type2And3Butterfly2$LT$T$GT$20process_inplace_dst317h524bf75516404f84E', symObjAddr: 0x220C, symBinAddr: 0x2D320C, symSize: 0x130 }
  - { offset: 0x236D60, size: 0x8, addend: 0x0, symName: '__ZN7rustdct9algorithm21type2and3_butterflies28Type2And3Butterfly2$LT$T$GT$22process_scattered_dct217h5bacfa99b8bfb892E', symObjAddr: 0x233C, symBinAddr: 0x2D333C, symSize: 0x13C }
  - { offset: 0x236DC4, size: 0x8, addend: 0x0, symName: '__ZN7rustdct9algorithm21type2and3_butterflies28Type2And3Butterfly2$LT$T$GT$22process_scattered_dct317he5c547557f8f14c9E', symObjAddr: 0x2478, symBinAddr: 0x2D3478, symSize: 0x120 }
  - { offset: 0x236E45, size: 0x8, addend: 0x0, symName: '__ZN7rustdct9algorithm21type2and3_butterflies28Type2And3Butterfly2$LT$T$GT$3new17he688f37e6f1a38b1E', symObjAddr: 0x2598, symBinAddr: 0x2D3598, symSize: 0x4 }
  - { offset: 0x236E6F, size: 0x8, addend: 0x0, symName: '__ZN7rustdct9algorithm21type2and3_butterflies28Type2And3Butterfly3$LT$T$GT$20process_inplace_dct217h4e23c3cb8916e830E', symObjAddr: 0x259C, symBinAddr: 0x2D359C, symSize: 0x1B4 }
  - { offset: 0x236EFF, size: 0x8, addend: 0x0, symName: '__ZN7rustdct9algorithm21type2and3_butterflies28Type2And3Butterfly3$LT$T$GT$20process_inplace_dct317h546d531ffd105a11E', symObjAddr: 0x2750, symBinAddr: 0x2D3750, symSize: 0x200 }
  - { offset: 0x236FAC, size: 0x8, addend: 0x0, symName: '__ZN7rustdct9algorithm21type2and3_butterflies28Type2And3Butterfly3$LT$T$GT$20process_inplace_dst217h821516bf5911f741E', symObjAddr: 0x2950, symBinAddr: 0x2D3950, symSize: 0x1B4 }
  - { offset: 0x23703C, size: 0x8, addend: 0x0, symName: '__ZN7rustdct9algorithm21type2and3_butterflies28Type2And3Butterfly3$LT$T$GT$20process_inplace_dst317ha764a16838a0d9f0E', symObjAddr: 0x2B04, symBinAddr: 0x2D3B04, symSize: 0x200 }
  - { offset: 0x23717B, size: 0x8, addend: 0x0, symName: '__ZN7rustdct9algorithm21type2and3_butterflies28Type2And3Butterfly3$LT$T$GT$3new17hcdf40f5f91df4ef6E', symObjAddr: 0x2D04, symBinAddr: 0x2D3D04, symSize: 0x74 }
  - { offset: 0x23724B, size: 0x8, addend: 0x0, symName: '__ZN7rustdct9algorithm21type2and3_butterflies28Type2And3Butterfly4$LT$T$GT$20process_inplace_dct217hc2a2b27bda30baf6E', symObjAddr: 0x2D78, symBinAddr: 0x2D3D78, symSize: 0x2EC }
  - { offset: 0x2372BE, size: 0x8, addend: 0x0, symName: '__ZN7rustdct9algorithm21type2and3_butterflies28Type2And3Butterfly4$LT$T$GT$20process_inplace_dct317hcafd8d6ecc0b33f4E', symObjAddr: 0x3064, symBinAddr: 0x2D4064, symSize: 0x2C4 }
  - { offset: 0x237331, size: 0x8, addend: 0x0, symName: '__ZN7rustdct9algorithm21type2and3_butterflies28Type2And3Butterfly4$LT$T$GT$20process_inplace_dst217hde645a08c410844aE', symObjAddr: 0x3328, symBinAddr: 0x2D4328, symSize: 0x2EC }
  - { offset: 0x2373A8, size: 0x8, addend: 0x0, symName: '__ZN7rustdct9algorithm21type2and3_butterflies28Type2And3Butterfly4$LT$T$GT$20process_inplace_dst317ha0bf15524e87ef93E', symObjAddr: 0x3614, symBinAddr: 0x2D4614, symSize: 0x2C8 }
  - { offset: 0x23741F, size: 0x8, addend: 0x0, symName: '__ZN7rustdct9algorithm21type2and3_butterflies28Type2And3Butterfly4$LT$T$GT$3new17h37a7b1df2c815668E', symObjAddr: 0x38DC, symBinAddr: 0x2D48DC, symSize: 0xC8 }
  - { offset: 0x2374F1, size: 0x8, addend: 0x0, symName: '__ZN7rustdct9algorithm21type2and3_butterflies28Type2And3Butterfly8$LT$T$GT$20process_inplace_dct217h684094a1f36c289bE', symObjAddr: 0x39A4, symBinAddr: 0x2D49A4, symSize: 0x64C }
  - { offset: 0x2375A7, size: 0x8, addend: 0x0, symName: '__ZN7rustdct9algorithm21type2and3_butterflies28Type2And3Butterfly8$LT$T$GT$20process_inplace_dct317he353dda247aede26E', symObjAddr: 0x3FF0, symBinAddr: 0x2D4FF0, symSize: 0x678 }
  - { offset: 0x2376C5, size: 0x8, addend: 0x0, symName: '__ZN7rustdct9algorithm21type2and3_butterflies28Type2And3Butterfly8$LT$T$GT$20process_inplace_dst217hfd7b68f94a2323a7E', symObjAddr: 0x4668, symBinAddr: 0x2D5668, symSize: 0x64C }
  - { offset: 0x23777B, size: 0x8, addend: 0x0, symName: '__ZN7rustdct9algorithm21type2and3_butterflies28Type2And3Butterfly8$LT$T$GT$20process_inplace_dst317h087894f0827ed206E', symObjAddr: 0x4CB4, symBinAddr: 0x2D5CB4, symSize: 0x5B0 }
  - { offset: 0x237832, size: 0x8, addend: 0x0, symName: '__ZN7rustdct9algorithm21type2and3_butterflies28Type2And3Butterfly8$LT$T$GT$3new17h6d2cce460138af9aE', symObjAddr: 0x5264, symBinAddr: 0x2D6264, symSize: 0x1F4 }
  - { offset: 0x23799B, size: 0x8, addend: 0x0, symName: '__ZN7rustdct9algorithm21type2and3_butterflies29Type2And3Butterfly16$LT$T$GT$20process_inplace_dct217hdbb52774cd450ac3E', symObjAddr: 0x5458, symBinAddr: 0x2D6458, symSize: 0xC4C }
  - { offset: 0x237A52, size: 0x8, addend: 0x0, symName: '__ZN7rustdct9algorithm21type2and3_butterflies29Type2And3Butterfly16$LT$T$GT$20process_inplace_dct317h3f3b69107457ed13E', symObjAddr: 0x60A4, symBinAddr: 0x2D70A4, symSize: 0x96C }
  - { offset: 0x237B59, size: 0x8, addend: 0x0, symName: '__ZN7rustdct9algorithm21type2and3_butterflies29Type2And3Butterfly16$LT$T$GT$20process_inplace_dst217h714cfc45151807c2E', symObjAddr: 0x6A10, symBinAddr: 0x2D7A10, symSize: 0xC4C }
  - { offset: 0x237C10, size: 0x8, addend: 0x0, symName: '__ZN7rustdct9algorithm21type2and3_butterflies29Type2And3Butterfly16$LT$T$GT$20process_inplace_dst317he98bb7ecbf23e0d3E', symObjAddr: 0x765C, symBinAddr: 0x2D865C, symSize: 0xB28 }
  - { offset: 0x237CC7, size: 0x8, addend: 0x0, symName: '__ZN7rustdct9algorithm21type2and3_butterflies29Type2And3Butterfly16$LT$T$GT$3new17h84859c6ea97ef230E', symObjAddr: 0x8184, symBinAddr: 0x2D9184, symSize: 0x3C8 }
  - { offset: 0x238058, size: 0x8, addend: 0x0, symName: '__ZN125_$LT$$RF$mut$u20$core..array..drain..Drain$LT$T$C$_$C$F$GT$$u20$as$u20$core..ops..function..FnMut$LT$$LP$usize$C$$RP$$GT$$GT$8call_mut17h0573daf825a4b65aE', symObjAddr: 0x0, symBinAddr: 0x2D954C, symSize: 0x7C }
  - { offset: 0x238C2E, size: 0x8, addend: 0x0, symName: '__ZN125_$LT$$RF$mut$u20$core..array..drain..Drain$LT$T$C$_$C$F$GT$$u20$as$u20$core..ops..function..FnMut$LT$$LP$usize$C$$RP$$GT$$GT$8call_mut17h0573daf825a4b65aE', symObjAddr: 0x0, symBinAddr: 0x2D954C, symSize: 0x7C }
  - { offset: 0x238CE3, size: 0x8, addend: 0x0, symName: '__ZN125_$LT$$RF$mut$u20$core..array..drain..Drain$LT$T$C$_$C$F$GT$$u20$as$u20$core..ops..function..FnMut$LT$$LP$usize$C$$RP$$GT$$GT$8call_mut17h06b918a371d01953E', symObjAddr: 0x7C, symBinAddr: 0x2D95C8, symSize: 0x58 }
  - { offset: 0x238D6B, size: 0x8, addend: 0x0, symName: '__ZN125_$LT$$RF$mut$u20$core..array..drain..Drain$LT$T$C$_$C$F$GT$$u20$as$u20$core..ops..function..FnMut$LT$$LP$usize$C$$RP$$GT$$GT$8call_mut17h06f89aa13be9c263E', symObjAddr: 0xD4, symBinAddr: 0x2D9620, symSize: 0x7C }
  - { offset: 0x238E20, size: 0x8, addend: 0x0, symName: '__ZN125_$LT$$RF$mut$u20$core..array..drain..Drain$LT$T$C$_$C$F$GT$$u20$as$u20$core..ops..function..FnMut$LT$$LP$usize$C$$RP$$GT$$GT$8call_mut17h08e36f955c1719c3E', symObjAddr: 0x150, symBinAddr: 0x2D969C, symSize: 0x7C }
  - { offset: 0x238ED5, size: 0x8, addend: 0x0, symName: '__ZN125_$LT$$RF$mut$u20$core..array..drain..Drain$LT$T$C$_$C$F$GT$$u20$as$u20$core..ops..function..FnMut$LT$$LP$usize$C$$RP$$GT$$GT$8call_mut17h0d0e73b0ca41e9cdE', symObjAddr: 0x1CC, symBinAddr: 0x2D9718, symSize: 0x60 }
  - { offset: 0x238F5D, size: 0x8, addend: 0x0, symName: '__ZN125_$LT$$RF$mut$u20$core..array..drain..Drain$LT$T$C$_$C$F$GT$$u20$as$u20$core..ops..function..FnMut$LT$$LP$usize$C$$RP$$GT$$GT$8call_mut17h0d7e98a98ca1df02E', symObjAddr: 0x22C, symBinAddr: 0x2D9778, symSize: 0x7C }
  - { offset: 0x239012, size: 0x8, addend: 0x0, symName: '__ZN125_$LT$$RF$mut$u20$core..array..drain..Drain$LT$T$C$_$C$F$GT$$u20$as$u20$core..ops..function..FnMut$LT$$LP$usize$C$$RP$$GT$$GT$8call_mut17h1976afb50e8680bfE', symObjAddr: 0x2A8, symBinAddr: 0x2D97F4, symSize: 0x78 }
  - { offset: 0x2390C7, size: 0x8, addend: 0x0, symName: '__ZN125_$LT$$RF$mut$u20$core..array..drain..Drain$LT$T$C$_$C$F$GT$$u20$as$u20$core..ops..function..FnMut$LT$$LP$usize$C$$RP$$GT$$GT$8call_mut17h1d59fdc6393b99eeE', symObjAddr: 0x320, symBinAddr: 0x2D986C, symSize: 0x60 }
  - { offset: 0x23914F, size: 0x8, addend: 0x0, symName: '__ZN125_$LT$$RF$mut$u20$core..array..drain..Drain$LT$T$C$_$C$F$GT$$u20$as$u20$core..ops..function..FnMut$LT$$LP$usize$C$$RP$$GT$$GT$8call_mut17h1fa17939c258d3adE', symObjAddr: 0x380, symBinAddr: 0x2D98CC, symSize: 0x60 }
  - { offset: 0x2391D7, size: 0x8, addend: 0x0, symName: '__ZN125_$LT$$RF$mut$u20$core..array..drain..Drain$LT$T$C$_$C$F$GT$$u20$as$u20$core..ops..function..FnMut$LT$$LP$usize$C$$RP$$GT$$GT$8call_mut17h2920d1282a8b0997E', symObjAddr: 0x3E0, symBinAddr: 0x2D992C, symSize: 0x78 }
  - { offset: 0x23928C, size: 0x8, addend: 0x0, symName: '__ZN125_$LT$$RF$mut$u20$core..array..drain..Drain$LT$T$C$_$C$F$GT$$u20$as$u20$core..ops..function..FnMut$LT$$LP$usize$C$$RP$$GT$$GT$8call_mut17h2af575321c22408cE', symObjAddr: 0x458, symBinAddr: 0x2D99A4, symSize: 0x7C }
  - { offset: 0x239341, size: 0x8, addend: 0x0, symName: '__ZN125_$LT$$RF$mut$u20$core..array..drain..Drain$LT$T$C$_$C$F$GT$$u20$as$u20$core..ops..function..FnMut$LT$$LP$usize$C$$RP$$GT$$GT$8call_mut17h31da2bf532a91193E', symObjAddr: 0x4D4, symBinAddr: 0x2D9A20, symSize: 0x7C }
  - { offset: 0x2393F6, size: 0x8, addend: 0x0, symName: '__ZN125_$LT$$RF$mut$u20$core..array..drain..Drain$LT$T$C$_$C$F$GT$$u20$as$u20$core..ops..function..FnMut$LT$$LP$usize$C$$RP$$GT$$GT$8call_mut17h32d3e4d793fc5115E', symObjAddr: 0x550, symBinAddr: 0x2D9A9C, symSize: 0x60 }
  - { offset: 0x23947E, size: 0x8, addend: 0x0, symName: '__ZN125_$LT$$RF$mut$u20$core..array..drain..Drain$LT$T$C$_$C$F$GT$$u20$as$u20$core..ops..function..FnMut$LT$$LP$usize$C$$RP$$GT$$GT$8call_mut17h372bfb59217b40e6E', symObjAddr: 0x5B0, symBinAddr: 0x2D9AFC, symSize: 0x7C }
  - { offset: 0x239533, size: 0x8, addend: 0x0, symName: '__ZN125_$LT$$RF$mut$u20$core..array..drain..Drain$LT$T$C$_$C$F$GT$$u20$as$u20$core..ops..function..FnMut$LT$$LP$usize$C$$RP$$GT$$GT$8call_mut17h4272a8928888c29dE', symObjAddr: 0x62C, symBinAddr: 0x2D9B78, symSize: 0x78 }
  - { offset: 0x2395E8, size: 0x8, addend: 0x0, symName: '__ZN125_$LT$$RF$mut$u20$core..array..drain..Drain$LT$T$C$_$C$F$GT$$u20$as$u20$core..ops..function..FnMut$LT$$LP$usize$C$$RP$$GT$$GT$8call_mut17h43c44de9121db031E', symObjAddr: 0x6A4, symBinAddr: 0x2D9BF0, symSize: 0x58 }
  - { offset: 0x239670, size: 0x8, addend: 0x0, symName: '__ZN125_$LT$$RF$mut$u20$core..array..drain..Drain$LT$T$C$_$C$F$GT$$u20$as$u20$core..ops..function..FnMut$LT$$LP$usize$C$$RP$$GT$$GT$8call_mut17h442492f203f32db9E', symObjAddr: 0x6FC, symBinAddr: 0x2D9C48, symSize: 0x7C }
  - { offset: 0x239725, size: 0x8, addend: 0x0, symName: '__ZN125_$LT$$RF$mut$u20$core..array..drain..Drain$LT$T$C$_$C$F$GT$$u20$as$u20$core..ops..function..FnMut$LT$$LP$usize$C$$RP$$GT$$GT$8call_mut17h465eb0e57fb5142bE', symObjAddr: 0x778, symBinAddr: 0x2D9CC4, symSize: 0x7C }
  - { offset: 0x2397DA, size: 0x8, addend: 0x0, symName: '__ZN125_$LT$$RF$mut$u20$core..array..drain..Drain$LT$T$C$_$C$F$GT$$u20$as$u20$core..ops..function..FnMut$LT$$LP$usize$C$$RP$$GT$$GT$8call_mut17h4713c4638a1c400dE', symObjAddr: 0x7F4, symBinAddr: 0x2D9D40, symSize: 0x7C }
  - { offset: 0x23988F, size: 0x8, addend: 0x0, symName: '__ZN125_$LT$$RF$mut$u20$core..array..drain..Drain$LT$T$C$_$C$F$GT$$u20$as$u20$core..ops..function..FnMut$LT$$LP$usize$C$$RP$$GT$$GT$8call_mut17h4738ace3d5855e8dE', symObjAddr: 0x870, symBinAddr: 0x2D9DBC, symSize: 0x7C }
  - { offset: 0x239944, size: 0x8, addend: 0x0, symName: '__ZN125_$LT$$RF$mut$u20$core..array..drain..Drain$LT$T$C$_$C$F$GT$$u20$as$u20$core..ops..function..FnMut$LT$$LP$usize$C$$RP$$GT$$GT$8call_mut17h480c96441dffd63eE', symObjAddr: 0x8EC, symBinAddr: 0x2D9E38, symSize: 0x58 }
  - { offset: 0x2399CC, size: 0x8, addend: 0x0, symName: '__ZN125_$LT$$RF$mut$u20$core..array..drain..Drain$LT$T$C$_$C$F$GT$$u20$as$u20$core..ops..function..FnMut$LT$$LP$usize$C$$RP$$GT$$GT$8call_mut17h4cc0780b0a195a3dE', symObjAddr: 0x944, symBinAddr: 0x2D9E90, symSize: 0x7C }
  - { offset: 0x239A81, size: 0x8, addend: 0x0, symName: '__ZN125_$LT$$RF$mut$u20$core..array..drain..Drain$LT$T$C$_$C$F$GT$$u20$as$u20$core..ops..function..FnMut$LT$$LP$usize$C$$RP$$GT$$GT$8call_mut17h5283f023526d4450E', symObjAddr: 0x9C0, symBinAddr: 0x2D9F0C, symSize: 0x60 }
  - { offset: 0x239B09, size: 0x8, addend: 0x0, symName: '__ZN125_$LT$$RF$mut$u20$core..array..drain..Drain$LT$T$C$_$C$F$GT$$u20$as$u20$core..ops..function..FnMut$LT$$LP$usize$C$$RP$$GT$$GT$8call_mut17h5925e12bbf24971fE', symObjAddr: 0xA20, symBinAddr: 0x2D9F6C, symSize: 0x60 }
  - { offset: 0x239B91, size: 0x8, addend: 0x0, symName: '__ZN125_$LT$$RF$mut$u20$core..array..drain..Drain$LT$T$C$_$C$F$GT$$u20$as$u20$core..ops..function..FnMut$LT$$LP$usize$C$$RP$$GT$$GT$8call_mut17h5c766e10f2e3ec2bE', symObjAddr: 0xA80, symBinAddr: 0x2D9FCC, symSize: 0x7C }
  - { offset: 0x239C46, size: 0x8, addend: 0x0, symName: '__ZN125_$LT$$RF$mut$u20$core..array..drain..Drain$LT$T$C$_$C$F$GT$$u20$as$u20$core..ops..function..FnMut$LT$$LP$usize$C$$RP$$GT$$GT$8call_mut17h6b099ee5b8a46104E', symObjAddr: 0xAFC, symBinAddr: 0x2DA048, symSize: 0x7C }
  - { offset: 0x239CFB, size: 0x8, addend: 0x0, symName: '__ZN125_$LT$$RF$mut$u20$core..array..drain..Drain$LT$T$C$_$C$F$GT$$u20$as$u20$core..ops..function..FnMut$LT$$LP$usize$C$$RP$$GT$$GT$8call_mut17h6cd49423fd2b9208E', symObjAddr: 0xB78, symBinAddr: 0x2DA0C4, symSize: 0x78 }
  - { offset: 0x239DB0, size: 0x8, addend: 0x0, symName: '__ZN125_$LT$$RF$mut$u20$core..array..drain..Drain$LT$T$C$_$C$F$GT$$u20$as$u20$core..ops..function..FnMut$LT$$LP$usize$C$$RP$$GT$$GT$8call_mut17h7140668e5dd7e8ffE', symObjAddr: 0xBF0, symBinAddr: 0x2DA13C, symSize: 0x60 }
  - { offset: 0x239E38, size: 0x8, addend: 0x0, symName: '__ZN125_$LT$$RF$mut$u20$core..array..drain..Drain$LT$T$C$_$C$F$GT$$u20$as$u20$core..ops..function..FnMut$LT$$LP$usize$C$$RP$$GT$$GT$8call_mut17h71e5c17650894d75E', symObjAddr: 0xC50, symBinAddr: 0x2DA19C, symSize: 0x60 }
  - { offset: 0x239EC0, size: 0x8, addend: 0x0, symName: '__ZN125_$LT$$RF$mut$u20$core..array..drain..Drain$LT$T$C$_$C$F$GT$$u20$as$u20$core..ops..function..FnMut$LT$$LP$usize$C$$RP$$GT$$GT$8call_mut17h71fd8af56903b51fE', symObjAddr: 0xCB0, symBinAddr: 0x2DA1FC, symSize: 0x7C }
  - { offset: 0x239F75, size: 0x8, addend: 0x0, symName: '__ZN125_$LT$$RF$mut$u20$core..array..drain..Drain$LT$T$C$_$C$F$GT$$u20$as$u20$core..ops..function..FnMut$LT$$LP$usize$C$$RP$$GT$$GT$8call_mut17h7838408ffafa7d6fE', symObjAddr: 0xD2C, symBinAddr: 0x2DA278, symSize: 0x7C }
  - { offset: 0x23A02A, size: 0x8, addend: 0x0, symName: '__ZN125_$LT$$RF$mut$u20$core..array..drain..Drain$LT$T$C$_$C$F$GT$$u20$as$u20$core..ops..function..FnMut$LT$$LP$usize$C$$RP$$GT$$GT$8call_mut17h7ec7bf4d3e7cf2a3E', symObjAddr: 0xDA8, symBinAddr: 0x2DA2F4, symSize: 0x7C }
  - { offset: 0x23A0DF, size: 0x8, addend: 0x0, symName: '__ZN125_$LT$$RF$mut$u20$core..array..drain..Drain$LT$T$C$_$C$F$GT$$u20$as$u20$core..ops..function..FnMut$LT$$LP$usize$C$$RP$$GT$$GT$8call_mut17h804e7a4970f9ab69E', symObjAddr: 0xE24, symBinAddr: 0x2DA370, symSize: 0x78 }
  - { offset: 0x23A194, size: 0x8, addend: 0x0, symName: '__ZN125_$LT$$RF$mut$u20$core..array..drain..Drain$LT$T$C$_$C$F$GT$$u20$as$u20$core..ops..function..FnMut$LT$$LP$usize$C$$RP$$GT$$GT$8call_mut17h8306a9625b3b0a6fE', symObjAddr: 0xE9C, symBinAddr: 0x2DA3E8, symSize: 0x58 }
  - { offset: 0x23A21C, size: 0x8, addend: 0x0, symName: '__ZN125_$LT$$RF$mut$u20$core..array..drain..Drain$LT$T$C$_$C$F$GT$$u20$as$u20$core..ops..function..FnMut$LT$$LP$usize$C$$RP$$GT$$GT$8call_mut17h86280bb2e9f018adE', symObjAddr: 0xEF4, symBinAddr: 0x2DA440, symSize: 0x7C }
  - { offset: 0x23A2D1, size: 0x8, addend: 0x0, symName: '__ZN125_$LT$$RF$mut$u20$core..array..drain..Drain$LT$T$C$_$C$F$GT$$u20$as$u20$core..ops..function..FnMut$LT$$LP$usize$C$$RP$$GT$$GT$8call_mut17h86eb13bd80d3728fE', symObjAddr: 0xF70, symBinAddr: 0x2DA4BC, symSize: 0x7C }
  - { offset: 0x23A386, size: 0x8, addend: 0x0, symName: '__ZN125_$LT$$RF$mut$u20$core..array..drain..Drain$LT$T$C$_$C$F$GT$$u20$as$u20$core..ops..function..FnMut$LT$$LP$usize$C$$RP$$GT$$GT$8call_mut17h91763bf1f3954448E', symObjAddr: 0xFEC, symBinAddr: 0x2DA538, symSize: 0x7C }
  - { offset: 0x23A43B, size: 0x8, addend: 0x0, symName: '__ZN125_$LT$$RF$mut$u20$core..array..drain..Drain$LT$T$C$_$C$F$GT$$u20$as$u20$core..ops..function..FnMut$LT$$LP$usize$C$$RP$$GT$$GT$8call_mut17h97a2676eb346c40bE', symObjAddr: 0x1068, symBinAddr: 0x2DA5B4, symSize: 0x7C }
  - { offset: 0x23A4F0, size: 0x8, addend: 0x0, symName: '__ZN125_$LT$$RF$mut$u20$core..array..drain..Drain$LT$T$C$_$C$F$GT$$u20$as$u20$core..ops..function..FnMut$LT$$LP$usize$C$$RP$$GT$$GT$8call_mut17h98777e40963316c9E', symObjAddr: 0x10E4, symBinAddr: 0x2DA630, symSize: 0x7C }
  - { offset: 0x23A5A5, size: 0x8, addend: 0x0, symName: '__ZN125_$LT$$RF$mut$u20$core..array..drain..Drain$LT$T$C$_$C$F$GT$$u20$as$u20$core..ops..function..FnMut$LT$$LP$usize$C$$RP$$GT$$GT$8call_mut17h9a6afc373daedd71E', symObjAddr: 0x1160, symBinAddr: 0x2DA6AC, symSize: 0x58 }
  - { offset: 0x23A62D, size: 0x8, addend: 0x0, symName: '__ZN125_$LT$$RF$mut$u20$core..array..drain..Drain$LT$T$C$_$C$F$GT$$u20$as$u20$core..ops..function..FnMut$LT$$LP$usize$C$$RP$$GT$$GT$8call_mut17ha492ad526d6eefb3E', symObjAddr: 0x11B8, symBinAddr: 0x2DA704, symSize: 0x60 }
  - { offset: 0x23A6B5, size: 0x8, addend: 0x0, symName: '__ZN125_$LT$$RF$mut$u20$core..array..drain..Drain$LT$T$C$_$C$F$GT$$u20$as$u20$core..ops..function..FnMut$LT$$LP$usize$C$$RP$$GT$$GT$8call_mut17ha78c18b79e2b1f13E', symObjAddr: 0x1218, symBinAddr: 0x2DA764, symSize: 0x60 }
  - { offset: 0x23A73D, size: 0x8, addend: 0x0, symName: '__ZN125_$LT$$RF$mut$u20$core..array..drain..Drain$LT$T$C$_$C$F$GT$$u20$as$u20$core..ops..function..FnMut$LT$$LP$usize$C$$RP$$GT$$GT$8call_mut17hac5663a060d224b2E', symObjAddr: 0x1278, symBinAddr: 0x2DA7C4, symSize: 0x60 }
  - { offset: 0x23A7C5, size: 0x8, addend: 0x0, symName: '__ZN125_$LT$$RF$mut$u20$core..array..drain..Drain$LT$T$C$_$C$F$GT$$u20$as$u20$core..ops..function..FnMut$LT$$LP$usize$C$$RP$$GT$$GT$8call_mut17haed959395801a7bfE', symObjAddr: 0x12D8, symBinAddr: 0x2DA824, symSize: 0x60 }
  - { offset: 0x23A84D, size: 0x8, addend: 0x0, symName: '__ZN125_$LT$$RF$mut$u20$core..array..drain..Drain$LT$T$C$_$C$F$GT$$u20$as$u20$core..ops..function..FnMut$LT$$LP$usize$C$$RP$$GT$$GT$8call_mut17hb2b792a2e8cc4ad5E', symObjAddr: 0x1338, symBinAddr: 0x2DA884, symSize: 0x58 }
  - { offset: 0x23A8D5, size: 0x8, addend: 0x0, symName: '__ZN125_$LT$$RF$mut$u20$core..array..drain..Drain$LT$T$C$_$C$F$GT$$u20$as$u20$core..ops..function..FnMut$LT$$LP$usize$C$$RP$$GT$$GT$8call_mut17hb2f9d298f19c9ef6E', symObjAddr: 0x1390, symBinAddr: 0x2DA8DC, symSize: 0x60 }
  - { offset: 0x23A95D, size: 0x8, addend: 0x0, symName: '__ZN125_$LT$$RF$mut$u20$core..array..drain..Drain$LT$T$C$_$C$F$GT$$u20$as$u20$core..ops..function..FnMut$LT$$LP$usize$C$$RP$$GT$$GT$8call_mut17hb5a79522c7649979E', symObjAddr: 0x13F0, symBinAddr: 0x2DA93C, symSize: 0x7C }
  - { offset: 0x23AA12, size: 0x8, addend: 0x0, symName: '__ZN125_$LT$$RF$mut$u20$core..array..drain..Drain$LT$T$C$_$C$F$GT$$u20$as$u20$core..ops..function..FnMut$LT$$LP$usize$C$$RP$$GT$$GT$8call_mut17hbdbea4223cfe459cE', symObjAddr: 0x146C, symBinAddr: 0x2DA9B8, symSize: 0x7C }
  - { offset: 0x23AAC7, size: 0x8, addend: 0x0, symName: '__ZN125_$LT$$RF$mut$u20$core..array..drain..Drain$LT$T$C$_$C$F$GT$$u20$as$u20$core..ops..function..FnMut$LT$$LP$usize$C$$RP$$GT$$GT$8call_mut17hbe3f109eee4db2a0E', symObjAddr: 0x14E8, symBinAddr: 0x2DAA34, symSize: 0x7C }
  - { offset: 0x23AB7C, size: 0x8, addend: 0x0, symName: '__ZN125_$LT$$RF$mut$u20$core..array..drain..Drain$LT$T$C$_$C$F$GT$$u20$as$u20$core..ops..function..FnMut$LT$$LP$usize$C$$RP$$GT$$GT$8call_mut17hcb0998c768aff2caE', symObjAddr: 0x1564, symBinAddr: 0x2DAAB0, symSize: 0x7C }
  - { offset: 0x23AC31, size: 0x8, addend: 0x0, symName: '__ZN125_$LT$$RF$mut$u20$core..array..drain..Drain$LT$T$C$_$C$F$GT$$u20$as$u20$core..ops..function..FnMut$LT$$LP$usize$C$$RP$$GT$$GT$8call_mut17hd2a4f179f0f8a4eaE', symObjAddr: 0x15E0, symBinAddr: 0x2DAB2C, symSize: 0x60 }
  - { offset: 0x23ACB9, size: 0x8, addend: 0x0, symName: '__ZN125_$LT$$RF$mut$u20$core..array..drain..Drain$LT$T$C$_$C$F$GT$$u20$as$u20$core..ops..function..FnMut$LT$$LP$usize$C$$RP$$GT$$GT$8call_mut17hd44f21afebeae25cE', symObjAddr: 0x1640, symBinAddr: 0x2DAB8C, symSize: 0x7C }
  - { offset: 0x23AD6E, size: 0x8, addend: 0x0, symName: '__ZN125_$LT$$RF$mut$u20$core..array..drain..Drain$LT$T$C$_$C$F$GT$$u20$as$u20$core..ops..function..FnMut$LT$$LP$usize$C$$RP$$GT$$GT$8call_mut17hd4f439d108b27167E', symObjAddr: 0x16BC, symBinAddr: 0x2DAC08, symSize: 0x78 }
  - { offset: 0x23AE23, size: 0x8, addend: 0x0, symName: '__ZN125_$LT$$RF$mut$u20$core..array..drain..Drain$LT$T$C$_$C$F$GT$$u20$as$u20$core..ops..function..FnMut$LT$$LP$usize$C$$RP$$GT$$GT$8call_mut17hd8c684b07a4f9de4E', symObjAddr: 0x1734, symBinAddr: 0x2DAC80, symSize: 0x7C }
  - { offset: 0x23AED8, size: 0x8, addend: 0x0, symName: '__ZN125_$LT$$RF$mut$u20$core..array..drain..Drain$LT$T$C$_$C$F$GT$$u20$as$u20$core..ops..function..FnMut$LT$$LP$usize$C$$RP$$GT$$GT$8call_mut17he13aedbc8567dde0E', symObjAddr: 0x17B0, symBinAddr: 0x2DACFC, symSize: 0x78 }
  - { offset: 0x23AF8D, size: 0x8, addend: 0x0, symName: '__ZN125_$LT$$RF$mut$u20$core..array..drain..Drain$LT$T$C$_$C$F$GT$$u20$as$u20$core..ops..function..FnMut$LT$$LP$usize$C$$RP$$GT$$GT$8call_mut17he9562aa9f1b3d99cE', symObjAddr: 0x1828, symBinAddr: 0x2DAD74, symSize: 0x58 }
  - { offset: 0x23B015, size: 0x8, addend: 0x0, symName: '__ZN125_$LT$$RF$mut$u20$core..array..drain..Drain$LT$T$C$_$C$F$GT$$u20$as$u20$core..ops..function..FnMut$LT$$LP$usize$C$$RP$$GT$$GT$8call_mut17heabee354698d35bbE', symObjAddr: 0x1880, symBinAddr: 0x2DADCC, symSize: 0x7C }
  - { offset: 0x23B0CA, size: 0x8, addend: 0x0, symName: '__ZN125_$LT$$RF$mut$u20$core..array..drain..Drain$LT$T$C$_$C$F$GT$$u20$as$u20$core..ops..function..FnMut$LT$$LP$usize$C$$RP$$GT$$GT$8call_mut17heb2b8dfe5aa7a402E', symObjAddr: 0x18FC, symBinAddr: 0x2DAE48, symSize: 0x60 }
  - { offset: 0x23B152, size: 0x8, addend: 0x0, symName: '__ZN125_$LT$$RF$mut$u20$core..array..drain..Drain$LT$T$C$_$C$F$GT$$u20$as$u20$core..ops..function..FnMut$LT$$LP$usize$C$$RP$$GT$$GT$8call_mut17hf277e19b18c17d79E', symObjAddr: 0x195C, symBinAddr: 0x2DAEA8, symSize: 0x60 }
  - { offset: 0x23B1DA, size: 0x8, addend: 0x0, symName: '__ZN125_$LT$$RF$mut$u20$core..array..drain..Drain$LT$T$C$_$C$F$GT$$u20$as$u20$core..ops..function..FnMut$LT$$LP$usize$C$$RP$$GT$$GT$8call_mut17hf6fb037802b4eb80E', symObjAddr: 0x19BC, symBinAddr: 0x2DAF08, symSize: 0x7C }
  - { offset: 0x23B28F, size: 0x8, addend: 0x0, symName: '__ZN125_$LT$$RF$mut$u20$core..array..drain..Drain$LT$T$C$_$C$F$GT$$u20$as$u20$core..ops..function..FnMut$LT$$LP$usize$C$$RP$$GT$$GT$8call_mut17hf97f438951106c93E', symObjAddr: 0x1A38, symBinAddr: 0x2DAF84, symSize: 0x7C }
  - { offset: 0x23B344, size: 0x8, addend: 0x0, symName: '__ZN125_$LT$$RF$mut$u20$core..array..drain..Drain$LT$T$C$_$C$F$GT$$u20$as$u20$core..ops..function..FnMut$LT$$LP$usize$C$$RP$$GT$$GT$8call_mut17hfd85a9ac45502bdcE', symObjAddr: 0x1AB4, symBinAddr: 0x2DB000, symSize: 0x7C }
  - { offset: 0x23F5A1, size: 0x8, addend: 0x0, symName: '__ZN107_$LT$bincode..config..WithOtherLimit$LT$O$C$L$GT$$u20$as$u20$bincode..config..internal..InternalOptions$GT$5limit17h165999ec73acda84E', symObjAddr: 0x0, symBinAddr: 0x2DB07C, symSize: 0x14 }
  - { offset: 0x23F5BD, size: 0x8, addend: 0x0, symName: '__ZN107_$LT$bincode..config..WithOtherLimit$LT$O$C$L$GT$$u20$as$u20$bincode..config..internal..InternalOptions$GT$5limit17h165999ec73acda84E', symObjAddr: 0x0, symBinAddr: 0x2DB07C, symSize: 0x14 }
  - { offset: 0x23F603, size: 0x8, addend: 0x0, symName: '__ZN110_$LT$bincode..config..WithOtherTrailing$LT$O$C$T$GT$$u20$as$u20$bincode..config..internal..InternalOptions$GT$5limit17h9f4ad078752fe071E', symObjAddr: 0x14, symBinAddr: 0x2DB090, symSize: 0x24 }
  - { offset: 0x23F649, size: 0x8, addend: 0x0, symName: '__ZN113_$LT$bincode..config..WithOtherIntEncoding$LT$O$C$I$GT$$u20$as$u20$bincode..config..internal..InternalOptions$GT$5limit17h218828d050e5ae0cE', symObjAddr: 0x38, symBinAddr: 0x2DB0B4, symSize: 0x1C }
  - { offset: 0x23F68F, size: 0x8, addend: 0x0, symName: __ZN7bincode6config7Options13with_no_limit17hde42823f6e4e2c58E, symObjAddr: 0x54, symBinAddr: 0x2DB0D0, symSize: 0xC }
  - { offset: 0x23F6C0, size: 0x8, addend: 0x0, symName: __ZN7bincode6config7Options20allow_trailing_bytes17h104008117a09a1dbE, symObjAddr: 0x60, symBinAddr: 0x2DB0DC, symSize: 0xC }
  - { offset: 0x23F6F1, size: 0x8, addend: 0x0, symName: __ZN7bincode6config7Options20with_fixint_encoding17hd255cc3982df705fE, symObjAddr: 0x6C, symBinAddr: 0x2DB0E8, symSize: 0xC }
  - { offset: 0x23F87F, size: 0x8, addend: 0x0, symName: '__ZN58_$LT$alloc..string..String$u20$as$u20$core..fmt..Write$GT$10write_char17h3f5dfc801a36b6a8E', symObjAddr: 0x0, symBinAddr: 0x2DB0F4, symSize: 0x30 }
  - { offset: 0x23F89B, size: 0x8, addend: 0x0, symName: '__ZN58_$LT$alloc..string..String$u20$as$u20$core..fmt..Write$GT$10write_char17h3f5dfc801a36b6a8E', symObjAddr: 0x0, symBinAddr: 0x2DB0F4, symSize: 0x30 }
  - { offset: 0x23F8D8, size: 0x8, addend: 0x0, symName: '__ZN58_$LT$alloc..string..String$u20$as$u20$core..fmt..Write$GT$9write_str17h41635b463865170fE', symObjAddr: 0x30, symBinAddr: 0x2DB124, symSize: 0x38 }
  - { offset: 0x2400DA, size: 0x8, addend: 0x0, symName: __ZN5alloc6string6String4push17h432f19c461db6efbE, symObjAddr: 0x68, symBinAddr: 0x2DB15C, symSize: 0x114 }
  - { offset: 0x240430, size: 0x8, addend: 0x0, symName: __ZN5alloc6string6String8push_str17h79af3fb74bd04a8fE, symObjAddr: 0x17C, symBinAddr: 0x2DB270, symSize: 0x50 }
  - { offset: 0x24059A, size: 0x8, addend: 0x0, symName: '__ZN4core5slice3cmp81_$LT$impl$u20$core..cmp..PartialEq$LT$$u5b$U$u5d$$GT$$u20$for$u20$$u5b$T$u5d$$GT$2eq17hc7ffab8580afdad5E', symObjAddr: 0x0, symBinAddr: 0x2DB2C0, symSize: 0x34 }
  - { offset: 0x2405BB, size: 0x8, addend: 0x0, symName: '__ZN4core5slice3cmp81_$LT$impl$u20$core..cmp..PartialEq$LT$$u5b$U$u5d$$GT$$u20$for$u20$$u5b$T$u5d$$GT$2eq17hc7ffab8580afdad5E', symObjAddr: 0x0, symBinAddr: 0x2DB2C0, symSize: 0x34 }
  - { offset: 0x240612, size: 0x8, addend: 0x0, symName: '__ZN57_$LT$usize$u20$as$u20$core..slice..cmp..SliceContains$GT$14slice_contains28_$u7b$$u7b$closure$u7d$$u7d$17h06ee0e7ecc839eb4E', symObjAddr: 0x34, symBinAddr: 0x2DB2F4, symSize: 0x30 }
  - { offset: 0x240652, size: 0x8, addend: 0x0, symName: '__ZN57_$LT$usize$u20$as$u20$core..slice..cmp..SliceContains$GT$14slice_contains28_$u7b$$u7b$closure$u7d$$u7d$17h44434706541f1885E', symObjAddr: 0x64, symBinAddr: 0x2DB324, symSize: 0x38 }
  - { offset: 0x240706, size: 0x8, addend: 0x0, symName: '__ZN4core3ops8function5impls79_$LT$impl$u20$core..ops..function..FnMut$LT$A$GT$$u20$for$u20$$RF$mut$u20$F$GT$8call_mut17h0a467da38cec3413E', symObjAddr: 0x0, symBinAddr: 0x2DB35C, symSize: 0x30 }
  - { offset: 0x240750, size: 0x8, addend: 0x0, symName: '__ZN4core3ops8function5impls79_$LT$impl$u20$core..ops..function..FnMut$LT$A$GT$$u20$for$u20$$RF$mut$u20$F$GT$8call_mut17h0a467da38cec3413E', symObjAddr: 0x0, symBinAddr: 0x2DB35C, symSize: 0x30 }
  - { offset: 0x2407A1, size: 0x8, addend: 0x0, symName: '__ZN4core3ops8function5impls80_$LT$impl$u20$core..ops..function..FnOnce$LT$A$GT$$u20$for$u20$$RF$mut$u20$F$GT$9call_once17haa353e8ffe9cbe8aE', symObjAddr: 0x30, symBinAddr: 0x2DB38C, symSize: 0x34 }
  - { offset: 0x240918, size: 0x8, addend: 0x0, symName: '__ZN4core4iter6traits8iterator8Iterator10min_by_key3key28_$u7b$$u7b$closure$u7d$$u7d$17h04956b5b2960098cE', symObjAddr: 0x64, symBinAddr: 0x2DB3C0, symSize: 0x58 }
  - { offset: 0x240973, size: 0x8, addend: 0x0, symName: __ZN4core4iter6traits8iterator8Iterator10min_by_key7compare17h9d0103a249d0fedbE, symObjAddr: 0xBC, symBinAddr: 0x2DB418, symSize: 0x3C }
  - { offset: 0x2409F3, size: 0x8, addend: 0x0, symName: '__ZN4core4iter6traits8iterator8Iterator12try_for_each4call28_$u7b$$u7b$closure$u7d$$u7d$17h26854690d8920394E', symObjAddr: 0xF8, symBinAddr: 0x2DB454, symSize: 0x2C }
  - { offset: 0x240A58, size: 0x8, addend: 0x0, symName: '__ZN4core4iter6traits8iterator8Iterator12try_for_each4call28_$u7b$$u7b$closure$u7d$$u7d$17h4629eea958450b2eE', symObjAddr: 0x124, symBinAddr: 0x2DB480, symSize: 0x2C }
  - { offset: 0x240ABD, size: 0x8, addend: 0x0, symName: '__ZN4core4iter6traits8iterator8Iterator12try_for_each4call28_$u7b$$u7b$closure$u7d$$u7d$17h5057c51528cebd5aE', symObjAddr: 0x150, symBinAddr: 0x2DB4AC, symSize: 0x2C }
  - { offset: 0x240B22, size: 0x8, addend: 0x0, symName: '__ZN4core4iter6traits8iterator8Iterator12try_for_each4call28_$u7b$$u7b$closure$u7d$$u7d$17h5fb6f687c6875435E', symObjAddr: 0x17C, symBinAddr: 0x2DB4D8, symSize: 0x2C }
  - { offset: 0x240B87, size: 0x8, addend: 0x0, symName: '__ZN4core4iter6traits8iterator8Iterator12try_for_each4call28_$u7b$$u7b$closure$u7d$$u7d$17h6fdd1bb9a11e5dabE', symObjAddr: 0x1A8, symBinAddr: 0x2DB504, symSize: 0x2C }
  - { offset: 0x240BEC, size: 0x8, addend: 0x0, symName: '__ZN4core4iter6traits8iterator8Iterator12try_for_each4call28_$u7b$$u7b$closure$u7d$$u7d$17h74c099d1d1d0ecadE', symObjAddr: 0x1D4, symBinAddr: 0x2DB530, symSize: 0x2C }
  - { offset: 0x240C51, size: 0x8, addend: 0x0, symName: '__ZN4core4iter6traits8iterator8Iterator12try_for_each4call28_$u7b$$u7b$closure$u7d$$u7d$17h7cb7aa6b9be79b0bE', symObjAddr: 0x200, symBinAddr: 0x2DB55C, symSize: 0x2C }
  - { offset: 0x240CB6, size: 0x8, addend: 0x0, symName: '__ZN4core4iter6traits8iterator8Iterator12try_for_each4call28_$u7b$$u7b$closure$u7d$$u7d$17h879e750de9a3dc39E', symObjAddr: 0x22C, symBinAddr: 0x2DB588, symSize: 0x2C }
  - { offset: 0x240D1B, size: 0x8, addend: 0x0, symName: '__ZN4core4iter6traits8iterator8Iterator12try_for_each4call28_$u7b$$u7b$closure$u7d$$u7d$17ha8c9e7fe8f90850cE', symObjAddr: 0x258, symBinAddr: 0x2DB5B4, symSize: 0x2C }
  - { offset: 0x240D8C, size: 0x8, addend: 0x0, symName: '__ZN4core4iter6traits8iterator8Iterator3all5check28_$u7b$$u7b$closure$u7d$$u7d$17h8a9c6bba44469ce6E', symObjAddr: 0x284, symBinAddr: 0x2DB5E0, symSize: 0x60 }
  - { offset: 0x240DF5, size: 0x8, addend: 0x0, symName: '__ZN4core4iter6traits8iterator8Iterator3any5check28_$u7b$$u7b$closure$u7d$$u7d$17h631caf1c6187ee60E', symObjAddr: 0x2E4, symBinAddr: 0x2DB640, symSize: 0x50 }
  - { offset: 0x240E5D, size: 0x8, addend: 0x0, symName: '__ZN4core4iter6traits8iterator8Iterator4find5check28_$u7b$$u7b$closure$u7d$$u7d$17h50573edc0c17d40dE', symObjAddr: 0x334, symBinAddr: 0x2DB690, symSize: 0x80 }
  - { offset: 0x240EC5, size: 0x8, addend: 0x0, symName: '__ZN4core4iter6traits8iterator8Iterator6min_by4fold28_$u7b$$u7b$closure$u7d$$u7d$17h49f5ba065b38beb9E', symObjAddr: 0x3B4, symBinAddr: 0x2DB710, symSize: 0x4C }
  - { offset: 0x240F31, size: 0x8, addend: 0x0, symName: '__ZN4core4iter6traits8iterator8Iterator8for_each4call28_$u7b$$u7b$closure$u7d$$u7d$17h1085fa82acf4c006E', symObjAddr: 0x400, symBinAddr: 0x2DB75C, symSize: 0x2C }
  - { offset: 0x240F89, size: 0x8, addend: 0x0, symName: '__ZN4core4iter6traits8iterator8Iterator8for_each4call28_$u7b$$u7b$closure$u7d$$u7d$17h215091837ff412c1E', symObjAddr: 0x42C, symBinAddr: 0x2DB788, symSize: 0x28 }
  - { offset: 0x240FE1, size: 0x8, addend: 0x0, symName: '__ZN4core4iter6traits8iterator8Iterator8for_each4call28_$u7b$$u7b$closure$u7d$$u7d$17h29a7e1fce5a073d0E', symObjAddr: 0x454, symBinAddr: 0x2DB7B0, symSize: 0x28 }
  - { offset: 0x241039, size: 0x8, addend: 0x0, symName: '__ZN4core4iter6traits8iterator8Iterator8for_each4call28_$u7b$$u7b$closure$u7d$$u7d$17h3f0d8ed029ef29cbE', symObjAddr: 0x47C, symBinAddr: 0x2DB7D8, symSize: 0x28 }
  - { offset: 0x241091, size: 0x8, addend: 0x0, symName: '__ZN4core4iter6traits8iterator8Iterator8for_each4call28_$u7b$$u7b$closure$u7d$$u7d$17h43da232ccc7dda14E', symObjAddr: 0x4A4, symBinAddr: 0x2DB800, symSize: 0x28 }
  - { offset: 0x2410E9, size: 0x8, addend: 0x0, symName: '__ZN4core4iter6traits8iterator8Iterator8for_each4call28_$u7b$$u7b$closure$u7d$$u7d$17h5186be989688fe27E', symObjAddr: 0x4CC, symBinAddr: 0x2DB828, symSize: 0x28 }
  - { offset: 0x241141, size: 0x8, addend: 0x0, symName: '__ZN4core4iter6traits8iterator8Iterator8for_each4call28_$u7b$$u7b$closure$u7d$$u7d$17h574be2d37cf0df21E', symObjAddr: 0x4F4, symBinAddr: 0x2DB850, symSize: 0x28 }
  - { offset: 0x241199, size: 0x8, addend: 0x0, symName: '__ZN4core4iter6traits8iterator8Iterator8for_each4call28_$u7b$$u7b$closure$u7d$$u7d$17h5c68654d5b0d14dbE', symObjAddr: 0x51C, symBinAddr: 0x2DB878, symSize: 0x28 }
  - { offset: 0x2411F1, size: 0x8, addend: 0x0, symName: '__ZN4core4iter6traits8iterator8Iterator8for_each4call28_$u7b$$u7b$closure$u7d$$u7d$17h653538740bf131a8E', symObjAddr: 0x544, symBinAddr: 0x2DB8A0, symSize: 0x28 }
  - { offset: 0x241249, size: 0x8, addend: 0x0, symName: '__ZN4core4iter6traits8iterator8Iterator8for_each4call28_$u7b$$u7b$closure$u7d$$u7d$17h683f80b31947a053E', symObjAddr: 0x56C, symBinAddr: 0x2DB8C8, symSize: 0x28 }
  - { offset: 0x2412A1, size: 0x8, addend: 0x0, symName: '__ZN4core4iter6traits8iterator8Iterator8for_each4call28_$u7b$$u7b$closure$u7d$$u7d$17h6af59a25851e4d76E', symObjAddr: 0x594, symBinAddr: 0x2DB8F0, symSize: 0x28 }
  - { offset: 0x2412F9, size: 0x8, addend: 0x0, symName: '__ZN4core4iter6traits8iterator8Iterator8for_each4call28_$u7b$$u7b$closure$u7d$$u7d$17h6e833b7b8b24e725E', symObjAddr: 0x5BC, symBinAddr: 0x2DB918, symSize: 0x28 }
  - { offset: 0x241351, size: 0x8, addend: 0x0, symName: '__ZN4core4iter6traits8iterator8Iterator8for_each4call28_$u7b$$u7b$closure$u7d$$u7d$17h73423da39d9c545aE', symObjAddr: 0x5E4, symBinAddr: 0x2DB940, symSize: 0x28 }
  - { offset: 0x2413A9, size: 0x8, addend: 0x0, symName: '__ZN4core4iter6traits8iterator8Iterator8for_each4call28_$u7b$$u7b$closure$u7d$$u7d$17h7430635f3781ba17E', symObjAddr: 0x60C, symBinAddr: 0x2DB968, symSize: 0x2C }
  - { offset: 0x241401, size: 0x8, addend: 0x0, symName: '__ZN4core4iter6traits8iterator8Iterator8for_each4call28_$u7b$$u7b$closure$u7d$$u7d$17h77537f7d46d2719dE', symObjAddr: 0x638, symBinAddr: 0x2DB994, symSize: 0x2C }
  - { offset: 0x241459, size: 0x8, addend: 0x0, symName: '__ZN4core4iter6traits8iterator8Iterator8for_each4call28_$u7b$$u7b$closure$u7d$$u7d$17h7814ec286f5d6f12E', symObjAddr: 0x664, symBinAddr: 0x2DB9C0, symSize: 0x2C }
  - { offset: 0x2414B1, size: 0x8, addend: 0x0, symName: '__ZN4core4iter6traits8iterator8Iterator8for_each4call28_$u7b$$u7b$closure$u7d$$u7d$17h7d33c614c0e0fd35E', symObjAddr: 0x690, symBinAddr: 0x2DB9EC, symSize: 0x28 }
  - { offset: 0x241509, size: 0x8, addend: 0x0, symName: '__ZN4core4iter6traits8iterator8Iterator8for_each4call28_$u7b$$u7b$closure$u7d$$u7d$17h8bb009ea522fa4e1E', symObjAddr: 0x6B8, symBinAddr: 0x2DBA14, symSize: 0x28 }
  - { offset: 0x241561, size: 0x8, addend: 0x0, symName: '__ZN4core4iter6traits8iterator8Iterator8for_each4call28_$u7b$$u7b$closure$u7d$$u7d$17h93e4359e8a681841E', symObjAddr: 0x6E0, symBinAddr: 0x2DBA3C, symSize: 0x2C }
  - { offset: 0x2415B9, size: 0x8, addend: 0x0, symName: '__ZN4core4iter6traits8iterator8Iterator8for_each4call28_$u7b$$u7b$closure$u7d$$u7d$17h99301c5182ab30a0E', symObjAddr: 0x70C, symBinAddr: 0x2DBA68, symSize: 0x28 }
  - { offset: 0x241611, size: 0x8, addend: 0x0, symName: '__ZN4core4iter6traits8iterator8Iterator8for_each4call28_$u7b$$u7b$closure$u7d$$u7d$17h9d258d43afb3fd73E', symObjAddr: 0x734, symBinAddr: 0x2DBA90, symSize: 0x28 }
  - { offset: 0x241669, size: 0x8, addend: 0x0, symName: '__ZN4core4iter6traits8iterator8Iterator8for_each4call28_$u7b$$u7b$closure$u7d$$u7d$17ha6562ee01d96a1e8E', symObjAddr: 0x75C, symBinAddr: 0x2DBAB8, symSize: 0x3C }
  - { offset: 0x2416C2, size: 0x8, addend: 0x0, symName: '__ZN4core4iter6traits8iterator8Iterator8for_each4call28_$u7b$$u7b$closure$u7d$$u7d$17hacc913b3da64b912E', symObjAddr: 0x798, symBinAddr: 0x2DBAF4, symSize: 0x28 }
  - { offset: 0x24171A, size: 0x8, addend: 0x0, symName: '__ZN4core4iter6traits8iterator8Iterator8for_each4call28_$u7b$$u7b$closure$u7d$$u7d$17hb0084efac29f912bE', symObjAddr: 0x7C0, symBinAddr: 0x2DBB1C, symSize: 0x28 }
  - { offset: 0x241772, size: 0x8, addend: 0x0, symName: '__ZN4core4iter6traits8iterator8Iterator8for_each4call28_$u7b$$u7b$closure$u7d$$u7d$17hb9812af49d5390c6E', symObjAddr: 0x7E8, symBinAddr: 0x2DBB44, symSize: 0x28 }
  - { offset: 0x2417CA, size: 0x8, addend: 0x0, symName: '__ZN4core4iter6traits8iterator8Iterator8for_each4call28_$u7b$$u7b$closure$u7d$$u7d$17hbc68a6efa3dfc447E', symObjAddr: 0x810, symBinAddr: 0x2DBB6C, symSize: 0x2C }
  - { offset: 0x241822, size: 0x8, addend: 0x0, symName: '__ZN4core4iter6traits8iterator8Iterator8for_each4call28_$u7b$$u7b$closure$u7d$$u7d$17hc031c1f05d623847E', symObjAddr: 0x83C, symBinAddr: 0x2DBB98, symSize: 0x28 }
  - { offset: 0x24187A, size: 0x8, addend: 0x0, symName: '__ZN4core4iter6traits8iterator8Iterator8for_each4call28_$u7b$$u7b$closure$u7d$$u7d$17hc4f8f37984e35e2eE', symObjAddr: 0x864, symBinAddr: 0x2DBBC0, symSize: 0x28 }
  - { offset: 0x2418D2, size: 0x8, addend: 0x0, symName: '__ZN4core4iter6traits8iterator8Iterator8for_each4call28_$u7b$$u7b$closure$u7d$$u7d$17hc8d5fc9a728242b5E', symObjAddr: 0x88C, symBinAddr: 0x2DBBE8, symSize: 0x28 }
  - { offset: 0x24192A, size: 0x8, addend: 0x0, symName: '__ZN4core4iter6traits8iterator8Iterator8for_each4call28_$u7b$$u7b$closure$u7d$$u7d$17hd92d4751063f9218E', symObjAddr: 0x8B4, symBinAddr: 0x2DBC10, symSize: 0x28 }
  - { offset: 0x241982, size: 0x8, addend: 0x0, symName: '__ZN4core4iter6traits8iterator8Iterator8for_each4call28_$u7b$$u7b$closure$u7d$$u7d$17hdad3fa419e8a1010E', symObjAddr: 0x8DC, symBinAddr: 0x2DBC38, symSize: 0x3C }
  - { offset: 0x2419DB, size: 0x8, addend: 0x0, symName: '__ZN4core4iter6traits8iterator8Iterator8for_each4call28_$u7b$$u7b$closure$u7d$$u7d$17he3f51b709130ff02E', symObjAddr: 0x918, symBinAddr: 0x2DBC74, symSize: 0x28 }
  - { offset: 0x241A33, size: 0x8, addend: 0x0, symName: '__ZN4core4iter6traits8iterator8Iterator8for_each4call28_$u7b$$u7b$closure$u7d$$u7d$17he65b50a80c1418dcE', symObjAddr: 0x940, symBinAddr: 0x2DBC9C, symSize: 0x28 }
  - { offset: 0x241A8B, size: 0x8, addend: 0x0, symName: '__ZN4core4iter6traits8iterator8Iterator8for_each4call28_$u7b$$u7b$closure$u7d$$u7d$17he86a4718bb54f097E', symObjAddr: 0x968, symBinAddr: 0x2DBCC4, symSize: 0x2C }
  - { offset: 0x241AE3, size: 0x8, addend: 0x0, symName: '__ZN4core4iter6traits8iterator8Iterator8for_each4call28_$u7b$$u7b$closure$u7d$$u7d$17hef9a3cd8b8cf3b11E', symObjAddr: 0x994, symBinAddr: 0x2DBCF0, symSize: 0x2C }
  - { offset: 0x242E62, size: 0x8, addend: 0x0, symName: '__ZN3std6thread5local17LocalKey$LT$T$GT$4with17h87286cd8f4c2a7f2E', symObjAddr: 0x0, symBinAddr: 0x2DBD1C, symSize: 0x5C }
  - { offset: 0x245497, size: 0x8, addend: 0x0, symName: '__ZN3std6thread5local17LocalKey$LT$T$GT$4with17h87286cd8f4c2a7f2E', symObjAddr: 0x0, symBinAddr: 0x2DBD1C, symSize: 0x5C }
  - { offset: 0x2455D9, size: 0x8, addend: 0x0, symName: '__ZN3std6thread5local17LocalKey$LT$T$GT$4with17hdcff3813c9d239a6E', symObjAddr: 0x5C, symBinAddr: 0x2DBD78, symSize: 0x5C }
  - { offset: 0x24567D, size: 0x8, addend: 0x0, symName: '__ZN3std6thread5local17LocalKey$LT$T$GT$4with17hed1d97039d819710E', symObjAddr: 0xB8, symBinAddr: 0x2DBDD4, symSize: 0x5C }
  - { offset: 0x245721, size: 0x8, addend: 0x0, symName: '__ZN3std6thread5local17LocalKey$LT$T$GT$4with17hfefa0d233f0ca8c9E', symObjAddr: 0x114, symBinAddr: 0x2DBE30, symSize: 0x5C }
  - { offset: 0x2457DB, size: 0x8, addend: 0x0, symName: '__ZN3std6thread5local17LocalKey$LT$T$GT$8try_with17hb02ed6a405743c05E', symObjAddr: 0x170, symBinAddr: 0x2DBE8C, symSize: 0x11C }
  - { offset: 0x245963, size: 0x8, addend: 0x0, symName: '__ZN3std6thread5local17LocalKey$LT$T$GT$8try_with17hb06b5fd3a858ef25E', symObjAddr: 0x28C, symBinAddr: 0x2DBFA8, symSize: 0x11C }
  - { offset: 0x245AEB, size: 0x8, addend: 0x0, symName: '__ZN3std6thread5local17LocalKey$LT$T$GT$8try_with17hcdf13ec4046a384eE', symObjAddr: 0x3A8, symBinAddr: 0x2DC0C4, symSize: 0x11C }
  - { offset: 0x245C73, size: 0x8, addend: 0x0, symName: '__ZN3std6thread5local17LocalKey$LT$T$GT$8try_with17hd9f7bfba23cf5257E', symObjAddr: 0x4C4, symBinAddr: 0x2DC1E0, symSize: 0x11C }
  - { offset: 0x245DD8, size: 0x8, addend: 0x0, symName: '__ZN10rayon_core5latch17LatchRef$LT$L$GT$3new17h287485b3a77cb7b7E', symObjAddr: 0x0, symBinAddr: 0x2DC2FC, symSize: 0x14 }
  - { offset: 0x245E5E, size: 0x8, addend: 0x0, symName: '__ZN80_$LT$rayon_core..latch..LatchRef$LT$L$GT$$u20$as$u20$core..ops..deref..Deref$GT$5deref17hcb7469ea6d0d50abE', symObjAddr: 0x14, symBinAddr: 0x2DC310, symSize: 0x70 }
  - { offset: 0x245E9B, size: 0x8, addend: 0x0, symName: '__ZN81_$LT$rayon_core..latch..LatchRef$LT$L$GT$$u20$as$u20$rayon_core..latch..Latch$GT$3set17h4229667789480833E', symObjAddr: 0x84, symBinAddr: 0x2DC380, symSize: 0x78 }
  - { offset: 0x246266, size: 0x8, addend: 0x0, symName: '__ZN10rayon_core5latch17LatchRef$LT$L$GT$3new17h287485b3a77cb7b7E', symObjAddr: 0x0, symBinAddr: 0x2DC2FC, symSize: 0x14 }
  - { offset: 0x2462CA, size: 0x8, addend: 0x0, symName: __ZN4core5slice5index5range17h92bde958c69dee16E, symObjAddr: 0x0, symBinAddr: 0x2DC3F8, symSize: 0x220 }
  - { offset: 0x2462E6, size: 0x8, addend: 0x0, symName: __ZN4core5slice5index5range17h92bde958c69dee16E, symObjAddr: 0x0, symBinAddr: 0x2DC3F8, symSize: 0x220 }
  - { offset: 0x246476, size: 0x8, addend: 0x0, symName: '__ZN75_$LT$usize$u20$as$u20$core..slice..index..SliceIndex$LT$$u5b$T$u5d$$GT$$GT$13get_unchecked17h65a337cb0cc7997aE', symObjAddr: 0x220, symBinAddr: 0x2DC618, symSize: 0x58 }
  - { offset: 0x2464B9, size: 0x8, addend: 0x0, symName: '__ZN75_$LT$usize$u20$as$u20$core..slice..index..SliceIndex$LT$$u5b$T$u5d$$GT$$GT$13get_unchecked17hec9d9558de6722e9E', symObjAddr: 0x278, symBinAddr: 0x2DC670, symSize: 0x58 }
  - { offset: 0x2464FC, size: 0x8, addend: 0x0, symName: '__ZN75_$LT$usize$u20$as$u20$core..slice..index..SliceIndex$LT$$u5b$T$u5d$$GT$$GT$17get_unchecked_mut17hb030dcc7a006895cE', symObjAddr: 0x2D0, symBinAddr: 0x2DC6C8, symSize: 0x58 }
  - { offset: 0x246542, size: 0x8, addend: 0x0, symName: '__ZN75_$LT$usize$u20$as$u20$core..slice..index..SliceIndex$LT$$u5b$T$u5d$$GT$$GT$17get_unchecked_mut17hdff235a5d0b5e6efE', symObjAddr: 0x328, symBinAddr: 0x2DC720, symSize: 0x58 }
  - { offset: 0x246588, size: 0x8, addend: 0x0, symName: '__ZN75_$LT$usize$u20$as$u20$core..slice..index..SliceIndex$LT$$u5b$T$u5d$$GT$$GT$5index17h899554fb77236dbbE', symObjAddr: 0x380, symBinAddr: 0x2DC778, symSize: 0x5C }
  - { offset: 0x2465CE, size: 0x8, addend: 0x0, symName: '__ZN75_$LT$usize$u20$as$u20$core..slice..index..SliceIndex$LT$$u5b$T$u5d$$GT$$GT$5index17h92067a3f39050ed1E', symObjAddr: 0x3DC, symBinAddr: 0x2DC7D4, symSize: 0x5C }
  - { offset: 0x246614, size: 0x8, addend: 0x0, symName: '__ZN75_$LT$usize$u20$as$u20$core..slice..index..SliceIndex$LT$$u5b$T$u5d$$GT$$GT$5index17heefcb561a2680648E', symObjAddr: 0x438, symBinAddr: 0x2DC830, symSize: 0x5C }
  - { offset: 0x24665A, size: 0x8, addend: 0x0, symName: '__ZN75_$LT$usize$u20$as$u20$core..slice..index..SliceIndex$LT$$u5b$T$u5d$$GT$$GT$7get_mut17h19f0805324b32670E', symObjAddr: 0x494, symBinAddr: 0x2DC88C, symSize: 0x4C }
  - { offset: 0x24669D, size: 0x8, addend: 0x0, symName: '__ZN75_$LT$usize$u20$as$u20$core..slice..index..SliceIndex$LT$$u5b$T$u5d$$GT$$GT$9index_mut17h2f9528ae7dd95ce5E', symObjAddr: 0x4E0, symBinAddr: 0x2DC8D8, symSize: 0x5C }
  - { offset: 0x2466E3, size: 0x8, addend: 0x0, symName: '__ZN75_$LT$usize$u20$as$u20$core..slice..index..SliceIndex$LT$$u5b$T$u5d$$GT$$GT$9index_mut17h338c115287ab816dE', symObjAddr: 0x53C, symBinAddr: 0x2DC934, symSize: 0x64 }
  - { offset: 0x246729, size: 0x8, addend: 0x0, symName: '__ZN75_$LT$usize$u20$as$u20$core..slice..index..SliceIndex$LT$$u5b$T$u5d$$GT$$GT$9index_mut17hccd4f89516986aa8E', symObjAddr: 0x5A0, symBinAddr: 0x2DC998, symSize: 0x5C }
  - { offset: 0x24676F, size: 0x8, addend: 0x0, symName: '__ZN75_$LT$usize$u20$as$u20$core..slice..index..SliceIndex$LT$$u5b$T$u5d$$GT$$GT$9index_mut17hfd6fd6d361fa3ae8E', symObjAddr: 0x5FC, symBinAddr: 0x2DC9F4, symSize: 0x5C }
  - { offset: 0x246C5D, size: 0x8, addend: 0x0, symName: __ZN10rayon_core3job6JobRef2id17h5f21b29431d48391E, symObjAddr: 0x0, symBinAddr: 0x2DCA50, symSize: 0x20 }
  - { offset: 0x246D10, size: 0x8, addend: 0x0, symName: __ZN10rayon_core3job6JobRef2id17h5f21b29431d48391E, symObjAddr: 0x0, symBinAddr: 0x2DCA50, symSize: 0x20 }
  - { offset: 0x246D32, size: 0x8, addend: 0x0, symName: __ZN10rayon_core3job6JobRef7execute17h9504eae1c762f198E, symObjAddr: 0x20, symBinAddr: 0x2DCA70, symSize: 0x30 }
  - { offset: 0x246D63, size: 0x8, addend: 0x0, symName: '__ZN48_$LT$f64$u20$as$u20$num_traits..float..Float$GT$3cos17h138df3fcef2d2c47E', symObjAddr: 0x50, symBinAddr: 0x2DCAA0, symSize: 0x20 }
  - { offset: 0x246D8F, size: 0x8, addend: 0x0, symName: '__ZN48_$LT$f64$u20$as$u20$num_traits..float..Float$GT$3sin17h547ca77e0b92903eE', symObjAddr: 0x70, symBinAddr: 0x2DCAC0, symSize: 0x20 }
  - { offset: 0x246DC1, size: 0x8, addend: 0x0, symName: '__ZN53_$LT$f64$u20$as$u20$num_traits..float..FloatConst$GT$13FRAC_1_SQRT_217hd9958cfe81066a95E', symObjAddr: 0xA4, symBinAddr: 0x2DCAF4, symSize: 0x18 }
  - { offset: 0x246DF0, size: 0x8, addend: 0x0, symName: '__ZN51_$LT$T$u20$as$u20$core..borrow..Borrow$LT$T$GT$$GT$6borrow17h3f2f2e39385d2b6cE', symObjAddr: 0x90, symBinAddr: 0x2DCAE0, symSize: 0x14 }
  - { offset: 0x246E61, size: 0x8, addend: 0x0, symName: '__ZN103_$LT$core..iter..sources..repeat..Repeat$LT$A$GT$$u20$as$u20$core..iter..traits..iterator..Iterator$GT$4next17hc55466b1ab72bee9E', symObjAddr: 0x0, symBinAddr: 0x2DCB0C, symSize: 0x24 }
  - { offset: 0x246ECA, size: 0x8, addend: 0x0, symName: '__ZN103_$LT$core..iter..sources..repeat..Repeat$LT$A$GT$$u20$as$u20$core..iter..traits..iterator..Iterator$GT$4next17hc55466b1ab72bee9E', symObjAddr: 0x0, symBinAddr: 0x2DCB0C, symSize: 0x24 }
  - { offset: 0x246EFF, size: 0x8, addend: 0x0, symName: '__ZN103_$LT$core..iter..sources..repeat..Repeat$LT$A$GT$$u20$as$u20$core..iter..traits..iterator..Iterator$GT$9size_hint17h67d78bc7763425a8E', symObjAddr: 0x24, symBinAddr: 0x2DCB30, symSize: 0x38 }
  - { offset: 0x246F35, size: 0x8, addend: 0x0, symName: __ZN4core4iter7sources6repeat6repeat17h9c83349d55b23e4fE, symObjAddr: 0x214, symBinAddr: 0x2DCD20, symSize: 0x10 }
  - { offset: 0x246F99, size: 0x8, addend: 0x0, symName: __ZN4core4iter6traits8iterator8Iterator4take17h4b73fd3bd07eddcaE, symObjAddr: 0x5C, symBinAddr: 0x2DCB68, symSize: 0x20 }
  - { offset: 0x246FDF, size: 0x8, addend: 0x0, symName: __ZN4core4iter6traits8iterator8Iterator8try_fold17h866924ed55bcd11aE, symObjAddr: 0x7C, symBinAddr: 0x2DCB88, symSize: 0x198 }
  - { offset: 0x2472FC, size: 0x8, addend: 0x0, symName: '__ZN4core3ops8function5impls71_$LT$impl$u20$core..ops..function..FnMut$LT$A$GT$$u20$for$u20$$RF$F$GT$8call_mut17hf661beb533c3d6fdE', symObjAddr: 0x0, symBinAddr: 0x2DCD30, symSize: 0x30 }
  - { offset: 0x247322, size: 0x8, addend: 0x0, symName: '__ZN4core3ops8function5impls71_$LT$impl$u20$core..ops..function..FnMut$LT$A$GT$$u20$for$u20$$RF$F$GT$8call_mut17hf661beb533c3d6fdE', symObjAddr: 0x0, symBinAddr: 0x2DCD30, symSize: 0x30 }
  - { offset: 0x2474B1, size: 0x8, addend: 0x0, symName: '__ZN9jvol_rust8decoding12decode_array28_$u7b$$u7b$closure$u7d$$u7d$17h723f30f3b84eac1cE', symObjAddr: 0x30, symBinAddr: 0x2DCD60, symSize: 0x44 }
  - { offset: 0x247501, size: 0x8, addend: 0x0, symName: '__ZN9jvol_rust8decoding12decode_array28_$u7b$$u7b$closure$u7d$$u7d$17h99d9c2082444613eE', symObjAddr: 0x74, symBinAddr: 0x2DCDA4, symSize: 0x110 }
  - { offset: 0x24757A, size: 0x8, addend: 0x0, symName: '__ZN9jvol_rust8decoding12decode_array28_$u7b$$u7b$closure$u7d$$u7d$17he3ae543aa1cfc06fE', symObjAddr: 0x184, symBinAddr: 0x2DCEB4, symSize: 0x50 }
  - { offset: 0x2475EC, size: 0x8, addend: 0x0, symName: '__ZN9jvol_rust8decoding12decode_array28_$u7b$$u7b$closure$u7d$$u7d$28_$u7b$$u7b$closure$u7d$$u7d$17h73b4430f20dac3a7E', symObjAddr: 0x1D4, symBinAddr: 0x2DCF04, symSize: 0x40 }
  - { offset: 0x247681, size: 0x8, addend: 0x0, symName: '__ZN9jvol_rust8decoding17run_length_decode28_$u7b$$u7b$closure$u7d$$u7d$17h63acbcf8b8bc2ea8E', symObjAddr: 0x214, symBinAddr: 0x2DCF44, symSize: 0x28 }
  - { offset: 0x247A36, size: 0x8, addend: 0x0, symName: '__ZN4core5slice29_$LT$impl$u20$$u5b$T$u5d$$GT$12chunks_exact17hf55402b2fcb42b7fE', symObjAddr: 0x0, symBinAddr: 0x2DCF6C, symSize: 0xF0 }
  - { offset: 0x247AB2, size: 0x8, addend: 0x0, symName: '__ZN4core5slice29_$LT$impl$u20$$u5b$T$u5d$$GT$12chunks_exact17hf55402b2fcb42b7fE', symObjAddr: 0x0, symBinAddr: 0x2DCF6C, symSize: 0xF0 }
  - { offset: 0x247B97, size: 0x8, addend: 0x0, symName: '__ZN4core5slice29_$LT$impl$u20$$u5b$T$u5d$$GT$18split_at_unchecked17h3187c82a501c10f2E', symObjAddr: 0xF0, symBinAddr: 0x2DD05C, symSize: 0xE8 }
  - { offset: 0x247F0F, size: 0x8, addend: 0x0, symName: '__ZN116_$LT$ndarray..ArrayBase$LT$ndarray..data_repr..OwnedRepr$LT$A$GT$$C$D$GT$$u20$as$u20$numpy..convert..IntoPyArray$GT$12into_pyarray17h3a232d9efcc67484E', symObjAddr: 0x0, symBinAddr: 0x2DD144, symSize: 0x38 }
  - { offset: 0x24846D, size: 0x8, addend: 0x0, symName: '__ZN117_$LT$ndarray..ArrayBase$LT$ndarray..ViewRepr$LT$$RF$A$GT$$C$D$GT$$u20$as$u20$ndarray..zip..ndproducer..NdProducer$GT$6as_ptr17h7463b7bd3c882f48E', symObjAddr: 0x70, symBinAddr: 0x2DD1B4, symSize: 0x24 }
  - { offset: 0x2484C8, size: 0x8, addend: 0x0, symName: '__ZN117_$LT$ndarray..ArrayBase$LT$ndarray..ViewRepr$LT$$RF$A$GT$$C$D$GT$$u20$as$u20$ndarray..zip..ndproducer..NdProducer$GT$6as_ref17h23bbd56564f2cf97E', symObjAddr: 0x94, symBinAddr: 0x2DD1D8, symSize: 0x6C }
  - { offset: 0x248514, size: 0x8, addend: 0x0, symName: '__ZN117_$LT$ndarray..ArrayBase$LT$ndarray..ViewRepr$LT$$RF$A$GT$$C$D$GT$$u20$as$u20$ndarray..zip..ndproducer..NdProducer$GT$6layout17h22b7411aae45fe6eE', symObjAddr: 0x100, symBinAddr: 0x2DD244, symSize: 0x24 }
  - { offset: 0x248552, size: 0x8, addend: 0x0, symName: '__ZN117_$LT$ndarray..ArrayBase$LT$ndarray..ViewRepr$LT$$RF$A$GT$$C$D$GT$$u20$as$u20$ndarray..zip..ndproducer..NdProducer$GT$6layout17h8cff3422e0c760e4E', symObjAddr: 0x124, symBinAddr: 0x2DD268, symSize: 0x24 }
  - { offset: 0x248590, size: 0x8, addend: 0x0, symName: '__ZN117_$LT$ndarray..ArrayBase$LT$ndarray..ViewRepr$LT$$RF$A$GT$$C$D$GT$$u20$as$u20$ndarray..zip..ndproducer..NdProducer$GT$7raw_dim17hd8a7248e4d5a7f2aE', symObjAddr: 0x148, symBinAddr: 0x2DD28C, symSize: 0x34 }
  - { offset: 0x2485CE, size: 0x8, addend: 0x0, symName: '__ZN117_$LT$ndarray..ArrayBase$LT$ndarray..ViewRepr$LT$$RF$A$GT$$C$D$GT$$u20$as$u20$ndarray..zip..ndproducer..NdProducer$GT$8uget_ptr17h0db28c3e354f02e2E', symObjAddr: 0x17C, symBinAddr: 0x2DD2C0, symSize: 0x78 }
  - { offset: 0x24863F, size: 0x8, addend: 0x0, symName: '__ZN117_$LT$ndarray..ArrayBase$LT$ndarray..ViewRepr$LT$$RF$A$GT$$C$D$GT$$u20$as$u20$ndarray..zip..ndproducer..NdProducer$GT$8uget_ptr17h4edbda06c22105ceE', symObjAddr: 0x1F4, symBinAddr: 0x2DD338, symSize: 0x78 }
  - { offset: 0x2486B0, size: 0x8, addend: 0x0, symName: '__ZN117_$LT$ndarray..ArrayBase$LT$ndarray..ViewRepr$LT$$RF$A$GT$$C$D$GT$$u20$as$u20$ndarray..zip..ndproducer..NdProducer$GT$9equal_dim17hddc62048616ccec7E', symObjAddr: 0x26C, symBinAddr: 0x2DD3B0, symSize: 0x2C }
  - { offset: 0x2486FC, size: 0x8, addend: 0x0, symName: '__ZN117_$LT$ndarray..ArrayBase$LT$ndarray..ViewRepr$LT$$RF$A$GT$$C$D$GT$$u20$as$u20$ndarray..zip..ndproducer..NdProducer$GT$9stride_of17he9b3267ec314acd0E', symObjAddr: 0x298, symBinAddr: 0x2DD3DC, symSize: 0x28 }
  - { offset: 0x24874E, size: 0x8, addend: 0x0, symName: '__ZN125_$LT$ndarray..ArrayBase$LT$ndarray..ViewRepr$LT$$RF$mut$u20$A$GT$$C$D$GT$$u20$as$u20$ndarray..zip..ndproducer..NdProducer$GT$6as_ptr17hda785fdd5b0605cbE', symObjAddr: 0x2C0, symBinAddr: 0x2DD404, symSize: 0x24 }
  - { offset: 0x2487A9, size: 0x8, addend: 0x0, symName: '__ZN125_$LT$ndarray..ArrayBase$LT$ndarray..ViewRepr$LT$$RF$mut$u20$A$GT$$C$D$GT$$u20$as$u20$ndarray..zip..ndproducer..NdProducer$GT$6as_ref17ha4c296012fdced4aE', symObjAddr: 0x2E4, symBinAddr: 0x2DD428, symSize: 0x6C }
  - { offset: 0x2487F8, size: 0x8, addend: 0x0, symName: '__ZN125_$LT$ndarray..ArrayBase$LT$ndarray..ViewRepr$LT$$RF$mut$u20$A$GT$$C$D$GT$$u20$as$u20$ndarray..zip..ndproducer..NdProducer$GT$6layout17h612e09549552d4bfE', symObjAddr: 0x350, symBinAddr: 0x2DD494, symSize: 0x24 }
  - { offset: 0x248838, size: 0x8, addend: 0x0, symName: '__ZN125_$LT$ndarray..ArrayBase$LT$ndarray..ViewRepr$LT$$RF$mut$u20$A$GT$$C$D$GT$$u20$as$u20$ndarray..zip..ndproducer..NdProducer$GT$6layout17h9ef977e0712e6429E', symObjAddr: 0x374, symBinAddr: 0x2DD4B8, symSize: 0x24 }
  - { offset: 0x248878, size: 0x8, addend: 0x0, symName: '__ZN125_$LT$ndarray..ArrayBase$LT$ndarray..ViewRepr$LT$$RF$mut$u20$A$GT$$C$D$GT$$u20$as$u20$ndarray..zip..ndproducer..NdProducer$GT$7raw_dim17h8398e7e993ce9024E', symObjAddr: 0x398, symBinAddr: 0x2DD4DC, symSize: 0x34 }
  - { offset: 0x2488B6, size: 0x8, addend: 0x0, symName: '__ZN125_$LT$ndarray..ArrayBase$LT$ndarray..ViewRepr$LT$$RF$mut$u20$A$GT$$C$D$GT$$u20$as$u20$ndarray..zip..ndproducer..NdProducer$GT$8uget_ptr17h6ad526c856797440E', symObjAddr: 0x3CC, symBinAddr: 0x2DD510, symSize: 0x78 }
  - { offset: 0x24892B, size: 0x8, addend: 0x0, symName: '__ZN125_$LT$ndarray..ArrayBase$LT$ndarray..ViewRepr$LT$$RF$mut$u20$A$GT$$C$D$GT$$u20$as$u20$ndarray..zip..ndproducer..NdProducer$GT$8uget_ptr17hbb635068ff2fa5cfE', symObjAddr: 0x444, symBinAddr: 0x2DD588, symSize: 0x78 }
  - { offset: 0x2489A0, size: 0x8, addend: 0x0, symName: '__ZN125_$LT$ndarray..ArrayBase$LT$ndarray..ViewRepr$LT$$RF$mut$u20$A$GT$$C$D$GT$$u20$as$u20$ndarray..zip..ndproducer..NdProducer$GT$9stride_of17hea3567e0f7c93545E', symObjAddr: 0x4BC, symBinAddr: 0x2DD600, symSize: 0x28 }
  - { offset: 0x2489F5, size: 0x8, addend: 0x0, symName: '__ZN62_$LT$P$u20$as$u20$ndarray..zip..ndproducer..IntoNdProducer$GT$13into_producer17h5dbbadd278b8bf67E', symObjAddr: 0x6AC, symBinAddr: 0x2DD7F0, symSize: 0x18 }
  - { offset: 0x248A2A, size: 0x8, addend: 0x0, symName: '__ZN62_$LT$P$u20$as$u20$ndarray..zip..ndproducer..IntoNdProducer$GT$13into_producer17hb309ba4dd0961eddE', symObjAddr: 0x6C4, symBinAddr: 0x2DD808, symSize: 0x18 }
  - { offset: 0x248A66, size: 0x8, addend: 0x0, symName: '__ZN61_$LT$$LP$A$C$B$RP$$u20$as$u20$ndarray..zip..ZippableTuple$GT$17contiguous_stride17h01e5e9cee017352aE', symObjAddr: 0x4E4, symBinAddr: 0x2DD628, symSize: 0x38 }
  - { offset: 0x248AAF, size: 0x8, addend: 0x0, symName: '__ZN61_$LT$$LP$A$C$B$RP$$u20$as$u20$ndarray..zip..ZippableTuple$GT$6as_ptr17had8546ec1f93c80eE', symObjAddr: 0x51C, symBinAddr: 0x2DD660, symSize: 0x4C }
  - { offset: 0x248B26, size: 0x8, addend: 0x0, symName: '__ZN61_$LT$$LP$A$C$B$RP$$u20$as$u20$ndarray..zip..ZippableTuple$GT$6as_ref17h6074dffb26911c7aE', symObjAddr: 0x568, symBinAddr: 0x2DD6AC, symSize: 0x90 }
  - { offset: 0x248BDA, size: 0x8, addend: 0x0, symName: '__ZN61_$LT$$LP$A$C$B$RP$$u20$as$u20$ndarray..zip..ZippableTuple$GT$8uget_ptr17h3c14f2389988902fE', symObjAddr: 0x5F8, symBinAddr: 0x2DD73C, symSize: 0x5C }
  - { offset: 0x248C60, size: 0x8, addend: 0x0, symName: '__ZN61_$LT$$LP$A$C$B$RP$$u20$as$u20$ndarray..zip..ZippableTuple$GT$9stride_of17hcbebaa0275ae829aE', symObjAddr: 0x654, symBinAddr: 0x2DD798, symSize: 0x58 }
  - { offset: 0x248F11, size: 0x8, addend: 0x0, symName: '__ZN72_$LT$ndarray..CowRepr$LT$A$GT$$u20$as$u20$ndarray..data_traits..Data$GT$10into_owned17hce3fd93ff5621bfbE', symObjAddr: 0x6DC, symBinAddr: 0x2DD820, symSize: 0x134 }
  - { offset: 0x248F6E, size: 0x8, addend: 0x0, symName: '__ZN75_$LT$ndarray..CowRepr$LT$A$GT$$u20$as$u20$ndarray..data_traits..RawData$GT$20_is_pointer_inbounds17h9933fe313f058d8aE', symObjAddr: 0x810, symBinAddr: 0x2DD954, symSize: 0x88 }
  - { offset: 0x248FF6, size: 0x8, addend: 0x0, symName: __ZN7ndarray11data_traits7DataMut13ensure_unique17he89bd7ded1447fd9E, symObjAddr: 0x17B8, symBinAddr: 0x2DE8FC, symSize: 0x24 }
  - { offset: 0x249036, size: 0x8, addend: 0x0, symName: '__ZN91_$LT$ndarray..ViewRepr$LT$$RF$mut$u20$A$GT$$u20$as$u20$ndarray..data_traits..RawDataMut$GT$17try_ensure_unique17h5b31fb6ff114d4dbE', symObjAddr: 0xAD44, symBinAddr: 0x2E7DE8, symSize: 0x10 }
  - { offset: 0x24A311, size: 0x8, addend: 0x0, symName: __ZN7ndarray10is_aligned17ha4d4275beb6f08edE, symObjAddr: 0x117C, symBinAddr: 0x2DE2C0, symSize: 0x58 }
  - { offset: 0x24A352, size: 0x8, addend: 0x0, symName: '__ZN7ndarray11arraytraits94_$LT$impl$u20$core..ops..index..Index$LT$I$GT$$u20$for$u20$ndarray..ArrayBase$LT$S$C$D$GT$$GT$5index17ha92f83c8db73d4c1E', symObjAddr: 0x11D4, symBinAddr: 0x2DE318, symSize: 0x1F0 }
  - { offset: 0x24A426, size: 0x8, addend: 0x0, symName: '__ZN7ndarray11arraytraits94_$LT$impl$u20$core..ops..index..Index$LT$I$GT$$u20$for$u20$ndarray..ArrayBase$LT$S$C$D$GT$$GT$5index17he55d99b7c1804f54E', symObjAddr: 0x13C4, symBinAddr: 0x2DE508, symSize: 0x1F0 }
  - { offset: 0x24A500, size: 0x8, addend: 0x0, symName: '__ZN7ndarray11arraytraits97_$LT$impl$u20$core..ops..index..IndexMut$LT$I$GT$$u20$for$u20$ndarray..ArrayBase$LT$S$C$D$GT$$GT$9index_mut17hce7fddcccea940aaE', symObjAddr: 0x15B4, symBinAddr: 0x2DE6F8, symSize: 0x204 }
  - { offset: 0x24BD60, size: 0x8, addend: 0x0, symName: '__ZN7ndarray22ArrayBase$LT$S$C$D$GT$16broadcast_unwrap15broadcast_panic17h95597a15437a97cbE', symObjAddr: 0x8FD8, symBinAddr: 0x6B3380, symSize: 0xA0 }
  - { offset: 0x24BE0F, size: 0x8, addend: 0x0, symName: '__ZN7ndarray8impl_cow173_$LT$impl$u20$core..convert..From$LT$ndarray..ArrayBase$LT$ndarray..ViewRepr$LT$$RF$A$GT$$C$D$GT$$GT$$u20$for$u20$ndarray..ArrayBase$LT$ndarray..CowRepr$LT$A$GT$$C$D$GT$$GT$4from17h3bd94442c80b856dE', symObjAddr: 0xAB90, symBinAddr: 0x2E7C34, symSize: 0xCC }
  - { offset: 0x24BE54, size: 0x8, addend: 0x0, symName: '__ZN7ndarray8impl_cow181_$LT$impl$u20$core..convert..From$LT$ndarray..ArrayBase$LT$ndarray..data_repr..OwnedRepr$LT$A$GT$$C$D$GT$$GT$$u20$for$u20$ndarray..ArrayBase$LT$ndarray..CowRepr$LT$A$GT$$C$D$GT$$GT$4from17h45e1c90409f20177E', symObjAddr: 0xAC5C, symBinAddr: 0x2E7D00, symSize: 0xE8 }
  - { offset: 0x24DBA8, size: 0x8, addend: 0x0, symName: '__ZN116_$LT$ndarray..ArrayBase$LT$ndarray..data_repr..OwnedRepr$LT$A$GT$$C$D$GT$$u20$as$u20$numpy..convert..IntoPyArray$GT$12into_pyarray17h3a232d9efcc67484E', symObjAddr: 0x0, symBinAddr: 0x2DD144, symSize: 0x38 }
  - { offset: 0x24DC00, size: 0x8, addend: 0x0, symName: '__ZN116_$LT$ndarray..ArrayBase$LT$ndarray..data_repr..OwnedRepr$LT$A$GT$$C$D$GT$$u20$as$u20$numpy..convert..IntoPyArray$GT$12into_pyarray17h66eab567ea0c09ebE', symObjAddr: 0x38, symBinAddr: 0x2DD17C, symSize: 0x38 }
  - { offset: 0x24DC5E, size: 0x8, addend: 0x0, symName: '__ZN76_$LT$ndarray..ArrayBase$LT$S$C$D$GT$$u20$as$u20$numpy..convert..ArrayExt$GT$11npy_strides17h3dec23aba7977818E', symObjAddr: 0x898, symBinAddr: 0x2DD9DC, symSize: 0x170 }
  - { offset: 0x24DD0F, size: 0x8, addend: 0x0, symName: '__ZN76_$LT$ndarray..ArrayBase$LT$S$C$D$GT$$u20$as$u20$numpy..convert..ArrayExt$GT$11npy_strides17hc50933c26d03a842E', symObjAddr: 0xA08, symBinAddr: 0x2DDB4C, symSize: 0x170 }
  - { offset: 0x24DF27, size: 0x8, addend: 0x0, symName: '__ZN7ndarray10impl_views11conversions78_$LT$impl$u20$ndarray..ArrayBase$LT$ndarray..ViewRepr$LT$$RF$A$GT$$C$D$GT$$GT$10into_iter_17hfe511bca481c4e7dE', symObjAddr: 0xB78, symBinAddr: 0x2DDCBC, symSize: 0x40 }
  - { offset: 0x24DF78, size: 0x8, addend: 0x0, symName: '__ZN7ndarray10impl_views11conversions78_$LT$impl$u20$ndarray..ArrayBase$LT$ndarray..ViewRepr$LT$$RF$A$GT$$C$D$GT$$GT$14into_base_iter17hfcbba256e8dfc7a7E', symObjAddr: 0xBB8, symBinAddr: 0x2DDCFC, symSize: 0xC0 }
  - { offset: 0x24DFCA, size: 0x8, addend: 0x0, symName: '__ZN7ndarray10impl_views11conversions78_$LT$impl$u20$ndarray..ArrayBase$LT$ndarray..ViewRepr$LT$$RF$A$GT$$C$D$GT$$GT$18into_elements_base17h25dfa6d0aee52faeE', symObjAddr: 0xC78, symBinAddr: 0x2DDDBC, symSize: 0x40 }
  - { offset: 0x24E033, size: 0x8, addend: 0x0, symName: '__ZN7ndarray10impl_views11conversions78_$LT$impl$u20$ndarray..ArrayBase$LT$ndarray..ViewRepr$LT$$RF$A$GT$$C$D$GT$$GT$8to_slice17h2a8462047737015fE', symObjAddr: 0xCB8, symBinAddr: 0x2DDDFC, symSize: 0x74 }
  - { offset: 0x24E067, size: 0x8, addend: 0x0, symName: '__ZN7ndarray10impl_views11conversions86_$LT$impl$u20$ndarray..ArrayBase$LT$ndarray..ViewRepr$LT$$RF$mut$u20$A$GT$$C$D$GT$$GT$14into_base_iter17hc06a9c0569ff344aE', symObjAddr: 0xD2C, symBinAddr: 0x2DDE70, symSize: 0xC0 }
  - { offset: 0x24E0B9, size: 0x8, addend: 0x0, symName: '__ZN7ndarray10impl_views11conversions86_$LT$impl$u20$ndarray..ArrayBase$LT$ndarray..ViewRepr$LT$$RF$mut$u20$A$GT$$C$D$GT$$GT$18into_elements_base17hb231126480252569E', symObjAddr: 0xDEC, symBinAddr: 0x2DDF30, symSize: 0x40 }
  - { offset: 0x24E0FB, size: 0x8, addend: 0x0, symName: '__ZN7ndarray10impl_views12constructors78_$LT$impl$u20$ndarray..ArrayBase$LT$ndarray..ViewRepr$LT$$RF$A$GT$$C$D$GT$$GT$14from_shape_ptr17h958e1c64fc29271dE', symObjAddr: 0xE2C, symBinAddr: 0x2DDF70, symSize: 0x64 }
  - { offset: 0x24E147, size: 0x8, addend: 0x0, symName: '__ZN7ndarray10impl_views12constructors78_$LT$impl$u20$ndarray..ArrayBase$LT$ndarray..ViewRepr$LT$$RF$A$GT$$C$D$GT$$GT$14from_shape_ptr17hd0f4096bbe21d745E', symObjAddr: 0xE90, symBinAddr: 0x2DDFD4, symSize: 0x64 }
  - { offset: 0x24E272, size: 0x8, addend: 0x0, symName: '__ZN7ndarray10impl_views12constructors78_$LT$impl$u20$ndarray..ArrayBase$LT$ndarray..ViewRepr$LT$$RF$A$GT$$C$D$GT$$GT$4new_17h9b48c2e15d6b0a38E', symObjAddr: 0xEF4, symBinAddr: 0x2DE038, symSize: 0x288 }
  - { offset: 0x24E37B, size: 0x8, addend: 0x0, symName: '__ZN7ndarray12impl_methods49_$LT$impl$u20$ndarray..ArrayBase$LT$S$C$D$GT$$GT$10into_owned17h140aacef5d15f8daE', symObjAddr: 0x17DC, symBinAddr: 0x2DE920, symSize: 0x40 }
  - { offset: 0x24E3C6, size: 0x8, addend: 0x0, symName: '__ZN7ndarray12impl_methods49_$LT$impl$u20$ndarray..ArrayBase$LT$S$C$D$GT$$GT$10slice_move17hbb653ae9235dcdc5E', symObjAddr: 0x181C, symBinAddr: 0x2DE960, symSize: 0x31C }
  - { offset: 0x24E568, size: 0x8, addend: 0x0, symName: '__ZN7ndarray12impl_methods49_$LT$impl$u20$ndarray..ArrayBase$LT$S$C$D$GT$$GT$10slice_move17he5a471afa46d524bE', symObjAddr: 0x1B38, symBinAddr: 0x2DEC7C, symSize: 0x31C }
  - { offset: 0x24E73F, size: 0x8, addend: 0x0, symName: '__ZN7ndarray12impl_methods49_$LT$impl$u20$ndarray..ArrayBase$LT$S$C$D$GT$$GT$11invert_axis17h23a4a242ec0c2657E', symObjAddr: 0x1E54, symBinAddr: 0x2DEF98, symSize: 0x12C }
  - { offset: 0x24E812, size: 0x8, addend: 0x0, symName: '__ZN7ndarray12impl_methods49_$LT$impl$u20$ndarray..ArrayBase$LT$S$C$D$GT$$GT$11invert_axis17hcc1be193ad109865E', symObjAddr: 0x1F80, symBinAddr: 0x2DF0C4, symSize: 0x12C }
  - { offset: 0x24E957, size: 0x8, addend: 0x0, symName: '__ZN7ndarray12impl_methods49_$LT$impl$u20$ndarray..ArrayBase$LT$S$C$D$GT$$GT$11map_inplace17h4c8a24092e4d6ba7E', symObjAddr: 0x20AC, symBinAddr: 0x2DF1F0, symSize: 0x150 }
  - { offset: 0x24E9F8, size: 0x8, addend: 0x0, symName: '__ZN7ndarray12impl_methods49_$LT$impl$u20$ndarray..ArrayBase$LT$S$C$D$GT$$GT$11map_inplace17h7b811ae2cd5de7b3E', symObjAddr: 0x21FC, symBinAddr: 0x2DF340, symSize: 0x170 }
  - { offset: 0x24EA9B, size: 0x8, addend: 0x0, symName: '__ZN7ndarray12impl_methods49_$LT$impl$u20$ndarray..ArrayBase$LT$S$C$D$GT$$GT$11map_inplace17h84876be4d898e050E', symObjAddr: 0x236C, symBinAddr: 0x2DF4B0, symSize: 0x170 }
  - { offset: 0x24EB3E, size: 0x8, addend: 0x0, symName: '__ZN7ndarray12impl_methods49_$LT$impl$u20$ndarray..ArrayBase$LT$S$C$D$GT$$GT$11map_inplace17haf1667ea98decb30E', symObjAddr: 0x24DC, symBinAddr: 0x2DF620, symSize: 0x170 }
  - { offset: 0x24EBEE, size: 0x8, addend: 0x0, symName: '__ZN7ndarray12impl_methods49_$LT$impl$u20$ndarray..ArrayBase$LT$S$C$D$GT$$GT$11map_inplace17hd96a6da259be9c11E', symObjAddr: 0x264C, symBinAddr: 0x2DF790, symSize: 0x160 }
  - { offset: 0x24EC8F, size: 0x8, addend: 0x0, symName: '__ZN7ndarray12impl_methods49_$LT$impl$u20$ndarray..ArrayBase$LT$S$C$D$GT$$GT$12mapv_inplace17h631c2056a49d8d9fE', symObjAddr: 0x27AC, symBinAddr: 0x2DF8F0, symSize: 0x34 }
  - { offset: 0x24ECE5, size: 0x8, addend: 0x0, symName: '__ZN7ndarray12impl_methods49_$LT$impl$u20$ndarray..ArrayBase$LT$S$C$D$GT$$GT$12mapv_inplace17hdb68db213092307eE', symObjAddr: 0x27E0, symBinAddr: 0x2DF924, symSize: 0x34 }
  - { offset: 0x24ED3B, size: 0x8, addend: 0x0, symName: '__ZN7ndarray12impl_methods49_$LT$impl$u20$ndarray..ArrayBase$LT$S$C$D$GT$$GT$12mapv_inplace17hea940407f374284eE', symObjAddr: 0x2814, symBinAddr: 0x2DF958, symSize: 0x24 }
  - { offset: 0x24ED91, size: 0x8, addend: 0x0, symName: '__ZN7ndarray12impl_methods49_$LT$impl$u20$ndarray..ArrayBase$LT$S$C$D$GT$$GT$12mapv_inplace17hebe6f0e7e1966bf3E', symObjAddr: 0x2838, symBinAddr: 0x2DF97C, symSize: 0x34 }
  - { offset: 0x24EF06, size: 0x8, addend: 0x0, symName: '__ZN7ndarray12impl_methods49_$LT$impl$u20$ndarray..ArrayBase$LT$S$C$D$GT$$GT$12zip_mut_with17hc530223b29c00c36E', symObjAddr: 0x286C, symBinAddr: 0x2DF9B0, symSize: 0x4E0 }
  - { offset: 0x24F066, size: 0x8, addend: 0x0, symName: '__ZN7ndarray12impl_methods49_$LT$impl$u20$ndarray..ArrayBase$LT$S$C$D$GT$$GT$13collapse_axis17h756a023552c8468eE', symObjAddr: 0x2D4C, symBinAddr: 0x2DFE90, symSize: 0x94 }
  - { offset: 0x24F106, size: 0x8, addend: 0x0, symName: '__ZN7ndarray12impl_methods49_$LT$impl$u20$ndarray..ArrayBase$LT$S$C$D$GT$$GT$13collapse_axis17hcc3f37e3214e9610E', symObjAddr: 0x2DE0, symBinAddr: 0x2DFF24, symSize: 0x94 }
  - { offset: 0x24F1A6, size: 0x8, addend: 0x0, symName: '__ZN7ndarray12impl_methods49_$LT$impl$u20$ndarray..ArrayBase$LT$S$C$D$GT$$GT$13ensure_unique17h05f1385c8304d76cE', symObjAddr: 0x2E74, symBinAddr: 0x2DFFB8, symSize: 0x80 }
  - { offset: 0x24F1E4, size: 0x8, addend: 0x0, symName: '__ZN7ndarray12impl_methods49_$LT$impl$u20$ndarray..ArrayBase$LT$S$C$D$GT$$GT$13ensure_unique17h4f336922e274f6d2E', symObjAddr: 0x2EF4, symBinAddr: 0x2E0038, symSize: 0x80 }
  - { offset: 0x24F236, size: 0x8, addend: 0x0, symName: '__ZN7ndarray12impl_methods49_$LT$impl$u20$ndarray..ArrayBase$LT$S$C$D$GT$$GT$13is_contiguous17h4b3b58833d55b436E', symObjAddr: 0x2F74, symBinAddr: 0x2E00B8, symSize: 0x30 }
  - { offset: 0x24F281, size: 0x8, addend: 0x0, symName: '__ZN7ndarray12impl_methods49_$LT$impl$u20$ndarray..ArrayBase$LT$S$C$D$GT$$GT$13is_contiguous17hf5456bb2d52e0057E', symObjAddr: 0x2FA4, symBinAddr: 0x2E00E8, symSize: 0x30 }
  - { offset: 0x24F2BF, size: 0x8, addend: 0x0, symName: '__ZN7ndarray12impl_methods49_$LT$impl$u20$ndarray..ArrayBase$LT$S$C$D$GT$$GT$13is_contiguous17hf7e067fb4111dbd0E', symObjAddr: 0x2FD4, symBinAddr: 0x2E0118, symSize: 0x30 }
  - { offset: 0x24F30A, size: 0x8, addend: 0x0, symName: '__ZN7ndarray12impl_methods49_$LT$impl$u20$ndarray..ArrayBase$LT$S$C$D$GT$$GT$13is_contiguous17hfe32821ed436d448E', symObjAddr: 0x3004, symBinAddr: 0x2E0148, symSize: 0x30 }
  - { offset: 0x24F348, size: 0x8, addend: 0x0, symName: '__ZN7ndarray12impl_methods49_$LT$impl$u20$ndarray..ArrayBase$LT$S$C$D$GT$$GT$17try_ensure_unique17h3d49665b4cc98b80E', symObjAddr: 0x3034, symBinAddr: 0x2E0178, symSize: 0x80 }
  - { offset: 0x24F393, size: 0x8, addend: 0x0, symName: '__ZN7ndarray12impl_methods49_$LT$impl$u20$ndarray..ArrayBase$LT$S$C$D$GT$$GT$17try_ensure_unique17h4456045b0af4708dE', symObjAddr: 0x30B4, symBinAddr: 0x2E01F8, symSize: 0x80 }
  - { offset: 0x24F3D1, size: 0x8, addend: 0x0, symName: '__ZN7ndarray12impl_methods49_$LT$impl$u20$ndarray..ArrayBase$LT$S$C$D$GT$$GT$17zip_mut_with_elem17ha598b05725bdd8b5E', symObjAddr: 0x3134, symBinAddr: 0x2E0278, symSize: 0x2C }
  - { offset: 0x24F43F, size: 0x8, addend: 0x0, symName: '__ZN7ndarray12impl_methods49_$LT$impl$u20$ndarray..ArrayBase$LT$S$C$D$GT$$GT$18as_standard_layout17hb05101a51e08cefcE', symObjAddr: 0x3160, symBinAddr: 0x2E02A4, symSize: 0x1CC }
  - { offset: 0x24F4F7, size: 0x8, addend: 0x0, symName: '__ZN7ndarray12impl_methods49_$LT$impl$u20$ndarray..ArrayBase$LT$S$C$D$GT$$GT$18is_standard_layout17h0517c492b64a60e3E', symObjAddr: 0x332C, symBinAddr: 0x2E0470, symSize: 0x30 }
  - { offset: 0x24F535, size: 0x8, addend: 0x0, symName: '__ZN7ndarray12impl_methods49_$LT$impl$u20$ndarray..ArrayBase$LT$S$C$D$GT$$GT$18is_standard_layout17hed01056457533721E', symObjAddr: 0x335C, symBinAddr: 0x2E04A0, symSize: 0x30 }
  - { offset: 0x24F573, size: 0x8, addend: 0x0, symName: '__ZN7ndarray12impl_methods49_$LT$impl$u20$ndarray..ArrayBase$LT$S$C$D$GT$$GT$18slice_axis_inplace17h6c1ac9986f3ede45E', symObjAddr: 0x338C, symBinAddr: 0x2E04D0, symSize: 0x12C }
  - { offset: 0x24F60E, size: 0x8, addend: 0x0, symName: '__ZN7ndarray12impl_methods49_$LT$impl$u20$ndarray..ArrayBase$LT$S$C$D$GT$$GT$18slice_axis_inplace17h8486f48291c73f1aE', symObjAddr: 0x34B8, symBinAddr: 0x2E05FC, symSize: 0x12C }
  - { offset: 0x24F6D4, size: 0x8, addend: 0x0, symName: '__ZN7ndarray12impl_methods49_$LT$impl$u20$ndarray..ArrayBase$LT$S$C$D$GT$$GT$19into_dimensionality17h8ccee1fed4dfdd2aE', symObjAddr: 0x35E4, symBinAddr: 0x2E0728, symSize: 0x3A8 }
  - { offset: 0x24F778, size: 0x8, addend: 0x0, symName: '__ZN7ndarray12impl_methods49_$LT$impl$u20$ndarray..ArrayBase$LT$S$C$D$GT$$GT$19pointer_is_inbounds17h252e7a6bf2fb807bE', symObjAddr: 0x398C, symBinAddr: 0x2E0AD0, symSize: 0x38 }
  - { offset: 0x24F802, size: 0x8, addend: 0x0, symName: '__ZN7ndarray12impl_methods49_$LT$impl$u20$ndarray..ArrayBase$LT$S$C$D$GT$$GT$19pointer_is_inbounds17h28a2dbe09a19fec4E', symObjAddr: 0x39C4, symBinAddr: 0x2E0B08, symSize: 0x38 }
  - { offset: 0x24F899, size: 0x8, addend: 0x0, symName: '__ZN7ndarray12impl_methods49_$LT$impl$u20$ndarray..ArrayBase$LT$S$C$D$GT$$GT$19pointer_is_inbounds17h2ca99cff67b1dbf5E', symObjAddr: 0x39FC, symBinAddr: 0x2E0B40, symSize: 0x34 }
  - { offset: 0x24F8F5, size: 0x8, addend: 0x0, symName: '__ZN7ndarray12impl_methods49_$LT$impl$u20$ndarray..ArrayBase$LT$S$C$D$GT$$GT$19pointer_is_inbounds17h5ec3bf60e1b8f83bE', symObjAddr: 0x3A30, symBinAddr: 0x2E0B74, symSize: 0x38 }
  - { offset: 0x24F97F, size: 0x8, addend: 0x0, symName: '__ZN7ndarray12impl_methods49_$LT$impl$u20$ndarray..ArrayBase$LT$S$C$D$GT$$GT$19pointer_is_inbounds17h8a5439af59003106E', symObjAddr: 0x3A68, symBinAddr: 0x2E0BAC, symSize: 0x38 }
  - { offset: 0x24FA09, size: 0x8, addend: 0x0, symName: '__ZN7ndarray12impl_methods49_$LT$impl$u20$ndarray..ArrayBase$LT$S$C$D$GT$$GT$19pointer_is_inbounds17h90e6ae4beee972d3E', symObjAddr: 0x3AA0, symBinAddr: 0x2E0BE4, symSize: 0x38 }
  - { offset: 0x24FAA0, size: 0x8, addend: 0x0, symName: '__ZN7ndarray12impl_methods49_$LT$impl$u20$ndarray..ArrayBase$LT$S$C$D$GT$$GT$19pointer_is_inbounds17h987d12a45c8402b9E', symObjAddr: 0x3AD8, symBinAddr: 0x2E0C1C, symSize: 0x38 }
  - { offset: 0x24FB2A, size: 0x8, addend: 0x0, symName: '__ZN7ndarray12impl_methods49_$LT$impl$u20$ndarray..ArrayBase$LT$S$C$D$GT$$GT$19pointer_is_inbounds17haabcc68d6fc7c8d9E', symObjAddr: 0x3B10, symBinAddr: 0x2E0C54, symSize: 0x34 }
  - { offset: 0x24FBC1, size: 0x8, addend: 0x0, symName: '__ZN7ndarray12impl_methods49_$LT$impl$u20$ndarray..ArrayBase$LT$S$C$D$GT$$GT$19pointer_is_inbounds17hc6ff8e1996fa665cE', symObjAddr: 0x3B44, symBinAddr: 0x2E0C88, symSize: 0x34 }
  - { offset: 0x24FC58, size: 0x8, addend: 0x0, symName: '__ZN7ndarray12impl_methods49_$LT$impl$u20$ndarray..ArrayBase$LT$S$C$D$GT$$GT$19pointer_is_inbounds17hec41074dbc057742E', symObjAddr: 0x3B78, symBinAddr: 0x2E0CBC, symSize: 0x38 }
  - { offset: 0x24FD04, size: 0x8, addend: 0x0, symName: '__ZN7ndarray12impl_methods49_$LT$impl$u20$ndarray..ArrayBase$LT$S$C$D$GT$$GT$21as_slice_memory_order17h8ab03d5bdc81c499E', symObjAddr: 0x3BB0, symBinAddr: 0x2E0CF4, symSize: 0xCC }
  - { offset: 0x24FDCA, size: 0x8, addend: 0x0, symName: '__ZN7ndarray12impl_methods49_$LT$impl$u20$ndarray..ArrayBase$LT$S$C$D$GT$$GT$21as_slice_memory_order17hc1b2104fa8890ca5E', symObjAddr: 0x3C7C, symBinAddr: 0x2E0DC0, symSize: 0xCC }
  - { offset: 0x24FE90, size: 0x8, addend: 0x0, symName: '__ZN7ndarray12impl_methods49_$LT$impl$u20$ndarray..ArrayBase$LT$S$C$D$GT$$GT$23zip_mut_with_same_shape17hacc70df1c29e3fcdE', symObjAddr: 0x3D48, symBinAddr: 0x2E0E8C, symSize: 0x664 }
  - { offset: 0x2500AB, size: 0x8, addend: 0x0, symName: '__ZN7ndarray12impl_methods49_$LT$impl$u20$ndarray..ArrayBase$LT$S$C$D$GT$$GT$25as_slice_memory_order_mut17h9b3a4383f6ad4cf1E', symObjAddr: 0x43AC, symBinAddr: 0x2E14F0, symSize: 0x34 }
  - { offset: 0x2500E9, size: 0x8, addend: 0x0, symName: '__ZN7ndarray12impl_methods49_$LT$impl$u20$ndarray..ArrayBase$LT$S$C$D$GT$$GT$29try_as_slice_memory_order_mut17h5646283f492ed351E', symObjAddr: 0x43E0, symBinAddr: 0x2E1524, symSize: 0xE0 }
  - { offset: 0x2501AF, size: 0x8, addend: 0x0, symName: '__ZN7ndarray12impl_methods49_$LT$impl$u20$ndarray..ArrayBase$LT$S$C$D$GT$$GT$29try_as_slice_memory_order_mut17hfc9c6eb5cc98afcdE', symObjAddr: 0x44C0, symBinAddr: 0x2E1604, symSize: 0xE0 }
  - { offset: 0x250275, size: 0x8, addend: 0x0, symName: '__ZN7ndarray12impl_methods49_$LT$impl$u20$ndarray..ArrayBase$LT$S$C$D$GT$$GT$3len17h47786e8921e7b66aE', symObjAddr: 0x45A0, symBinAddr: 0x2E16E4, symSize: 0x24 }
  - { offset: 0x2502B2, size: 0x8, addend: 0x0, symName: '__ZN7ndarray12impl_methods49_$LT$impl$u20$ndarray..ArrayBase$LT$S$C$D$GT$$GT$3len17h6613e82b31ed4bfaE', symObjAddr: 0x45C4, symBinAddr: 0x2E1708, symSize: 0x24 }
  - { offset: 0x2502EF, size: 0x8, addend: 0x0, symName: '__ZN7ndarray12impl_methods49_$LT$impl$u20$ndarray..ArrayBase$LT$S$C$D$GT$$GT$3len17ha69a78d16d7bfc1aE', symObjAddr: 0x45E8, symBinAddr: 0x2E172C, symSize: 0x24 }
  - { offset: 0x25032C, size: 0x8, addend: 0x0, symName: '__ZN7ndarray12impl_methods49_$LT$impl$u20$ndarray..ArrayBase$LT$S$C$D$GT$$GT$3len17hf72891ce73071998E', symObjAddr: 0x460C, symBinAddr: 0x2E1750, symSize: 0x24 }
  - { offset: 0x250381, size: 0x8, addend: 0x0, symName: '__ZN7ndarray12impl_methods49_$LT$impl$u20$ndarray..ArrayBase$LT$S$C$D$GT$$GT$3map17h02cf824da0107cb8E', symObjAddr: 0x4630, symBinAddr: 0x2E1774, symSize: 0x1FC }
  - { offset: 0x2503F6, size: 0x8, addend: 0x0, symName: '__ZN7ndarray12impl_methods49_$LT$impl$u20$ndarray..ArrayBase$LT$S$C$D$GT$$GT$3map17h37252dc04eafc5efE', symObjAddr: 0x482C, symBinAddr: 0x2E1970, symSize: 0x1FC }
  - { offset: 0x25046B, size: 0x8, addend: 0x0, symName: '__ZN7ndarray12impl_methods49_$LT$impl$u20$ndarray..ArrayBase$LT$S$C$D$GT$$GT$4iter17h1a2608cc336f1f5dE', symObjAddr: 0x4A28, symBinAddr: 0x2E1B6C, symSize: 0x6C }
  - { offset: 0x2504A9, size: 0x8, addend: 0x0, symName: '__ZN7ndarray12impl_methods49_$LT$impl$u20$ndarray..ArrayBase$LT$S$C$D$GT$$GT$4iter17h1af292a9954fa731E', symObjAddr: 0x4A94, symBinAddr: 0x2E1BD8, symSize: 0x6C }
  - { offset: 0x2504E7, size: 0x8, addend: 0x0, symName: '__ZN7ndarray12impl_methods49_$LT$impl$u20$ndarray..ArrayBase$LT$S$C$D$GT$$GT$4iter17hca2e5ac4d926fddaE', symObjAddr: 0x4B00, symBinAddr: 0x2E1C44, symSize: 0x6C }
  - { offset: 0x250525, size: 0x8, addend: 0x0, symName: '__ZN7ndarray12impl_methods49_$LT$impl$u20$ndarray..ArrayBase$LT$S$C$D$GT$$GT$4ndim17h54985964446da971E', symObjAddr: 0x4B6C, symBinAddr: 0x2E1CB0, symSize: 0x24 }
  - { offset: 0x250562, size: 0x8, addend: 0x0, symName: '__ZN7ndarray12impl_methods49_$LT$impl$u20$ndarray..ArrayBase$LT$S$C$D$GT$$GT$4ndim17h70592e0204f2955eE', symObjAddr: 0x4B90, symBinAddr: 0x2E1CD4, symSize: 0x24 }
  - { offset: 0x2505D9, size: 0x8, addend: 0x0, symName: '__ZN7ndarray12impl_methods49_$LT$impl$u20$ndarray..ArrayBase$LT$S$C$D$GT$$GT$4view17h2673cfa9ad154affE', symObjAddr: 0x4BB4, symBinAddr: 0x2E1CF8, symSize: 0x25C }
  - { offset: 0x250692, size: 0x8, addend: 0x0, symName: '__ZN7ndarray12impl_methods49_$LT$impl$u20$ndarray..ArrayBase$LT$S$C$D$GT$$GT$4view17h60f2d48433a8c957E', symObjAddr: 0x4E10, symBinAddr: 0x2E1F54, symSize: 0x25C }
  - { offset: 0x25074B, size: 0x8, addend: 0x0, symName: '__ZN7ndarray12impl_methods49_$LT$impl$u20$ndarray..ArrayBase$LT$S$C$D$GT$$GT$4view17hd3010d9894629da1E', symObjAddr: 0x506C, symBinAddr: 0x2E21B0, symSize: 0x25C }
  - { offset: 0x250804, size: 0x8, addend: 0x0, symName: '__ZN7ndarray12impl_methods49_$LT$impl$u20$ndarray..ArrayBase$LT$S$C$D$GT$$GT$5shape17h1a676bbc54c66015E', symObjAddr: 0x52C8, symBinAddr: 0x2E240C, symSize: 0x24 }
  - { offset: 0x250841, size: 0x8, addend: 0x0, symName: '__ZN7ndarray12impl_methods49_$LT$impl$u20$ndarray..ArrayBase$LT$S$C$D$GT$$GT$5shape17h1caf9ab94168bde2E', symObjAddr: 0x52EC, symBinAddr: 0x2E2430, symSize: 0x24 }
  - { offset: 0x25087E, size: 0x8, addend: 0x0, symName: '__ZN7ndarray12impl_methods49_$LT$impl$u20$ndarray..ArrayBase$LT$S$C$D$GT$$GT$5shape17h6bd0104235c494bbE', symObjAddr: 0x5310, symBinAddr: 0x2E2454, symSize: 0x24 }
  - { offset: 0x2508C8, size: 0x8, addend: 0x0, symName: '__ZN7ndarray12impl_methods49_$LT$impl$u20$ndarray..ArrayBase$LT$S$C$D$GT$$GT$5shape17h725d877dfabd696dE', symObjAddr: 0x5334, symBinAddr: 0x2E2478, symSize: 0x24 }
  - { offset: 0x250912, size: 0x8, addend: 0x0, symName: '__ZN7ndarray12impl_methods49_$LT$impl$u20$ndarray..ArrayBase$LT$S$C$D$GT$$GT$5shape17hef4cb7466ddeec8fE', symObjAddr: 0x5358, symBinAddr: 0x2E249C, symSize: 0x24 }
  - { offset: 0x25094F, size: 0x8, addend: 0x0, symName: '__ZN7ndarray12impl_methods49_$LT$impl$u20$ndarray..ArrayBase$LT$S$C$D$GT$$GT$5slice17hc5e130964aa528e2E', symObjAddr: 0x537C, symBinAddr: 0x2E24C0, symSize: 0x98 }
  - { offset: 0x2509A6, size: 0x8, addend: 0x0, symName: '__ZN7ndarray12impl_methods49_$LT$impl$u20$ndarray..ArrayBase$LT$S$C$D$GT$$GT$6assign17h6c0738377a9af7f4E', symObjAddr: 0x5414, symBinAddr: 0x2E2558, symSize: 0x2C }
  - { offset: 0x250A05, size: 0x8, addend: 0x0, symName: '__ZN7ndarray12impl_methods49_$LT$impl$u20$ndarray..ArrayBase$LT$S$C$D$GT$$GT$6get_0d17h8a753ad7f18ad0c2E', symObjAddr: 0x5440, symBinAddr: 0x2E2584, symSize: 0xAC }
  - { offset: 0x250A6E, size: 0x8, addend: 0x0, symName: '__ZN7ndarray12impl_methods49_$LT$impl$u20$ndarray..ArrayBase$LT$S$C$D$GT$$GT$6len_of17h33bb830b20243196E', symObjAddr: 0x54EC, symBinAddr: 0x2E2630, symSize: 0x74 }
  - { offset: 0x250ADE, size: 0x8, addend: 0x0, symName: '__ZN7ndarray12impl_methods49_$LT$impl$u20$ndarray..ArrayBase$LT$S$C$D$GT$$GT$6len_of17h69c2d30987c0edbdE', symObjAddr: 0x5560, symBinAddr: 0x2E26A4, symSize: 0x74 }
  - { offset: 0x250B4E, size: 0x8, addend: 0x0, symName: '__ZN7ndarray12impl_methods49_$LT$impl$u20$ndarray..ArrayBase$LT$S$C$D$GT$$GT$7raw_dim17h1c8fdee2e93f4951E', symObjAddr: 0x55D4, symBinAddr: 0x2E2718, symSize: 0x34 }
  - { offset: 0x250B8B, size: 0x8, addend: 0x0, symName: '__ZN7ndarray12impl_methods49_$LT$impl$u20$ndarray..ArrayBase$LT$S$C$D$GT$$GT$7raw_dim17h4057155ba4818dc6E', symObjAddr: 0x5608, symBinAddr: 0x2E274C, symSize: 0x24 }
  - { offset: 0x250BC8, size: 0x8, addend: 0x0, symName: '__ZN7ndarray12impl_methods49_$LT$impl$u20$ndarray..ArrayBase$LT$S$C$D$GT$$GT$7raw_dim17hb4463be7ffda5246E', symObjAddr: 0x562C, symBinAddr: 0x2E2770, symSize: 0x24 }
  - { offset: 0x250C05, size: 0x8, addend: 0x0, symName: '__ZN7ndarray12impl_methods49_$LT$impl$u20$ndarray..ArrayBase$LT$S$C$D$GT$$GT$7raw_dim17hcbb4fa3b9b9b3657E', symObjAddr: 0x5650, symBinAddr: 0x2E2794, symSize: 0x34 }
  - { offset: 0x250C42, size: 0x8, addend: 0x0, symName: '__ZN7ndarray12impl_methods49_$LT$impl$u20$ndarray..ArrayBase$LT$S$C$D$GT$$GT$7raw_dim17hd2fb2b488130b54cE', symObjAddr: 0x5684, symBinAddr: 0x2E27C8, symSize: 0x24 }
  - { offset: 0x250C7F, size: 0x8, addend: 0x0, symName: '__ZN7ndarray12impl_methods49_$LT$impl$u20$ndarray..ArrayBase$LT$S$C$D$GT$$GT$7raw_dim17hda723c9fa9d6a458E', symObjAddr: 0x56A8, symBinAddr: 0x2E27EC, symSize: 0x24 }
  - { offset: 0x250CC9, size: 0x8, addend: 0x0, symName: '__ZN7ndarray12impl_methods49_$LT$impl$u20$ndarray..ArrayBase$LT$S$C$D$GT$$GT$7raw_dim17hfb4c0756ee5ab2d4E', symObjAddr: 0x56CC, symBinAddr: 0x2E2810, symSize: 0x24 }
  - { offset: 0x250D2D, size: 0x8, addend: 0x0, symName: '__ZN7ndarray12impl_methods49_$LT$impl$u20$ndarray..ArrayBase$LT$S$C$D$GT$$GT$7strides17h313b8444701590dbE', symObjAddr: 0x56F0, symBinAddr: 0x2E2834, symSize: 0x48 }
  - { offset: 0x250D87, size: 0x8, addend: 0x0, symName: '__ZN7ndarray12impl_methods49_$LT$impl$u20$ndarray..ArrayBase$LT$S$C$D$GT$$GT$7strides17h9a782f714ad769c3E', symObjAddr: 0x5738, symBinAddr: 0x2E287C, symSize: 0x48 }
  - { offset: 0x250DE1, size: 0x8, addend: 0x0, symName: '__ZN7ndarray12impl_methods49_$LT$impl$u20$ndarray..ArrayBase$LT$S$C$D$GT$$GT$8to_owned17h4145a2ebe5334278E', symObjAddr: 0x5780, symBinAddr: 0x2E28C4, symSize: 0x140 }
  - { offset: 0x250E33, size: 0x8, addend: 0x0, symName: '__ZN7ndarray12impl_methods49_$LT$impl$u20$ndarray..ArrayBase$LT$S$C$D$GT$$GT$8to_owned17ha63942946460e60aE', symObjAddr: 0x58C0, symBinAddr: 0x2E2A04, symSize: 0x140 }
  - { offset: 0x250ECF, size: 0x8, addend: 0x0, symName: '__ZN7ndarray12impl_methods49_$LT$impl$u20$ndarray..ArrayBase$LT$S$C$D$GT$$GT$8view_mut17h440e75a551f6deaeE', symObjAddr: 0x5A00, symBinAddr: 0x2E2B44, symSize: 0x238 }
  - { offset: 0x250F8A, size: 0x8, addend: 0x0, symName: '__ZN7ndarray12impl_methods49_$LT$impl$u20$ndarray..ArrayBase$LT$S$C$D$GT$$GT$8view_mut17hffed19deb2278640E', symObjAddr: 0x5C38, symBinAddr: 0x2E2D7C, symSize: 0x238 }
  - { offset: 0x251045, size: 0x8, addend: 0x0, symName: '__ZN7ndarray12impl_methods49_$LT$impl$u20$ndarray..ArrayBase$LT$S$C$D$GT$$GT$9broadcast17hd2b7c51fecb861d1E', symObjAddr: 0x5E70, symBinAddr: 0x2E2FB4, symSize: 0x2E8 }
  - { offset: 0x251186, size: 0x8, addend: 0x0, symName: '__ZN7ndarray12impl_methods49_$LT$impl$u20$ndarray..ArrayBase$LT$S$C$D$GT$$GT$9slice_mut17hc27208d65e70046bE', symObjAddr: 0x6158, symBinAddr: 0x2E329C, symSize: 0x98 }
  - { offset: 0x2511EA, size: 0x8, addend: 0x0, symName: '__ZN7ndarray12impl_methods49_$LT$impl$u20$ndarray..ArrayBase$LT$S$C$D$GT$$GT$9stride_of17h1eff080bff973277E', symObjAddr: 0x61F0, symBinAddr: 0x2E3334, symSize: 0x74 }
  - { offset: 0x251267, size: 0x8, addend: 0x0, symName: '__ZN7ndarray12impl_methods49_$LT$impl$u20$ndarray..ArrayBase$LT$S$C$D$GT$$GT$9stride_of17h7abbfee0f1ab22f4E', symObjAddr: 0x6264, symBinAddr: 0x2E33A8, symSize: 0x74 }
  - { offset: 0x2512D7, size: 0x8, addend: 0x0, symName: '__ZN7ndarray12impl_methods49_$LT$impl$u20$ndarray..ArrayBase$LT$S$C$D$GT$$GT$9stride_of17hc5e5357ffabc9d55E', symObjAddr: 0x62D8, symBinAddr: 0x2E341C, symSize: 0x74 }
  - { offset: 0x251347, size: 0x8, addend: 0x0, symName: '__ZN7ndarray12impl_methods49_$LT$impl$u20$ndarray..ArrayBase$LT$S$C$D$GT$$GT$9stride_of17he59b90554e7472c8E', symObjAddr: 0x634C, symBinAddr: 0x2E3490, symSize: 0x74 }
  - { offset: 0x2513FA, size: 0x8, addend: 0x0, symName: '__ZN7ndarray14impl_raw_views91_$LT$impl$u20$ndarray..ArrayBase$LT$ndarray..RawViewRepr$LT$$BP$const$u20$A$GT$$C$D$GT$$GT$14from_shape_ptr17h32fef086f6dda7f0E', symObjAddr: 0x63C0, symBinAddr: 0x2E3504, symSize: 0x368 }
  - { offset: 0x251551, size: 0x8, addend: 0x0, symName: '__ZN7ndarray14impl_raw_views91_$LT$impl$u20$ndarray..ArrayBase$LT$ndarray..RawViewRepr$LT$$BP$const$u20$A$GT$$C$D$GT$$GT$14from_shape_ptr17he26e8e38f4c42189E', symObjAddr: 0x6728, symBinAddr: 0x2E386C, symSize: 0x354 }
  - { offset: 0x2516A8, size: 0x8, addend: 0x0, symName: '__ZN7ndarray14impl_raw_views91_$LT$impl$u20$ndarray..ArrayBase$LT$ndarray..RawViewRepr$LT$$BP$const$u20$A$GT$$C$D$GT$$GT$15deref_into_view17h00bef75fb6c8c435E', symObjAddr: 0x6A7C, symBinAddr: 0x2E3BC0, symSize: 0x290 }
  - { offset: 0x2517B1, size: 0x8, addend: 0x0, symName: '__ZN7ndarray14impl_raw_views91_$LT$impl$u20$ndarray..ArrayBase$LT$ndarray..RawViewRepr$LT$$BP$const$u20$A$GT$$C$D$GT$$GT$15deref_into_view17h03166d5ba9c44795E', symObjAddr: 0x6D0C, symBinAddr: 0x2E3E50, symSize: 0x270 }
  - { offset: 0x251890, size: 0x8, addend: 0x0, symName: '__ZN7ndarray14impl_raw_views91_$LT$impl$u20$ndarray..ArrayBase$LT$ndarray..RawViewRepr$LT$$BP$const$u20$A$GT$$C$D$GT$$GT$3new17h66eb2cfdb967df8bE', symObjAddr: 0x6F7C, symBinAddr: 0x2E40C0, symSize: 0xC4 }
  - { offset: 0x2518F6, size: 0x8, addend: 0x0, symName: '__ZN7ndarray14impl_raw_views91_$LT$impl$u20$ndarray..ArrayBase$LT$ndarray..RawViewRepr$LT$$BP$const$u20$A$GT$$C$D$GT$$GT$3new17hbc324e6f6e628ed3E', symObjAddr: 0x7040, symBinAddr: 0x2E4184, symSize: 0xD4 }
  - { offset: 0x25195C, size: 0x8, addend: 0x0, symName: '__ZN7ndarray14impl_raw_views91_$LT$impl$u20$ndarray..ArrayBase$LT$ndarray..RawViewRepr$LT$$BP$const$u20$A$GT$$C$D$GT$$GT$4new_17h99db819e15a8aeeeE', symObjAddr: 0x7114, symBinAddr: 0x2E4258, symSize: 0xCC }
  - { offset: 0x2519AE, size: 0x8, addend: 0x0, symName: '__ZN7ndarray14impl_raw_views91_$LT$impl$u20$ndarray..ArrayBase$LT$ndarray..RawViewRepr$LT$$BP$const$u20$A$GT$$C$D$GT$$GT$4new_17hfc84d7f6f61dedfaE', symObjAddr: 0x71E0, symBinAddr: 0x2E4324, symSize: 0xBC }
  - { offset: 0x251AC9, size: 0x8, addend: 0x0, symName: '__ZN7ndarray16impl_owned_array86_$LT$impl$u20$ndarray..ArrayBase$LT$ndarray..data_repr..OwnedRepr$LT$A$GT$$C$D$GT$$GT$12into_raw_vec17ha51f778c94eb6e3aE', symObjAddr: 0x729C, symBinAddr: 0x2E43E0, symSize: 0x58 }
  - { offset: 0x251AFE, size: 0x8, addend: 0x0, symName: '__ZN7ndarray16impl_owned_array86_$LT$impl$u20$ndarray..ArrayBase$LT$ndarray..data_repr..OwnedRepr$LT$A$GT$$C$D$GT$$GT$12into_raw_vec17hf428799ff4d19397E', symObjAddr: 0x72F4, symBinAddr: 0x2E4438, symSize: 0x58 }
  - { offset: 0x251B33, size: 0x8, addend: 0x0, symName: '__ZN7ndarray17impl_constructors49_$LT$impl$u20$ndarray..ArrayBase$LT$S$C$D$GT$$GT$14from_shape_vec17h23bb575ce634334dE', symObjAddr: 0x734C, symBinAddr: 0x2E4490, symSize: 0xC4 }
  - { offset: 0x251BA9, size: 0x8, addend: 0x0, symName: '__ZN7ndarray17impl_constructors49_$LT$impl$u20$ndarray..ArrayBase$LT$S$C$D$GT$$GT$14from_shape_vec17hd1c0ce8025db3327E', symObjAddr: 0x7410, symBinAddr: 0x2E4554, symSize: 0xA8 }
  - { offset: 0x251C00, size: 0x8, addend: 0x0, symName: '__ZN7ndarray17impl_constructors49_$LT$impl$u20$ndarray..ArrayBase$LT$S$C$D$GT$$GT$19from_shape_vec_impl17h1c0ba8b95190fe5bE', symObjAddr: 0x74B8, symBinAddr: 0x2E45FC, symSize: 0x2B0 }
  - { offset: 0x251CD0, size: 0x8, addend: 0x0, symName: '__ZN7ndarray17impl_constructors49_$LT$impl$u20$ndarray..ArrayBase$LT$S$C$D$GT$$GT$19from_shape_vec_impl17h45e9940ef22400b6E', symObjAddr: 0x7768, symBinAddr: 0x2E48AC, symSize: 0x338 }
  - { offset: 0x251DA0, size: 0x8, addend: 0x0, symName: '__ZN7ndarray17impl_constructors49_$LT$impl$u20$ndarray..ArrayBase$LT$S$C$D$GT$$GT$24from_shape_vec_unchecked17h1a04872639473752E', symObjAddr: 0x7AA0, symBinAddr: 0x2E4BE4, symSize: 0x164 }
  - { offset: 0x251E44, size: 0x8, addend: 0x0, symName: '__ZN7ndarray17impl_constructors49_$LT$impl$u20$ndarray..ArrayBase$LT$S$C$D$GT$$GT$24from_shape_vec_unchecked17h643510c3ee080a42E', symObjAddr: 0x7C04, symBinAddr: 0x2E4D48, symSize: 0x160 }
  - { offset: 0x251EE8, size: 0x8, addend: 0x0, symName: '__ZN7ndarray17impl_constructors49_$LT$impl$u20$ndarray..ArrayBase$LT$S$C$D$GT$$GT$24from_shape_vec_unchecked17h8745b783fcf1f16eE', symObjAddr: 0x7D64, symBinAddr: 0x2E4EA8, symSize: 0x158 }
  - { offset: 0x251FB4, size: 0x8, addend: 0x0, symName: '__ZN7ndarray17impl_constructors49_$LT$impl$u20$ndarray..ArrayBase$LT$S$C$D$GT$$GT$29from_vec_dim_stride_unchecked17h96ca2e801ec761b0E', symObjAddr: 0x7EBC, symBinAddr: 0x2E5000, symSize: 0x200 }
  - { offset: 0x252057, size: 0x8, addend: 0x0, symName: '__ZN7ndarray17impl_constructors49_$LT$impl$u20$ndarray..ArrayBase$LT$S$C$D$GT$$GT$29from_vec_dim_stride_unchecked17ha956dfcd77b24c18E', symObjAddr: 0x80BC, symBinAddr: 0x2E5200, symSize: 0x214 }
  - { offset: 0x2520FA, size: 0x8, addend: 0x0, symName: '__ZN7ndarray17impl_constructors49_$LT$impl$u20$ndarray..ArrayBase$LT$S$C$D$GT$$GT$29from_vec_dim_stride_unchecked17he6a2e3435eb6232bE', symObjAddr: 0x82D0, symBinAddr: 0x2E5414, symSize: 0x1EC }
  - { offset: 0x25219D, size: 0x8, addend: 0x0, symName: '__ZN7ndarray17impl_constructors49_$LT$impl$u20$ndarray..ArrayBase$LT$S$C$D$GT$$GT$33from_shape_trusted_iter_unchecked17h68bccaaec5b56ffaE', symObjAddr: 0x84BC, symBinAddr: 0x2E5600, symSize: 0x1C0 }
  - { offset: 0x25227A, size: 0x8, addend: 0x0, symName: '__ZN7ndarray17impl_constructors49_$LT$impl$u20$ndarray..ArrayBase$LT$S$C$D$GT$$GT$33from_shape_trusted_iter_unchecked17ha4f5f25abde45459E', symObjAddr: 0x867C, symBinAddr: 0x2E57C0, symSize: 0x1C4 }
  - { offset: 0x252380, size: 0x8, addend: 0x0, symName: '__ZN7ndarray17impl_constructors49_$LT$impl$u20$ndarray..ArrayBase$LT$S$C$D$GT$$GT$5zeros17hd2a97b715c2e4fefE', symObjAddr: 0x8840, symBinAddr: 0x2E5984, symSize: 0x88 }
  - { offset: 0x2523C8, size: 0x8, addend: 0x0, symName: '__ZN7ndarray17impl_constructors49_$LT$impl$u20$ndarray..ArrayBase$LT$S$C$D$GT$$GT$9from_elem17h3bbc9f1b886cdd4cE', symObjAddr: 0x88C8, symBinAddr: 0x2E5A0C, symSize: 0x190 }
  - { offset: 0x2524A8, size: 0x8, addend: 0x0, symName: '__ZN7ndarray22ArrayBase$LT$S$C$D$GT$15try_remove_axis17hacadf479d5c0ca00E', symObjAddr: 0x8A58, symBinAddr: 0x2E5B9C, symSize: 0xFC }
  - { offset: 0x25252A, size: 0x8, addend: 0x0, symName: '__ZN7ndarray22ArrayBase$LT$S$C$D$GT$15try_remove_axis17hce2b4ac64fc5da2fE', symObjAddr: 0x8B54, symBinAddr: 0x2E5C98, symSize: 0xFC }
  - { offset: 0x2525AC, size: 0x8, addend: 0x0, symName: '__ZN7ndarray22ArrayBase$LT$S$C$D$GT$16broadcast_assume17hee37cfb9e9d59577E', symObjAddr: 0x8C50, symBinAddr: 0x2E5D94, symSize: 0x388 }
  - { offset: 0x252734, size: 0x8, addend: 0x0, symName: '__ZN7ndarray22ArrayBase$LT$S$C$D$GT$16broadcast_unwrap17h9d965106d691ddb8E', symObjAddr: 0x9078, symBinAddr: 0x2E611C, symSize: 0xA8 }
  - { offset: 0x25278B, size: 0x8, addend: 0x0, symName: '__ZN7ndarray26impl_internal_constructors110_$LT$impl$u20$ndarray..ArrayBase$LT$S$C$ndarray..dimension..dim..Dim$LT$$u5b$usize$u3b$$u20$1$u5d$$GT$$GT$$GT$13from_data_ptr17h21959bd5b50c645aE', symObjAddr: 0x9120, symBinAddr: 0x2E61C4, symSize: 0x15C }
  - { offset: 0x25281E, size: 0x8, addend: 0x0, symName: '__ZN7ndarray26impl_internal_constructors110_$LT$impl$u20$ndarray..ArrayBase$LT$S$C$ndarray..dimension..dim..Dim$LT$$u5b$usize$u3b$$u20$1$u5d$$GT$$GT$$GT$13from_data_ptr17h434495e0ff3ff64eE', symObjAddr: 0x927C, symBinAddr: 0x2E6320, symSize: 0x15C }
  - { offset: 0x2528B1, size: 0x8, addend: 0x0, symName: '__ZN7ndarray26impl_internal_constructors110_$LT$impl$u20$ndarray..ArrayBase$LT$S$C$ndarray..dimension..dim..Dim$LT$$u5b$usize$u3b$$u20$1$u5d$$GT$$GT$$GT$13from_data_ptr17hc8da0f7dee5d80ffE', symObjAddr: 0x93D8, symBinAddr: 0x2E647C, symSize: 0x198 }
  - { offset: 0x252946, size: 0x8, addend: 0x0, symName: '__ZN7ndarray26impl_internal_constructors110_$LT$impl$u20$ndarray..ArrayBase$LT$S$C$ndarray..dimension..dim..Dim$LT$$u5b$usize$u3b$$u20$1$u5d$$GT$$GT$$GT$13from_data_ptr17he1bde1998759d4a1E', symObjAddr: 0x9570, symBinAddr: 0x2E6614, symSize: 0x198 }
  - { offset: 0x2529DB, size: 0x8, addend: 0x0, symName: '__ZN7ndarray26impl_internal_constructors110_$LT$impl$u20$ndarray..ArrayBase$LT$S$C$ndarray..dimension..dim..Dim$LT$$u5b$usize$u3b$$u20$1$u5d$$GT$$GT$$GT$13from_data_ptr17he2f5303d72c4819fE', symObjAddr: 0x9708, symBinAddr: 0x2E67AC, symSize: 0x15C }
  - { offset: 0x252A6E, size: 0x8, addend: 0x0, symName: '__ZN7ndarray26impl_internal_constructors49_$LT$impl$u20$ndarray..ArrayBase$LT$S$C$D$GT$$GT$16with_strides_dim17h058ca8c1a5405eeaE', symObjAddr: 0x9864, symBinAddr: 0x2E6908, symSize: 0x100 }
  - { offset: 0x252B1C, size: 0x8, addend: 0x0, symName: '__ZN7ndarray26impl_internal_constructors49_$LT$impl$u20$ndarray..ArrayBase$LT$S$C$D$GT$$GT$16with_strides_dim17h0b77ed5f6f24228cE', symObjAddr: 0x9964, symBinAddr: 0x2E6A08, symSize: 0x108 }
  - { offset: 0x252BC8, size: 0x8, addend: 0x0, symName: '__ZN7ndarray26impl_internal_constructors49_$LT$impl$u20$ndarray..ArrayBase$LT$S$C$D$GT$$GT$16with_strides_dim17h46a4ea5b9dac414bE', symObjAddr: 0x9A6C, symBinAddr: 0x2E6B10, symSize: 0x17C }
  - { offset: 0x252C76, size: 0x8, addend: 0x0, symName: '__ZN7ndarray26impl_internal_constructors49_$LT$impl$u20$ndarray..ArrayBase$LT$S$C$D$GT$$GT$16with_strides_dim17h61d3e4d00dff1989E', symObjAddr: 0x9BE8, symBinAddr: 0x2E6C8C, symSize: 0x120 }
  - { offset: 0x252D24, size: 0x8, addend: 0x0, symName: '__ZN7ndarray26impl_internal_constructors49_$LT$impl$u20$ndarray..ArrayBase$LT$S$C$D$GT$$GT$16with_strides_dim17h69abb3a6684ef099E', symObjAddr: 0x9D08, symBinAddr: 0x2E6DAC, symSize: 0x100 }
  - { offset: 0x252DD2, size: 0x8, addend: 0x0, symName: '__ZN7ndarray26impl_internal_constructors49_$LT$impl$u20$ndarray..ArrayBase$LT$S$C$D$GT$$GT$16with_strides_dim17h72a540166c5ac24dE', symObjAddr: 0x9E08, symBinAddr: 0x2E6EAC, symSize: 0x12C }
  - { offset: 0x252E80, size: 0x8, addend: 0x0, symName: '__ZN7ndarray26impl_internal_constructors49_$LT$impl$u20$ndarray..ArrayBase$LT$S$C$D$GT$$GT$16with_strides_dim17h79a404d6f2dddc6fE', symObjAddr: 0x9F34, symBinAddr: 0x2E6FD8, symSize: 0x120 }
  - { offset: 0x252F2E, size: 0x8, addend: 0x0, symName: '__ZN7ndarray26impl_internal_constructors49_$LT$impl$u20$ndarray..ArrayBase$LT$S$C$D$GT$$GT$16with_strides_dim17h855fe7c5530e67f9E', symObjAddr: 0xA054, symBinAddr: 0x2E70F8, symSize: 0x120 }
  - { offset: 0x252FDC, size: 0x8, addend: 0x0, symName: '__ZN7ndarray26impl_internal_constructors49_$LT$impl$u20$ndarray..ArrayBase$LT$S$C$D$GT$$GT$16with_strides_dim17h9076c4861fe63301E', symObjAddr: 0xA174, symBinAddr: 0x2E7218, symSize: 0x108 }
  - { offset: 0x253088, size: 0x8, addend: 0x0, symName: '__ZN7ndarray26impl_internal_constructors49_$LT$impl$u20$ndarray..ArrayBase$LT$S$C$D$GT$$GT$16with_strides_dim17h98f5ca9f6c5a1a4cE', symObjAddr: 0xA27C, symBinAddr: 0x2E7320, symSize: 0x14C }
  - { offset: 0x253136, size: 0x8, addend: 0x0, symName: '__ZN7ndarray26impl_internal_constructors49_$LT$impl$u20$ndarray..ArrayBase$LT$S$C$D$GT$$GT$16with_strides_dim17ha0127ab67401202fE', symObjAddr: 0xA3C8, symBinAddr: 0x2E746C, symSize: 0x120 }
  - { offset: 0x2531E4, size: 0x8, addend: 0x0, symName: '__ZN7ndarray26impl_internal_constructors49_$LT$impl$u20$ndarray..ArrayBase$LT$S$C$D$GT$$GT$16with_strides_dim17ha2c8f504aefcfff7E', symObjAddr: 0xA4E8, symBinAddr: 0x2E758C, symSize: 0x100 }
  - { offset: 0x253292, size: 0x8, addend: 0x0, symName: '__ZN7ndarray26impl_internal_constructors49_$LT$impl$u20$ndarray..ArrayBase$LT$S$C$D$GT$$GT$16with_strides_dim17haab64b6f51cfb6f1E', symObjAddr: 0xA5E8, symBinAddr: 0x2E768C, symSize: 0x120 }
  - { offset: 0x253340, size: 0x8, addend: 0x0, symName: '__ZN7ndarray26impl_internal_constructors49_$LT$impl$u20$ndarray..ArrayBase$LT$S$C$D$GT$$GT$16with_strides_dim17hcfd7bc290faae437E', symObjAddr: 0xA708, symBinAddr: 0x2E77AC, symSize: 0x17C }
  - { offset: 0x2533EE, size: 0x8, addend: 0x0, symName: '__ZN7ndarray26impl_internal_constructors49_$LT$impl$u20$ndarray..ArrayBase$LT$S$C$D$GT$$GT$16with_strides_dim17hee3847d7b36b55bdE', symObjAddr: 0xA884, symBinAddr: 0x2E7928, symSize: 0x14C }
  - { offset: 0x25349C, size: 0x8, addend: 0x0, symName: '__ZN7ndarray26impl_internal_constructors49_$LT$impl$u20$ndarray..ArrayBase$LT$S$C$D$GT$$GT$16with_strides_dim17hfd6d9ea255f1f94fE', symObjAddr: 0xA9D0, symBinAddr: 0x2E7A74, symSize: 0x100 }
  - { offset: 0x25354A, size: 0x8, addend: 0x0, symName: '__ZN7ndarray3zip49_$LT$impl$u20$ndarray..ArrayBase$LT$S$C$D$GT$$GT$11layout_impl17h1e788ad10dc5dce8E', symObjAddr: 0xAAD0, symBinAddr: 0x2E7B74, symSize: 0x30 }
  - { offset: 0x25357E, size: 0x8, addend: 0x0, symName: '__ZN7ndarray3zip49_$LT$impl$u20$ndarray..ArrayBase$LT$S$C$D$GT$$GT$11layout_impl17h508c0442cf213ea0E', symObjAddr: 0xAB00, symBinAddr: 0x2E7BA4, symSize: 0x30 }
  - { offset: 0x2535B2, size: 0x8, addend: 0x0, symName: '__ZN7ndarray3zip49_$LT$impl$u20$ndarray..ArrayBase$LT$S$C$D$GT$$GT$11layout_impl17h66fbb7f232878598E', symObjAddr: 0xAB30, symBinAddr: 0x2E7BD4, symSize: 0x30 }
  - { offset: 0x2535E6, size: 0x8, addend: 0x0, symName: '__ZN7ndarray3zip49_$LT$impl$u20$ndarray..ArrayBase$LT$S$C$D$GT$$GT$11layout_impl17hbbee484c290aabb6E', symObjAddr: 0xAB60, symBinAddr: 0x2E7C04, symSize: 0x30 }
  - { offset: 0x253E04, size: 0x8, addend: 0x0, symName: '__ZN4core3f3221_$LT$impl$u20$f32$GT$7to_bits17hedb08f9522570200E', symObjAddr: 0x0, symBinAddr: 0x2E7DF8, symSize: 0x14 }
  - { offset: 0x253E27, size: 0x8, addend: 0x0, symName: '__ZN4core3f3221_$LT$impl$u20$f32$GT$7to_bits17hedb08f9522570200E', symObjAddr: 0x0, symBinAddr: 0x2E7DF8, symSize: 0x14 }
  - { offset: 0x253E61, size: 0x8, addend: 0x0, symName: '__ZN50_$LT$T$u20$as$u20$core..convert..Into$LT$U$GT$$GT$4into17h234d5d62da62ad9eE', symObjAddr: 0x14, symBinAddr: 0x2E7E0C, symSize: 0x24 }
  - { offset: 0x253EA1, size: 0x8, addend: 0x0, symName: '__ZN50_$LT$T$u20$as$u20$core..convert..Into$LT$U$GT$$GT$4into17h34da61c14fcbabefE', symObjAddr: 0x38, symBinAddr: 0x2E7E30, symSize: 0x28 }
  - { offset: 0x253EE1, size: 0x8, addend: 0x0, symName: '__ZN50_$LT$T$u20$as$u20$core..convert..Into$LT$U$GT$$GT$4into17h3d46be14d791d78bE', symObjAddr: 0x60, symBinAddr: 0x2E7E58, symSize: 0x44 }
  - { offset: 0x254116, size: 0x8, addend: 0x0, symName: '__ZN125_$LT$pyo3..instance..Bound$LT$numpy..array..PyArray$LT$T$C$D$GT$$GT$$u20$as$u20$numpy..array..PyArrayMethods$LT$T$C$D$GT$$GT$8as_array28_$u7b$$u7b$closure$u7d$$u7d$17h7e2d5292cbca4dd0E', symObjAddr: 0x0, symBinAddr: 0x2E7E9C, symSize: 0x54 }
  - { offset: 0x2555EF, size: 0x8, addend: 0x0, symName: '__ZN125_$LT$pyo3..instance..Bound$LT$numpy..array..PyArray$LT$T$C$D$GT$$GT$$u20$as$u20$numpy..array..PyArrayMethods$LT$T$C$D$GT$$GT$8as_array28_$u7b$$u7b$closure$u7d$$u7d$17h7e2d5292cbca4dd0E', symObjAddr: 0x0, symBinAddr: 0x2E7E9C, symSize: 0x54 }
  - { offset: 0x25564A, size: 0x8, addend: 0x0, symName: '__ZN125_$LT$pyo3..instance..Bound$LT$numpy..array..PyArray$LT$T$C$D$GT$$GT$$u20$as$u20$numpy..array..PyArrayMethods$LT$T$C$D$GT$$GT$8as_array28_$u7b$$u7b$closure$u7d$$u7d$17h9d418291f96e4991E', symObjAddr: 0x54, symBinAddr: 0x2E7EF0, symSize: 0x54 }
  - { offset: 0x25594F, size: 0x8, addend: 0x0, symName: __ZN5numpy5array7as_view17h5008b1583c77a66dE, symObjAddr: 0xDD0, symBinAddr: 0x2E8C6C, symSize: 0x2A8 }
  - { offset: 0x255A8E, size: 0x8, addend: 0x0, symName: __ZN5numpy5array7as_view17h6f38af4cb239c67aE, symObjAddr: 0x1078, symBinAddr: 0x2E8F14, symSize: 0x2A8 }
  - { offset: 0x255BD2, size: 0x8, addend: 0x0, symName: __ZN5numpy5array7as_view5inner17h2edca00ec4c94629E, symObjAddr: 0x1320, symBinAddr: 0x2E91BC, symSize: 0x5F8 }
  - { offset: 0x255DA1, size: 0x8, addend: 0x0, symName: __ZN5numpy5array7as_view5inner17h42615732d1c12b2cE, symObjAddr: 0x1918, symBinAddr: 0x2E97B4, symSize: 0x604 }
  - { offset: 0x255F76, size: 0x8, addend: 0x0, symName: '__ZN84_$LT$numpy..array..PyArray$LT$T$C$D$GT$$u20$as$u20$pyo3..type_object..PyTypeInfo$GT$10is_type_of17h9e92721fdbe4277dE', symObjAddr: 0x1F1C, symBinAddr: 0x2E9DB8, symSize: 0x34 }
  - { offset: 0x255FB4, size: 0x8, addend: 0x0, symName: '__ZN84_$LT$numpy..array..PyArray$LT$T$C$D$GT$$u20$as$u20$pyo3..type_object..PyTypeInfo$GT$10is_type_of17hfd0fd269e051ab3bE', symObjAddr: 0x1F50, symBinAddr: 0x2E9DEC, symSize: 0x34 }
  - { offset: 0x25606C, size: 0x8, addend: 0x0, symName: '__ZN52_$LT$T$u20$as$u20$pyo3..type_object..PyTypeCheck$GT$10type_check17h062c5a3cf13dbc93E', symObjAddr: 0xA8, symBinAddr: 0x2E7F44, symSize: 0x24 }
  - { offset: 0x2560A1, size: 0x8, addend: 0x0, symName: '__ZN52_$LT$T$u20$as$u20$pyo3..type_object..PyTypeCheck$GT$10type_check17hf679da2d1eb28a82E', symObjAddr: 0xCC, symBinAddr: 0x2E7F68, symSize: 0x24 }
  - { offset: 0x256CC7, size: 0x8, addend: 0x0, symName: '__ZN5numpy5array20PyArray$LT$T$C$D$GT$13new_with_data17h3bfca690b284b67eE', symObjAddr: 0xF0, symBinAddr: 0x2E7F8C, symSize: 0x144 }
  - { offset: 0x256DC6, size: 0x8, addend: 0x0, symName: '__ZN5numpy5array20PyArray$LT$T$C$D$GT$13new_with_data17hd5418f1ecec95fa7E', symObjAddr: 0x234, symBinAddr: 0x2E80D0, symSize: 0x134 }
  - { offset: 0x256EE3, size: 0x8, addend: 0x0, symName: '__ZN5numpy5array20PyArray$LT$T$C$D$GT$14from_raw_parts17h839e047c49520b68E', symObjAddr: 0x368, symBinAddr: 0x2E8204, symSize: 0x140 }
  - { offset: 0x256F9A, size: 0x8, addend: 0x0, symName: '__ZN5numpy5array20PyArray$LT$T$C$D$GT$14from_raw_parts17h98aada0ac16fb013E', symObjAddr: 0x4A8, symBinAddr: 0x2E8344, symSize: 0x130 }
  - { offset: 0x2570C0, size: 0x8, addend: 0x0, symName: '__ZN5numpy5array20PyArray$LT$T$C$D$GT$16from_owned_array17h8fb4dbaaf5996a13E', symObjAddr: 0x5D8, symBinAddr: 0x2E8474, symSize: 0x1C0 }
  - { offset: 0x2571C7, size: 0x8, addend: 0x0, symName: '__ZN5numpy5array20PyArray$LT$T$C$D$GT$16from_owned_array17hdccd27289197f29dE', symObjAddr: 0x798, symBinAddr: 0x2E8634, symSize: 0x1D8 }
  - { offset: 0x2572AD, size: 0x8, addend: 0x0, symName: '__ZN5numpy5array20PyArray$LT$T$C$D$GT$7extract17ha91686f4438bebabE', symObjAddr: 0x970, symBinAddr: 0x2E880C, symSize: 0x230 }
  - { offset: 0x257361, size: 0x8, addend: 0x0, symName: '__ZN5numpy5array20PyArray$LT$T$C$D$GT$7extract17hfd9658338eeab9b8E', symObjAddr: 0xBA0, symBinAddr: 0x2E8A3C, symSize: 0x230 }
  - { offset: 0x2575AE, size: 0x8, addend: 0x0, symName: __ZN7bincode9byteorder9ByteOrder8read_f3217hd18e39d8d8f9fdecE, symObjAddr: 0x0, symBinAddr: 0x2E9E20, symSize: 0x7C }
  - { offset: 0x2575CA, size: 0x8, addend: 0x0, symName: __ZN7bincode9byteorder9ByteOrder8read_f3217hd18e39d8d8f9fdecE, symObjAddr: 0x0, symBinAddr: 0x2E9E20, symSize: 0x7C }
  - { offset: 0x2575FF, size: 0x8, addend: 0x0, symName: __ZN7bincode9byteorder9ByteOrder8read_f6417h01956c3d27884e47E, symObjAddr: 0x7C, symBinAddr: 0x2E9E9C, symSize: 0x7C }
  - { offset: 0x257634, size: 0x8, addend: 0x0, symName: __ZN7bincode9byteorder9ByteOrder9write_f3217hf46ecd596423dad3E, symObjAddr: 0xF8, symBinAddr: 0x2E9F18, symSize: 0x8C }
  - { offset: 0x257690, size: 0x8, addend: 0x0, symName: __ZN7bincode9byteorder9ByteOrder9write_f6417h70fdb4e804c320acE, symObjAddr: 0x184, symBinAddr: 0x2E9FA4, symSize: 0x8C }
  - { offset: 0x257784, size: 0x8, addend: 0x0, symName: __ZN10rayon_core6unwind14halt_unwinding17h109fd1b2791e961fE, symObjAddr: 0x0, symBinAddr: 0x2EA030, symSize: 0x40 }
  - { offset: 0x25779B, size: 0x8, addend: 0x0, symName: __ZN10rayon_core6unwind14halt_unwinding17h109fd1b2791e961fE, symObjAddr: 0x0, symBinAddr: 0x2EA030, symSize: 0x40 }
  - { offset: 0x2577DA, size: 0x8, addend: 0x0, symName: __ZN10rayon_core6unwind14halt_unwinding17h18f62c8545aabc79E, symObjAddr: 0x40, symBinAddr: 0x2EA070, symSize: 0x40 }
  - { offset: 0x257819, size: 0x8, addend: 0x0, symName: __ZN10rayon_core6unwind14halt_unwinding17h32a307cf058a87bdE, symObjAddr: 0x80, symBinAddr: 0x2EA0B0, symSize: 0x40 }
  - { offset: 0x257858, size: 0x8, addend: 0x0, symName: __ZN10rayon_core6unwind14halt_unwinding17h451929c83eaa0511E, symObjAddr: 0xC0, symBinAddr: 0x2EA0F0, symSize: 0x40 }
  - { offset: 0x257897, size: 0x8, addend: 0x0, symName: __ZN10rayon_core6unwind14halt_unwinding17h4cbe15a57f6f6311E, symObjAddr: 0x100, symBinAddr: 0x2EA130, symSize: 0x40 }
  - { offset: 0x2578D6, size: 0x8, addend: 0x0, symName: __ZN10rayon_core6unwind14halt_unwinding17h56095da6344c1dbfE, symObjAddr: 0x140, symBinAddr: 0x2EA170, symSize: 0x40 }
  - { offset: 0x257915, size: 0x8, addend: 0x0, symName: __ZN10rayon_core6unwind14halt_unwinding17h75a695d12070a165E, symObjAddr: 0x180, symBinAddr: 0x2EA1B0, symSize: 0x40 }
  - { offset: 0x257954, size: 0x8, addend: 0x0, symName: __ZN10rayon_core6unwind14halt_unwinding17h763066af5fabf558E, symObjAddr: 0x1C0, symBinAddr: 0x2EA1F0, symSize: 0x40 }
  - { offset: 0x257993, size: 0x8, addend: 0x0, symName: __ZN10rayon_core6unwind14halt_unwinding17h765ecda54f70d2d4E, symObjAddr: 0x200, symBinAddr: 0x2EA230, symSize: 0x40 }
  - { offset: 0x2579D2, size: 0x8, addend: 0x0, symName: __ZN10rayon_core6unwind14halt_unwinding17h890e7d006361a194E, symObjAddr: 0x240, symBinAddr: 0x2EA270, symSize: 0x40 }
  - { offset: 0x257A11, size: 0x8, addend: 0x0, symName: __ZN10rayon_core6unwind14halt_unwinding17hb0856eb6955ae1e4E, symObjAddr: 0x280, symBinAddr: 0x2EA2B0, symSize: 0x40 }
  - { offset: 0x257A50, size: 0x8, addend: 0x0, symName: __ZN10rayon_core6unwind14halt_unwinding17hc887b85e099278a3E, symObjAddr: 0x2C0, symBinAddr: 0x2EA2F0, symSize: 0x40 }
  - { offset: 0x257A8F, size: 0x8, addend: 0x0, symName: __ZN10rayon_core6unwind14halt_unwinding17hcd5eafbed17256f1E, symObjAddr: 0x300, symBinAddr: 0x2EA330, symSize: 0x40 }
  - { offset: 0x257ACE, size: 0x8, addend: 0x0, symName: __ZN10rayon_core6unwind14halt_unwinding17hd28abbf5247f852dE, symObjAddr: 0x340, symBinAddr: 0x2EA370, symSize: 0x40 }
  - { offset: 0x257B0D, size: 0x8, addend: 0x0, symName: __ZN10rayon_core6unwind14halt_unwinding17hecce162ff8371cadE, symObjAddr: 0x380, symBinAddr: 0x2EA3B0, symSize: 0x40 }
  - { offset: 0x257B4C, size: 0x8, addend: 0x0, symName: __ZN10rayon_core6unwind14halt_unwinding17hff993eda037bffccE, symObjAddr: 0x3C0, symBinAddr: 0x2EA3F0, symSize: 0x40 }
  - { offset: 0x2592D2, size: 0x8, addend: 0x0, symName: '__ZN4core3fmt3num49_$LT$impl$u20$core..fmt..Debug$u20$for$u20$u8$GT$3fmt17hcf00976f4b566f19E', symObjAddr: 0x0, symBinAddr: 0x2EA430, symSize: 0x90 }
  - { offset: 0x25936D, size: 0x8, addend: 0x0, symName: '__ZN4core3fmt3num49_$LT$impl$u20$core..fmt..Debug$u20$for$u20$u8$GT$3fmt17hcf00976f4b566f19E', symObjAddr: 0x0, symBinAddr: 0x2EA430, symSize: 0x90 }
  - { offset: 0x2593E7, size: 0x8, addend: 0x0, symName: '__ZN4core3fmt3num50_$LT$impl$u20$core..fmt..Debug$u20$for$u20$u16$GT$3fmt17h961fe4149783922fE', symObjAddr: 0x90, symBinAddr: 0x2EA4C0, symSize: 0x90 }
  - { offset: 0x259461, size: 0x8, addend: 0x0, symName: '__ZN4core3fmt3num52_$LT$impl$u20$core..fmt..Debug$u20$for$u20$usize$GT$3fmt17h8f22ed5bb557d125E', symObjAddr: 0x120, symBinAddr: 0x2EA550, symSize: 0x90 }
  - { offset: 0x2596B1, size: 0x8, addend: 0x0, symName: __ZN4core3mem10needs_drop17h14781e9220ef3d52E, symObjAddr: 0x0, symBinAddr: 0x2EA5E0, symSize: 0xC }
  - { offset: 0x2596C8, size: 0x8, addend: 0x0, symName: __ZN4core3mem10needs_drop17h14781e9220ef3d52E, symObjAddr: 0x0, symBinAddr: 0x2EA5E0, symSize: 0xC }
  - { offset: 0x259780, size: 0x8, addend: 0x0, symName: __ZN4core3mem11conjure_zst17hf653c9896be5f7f7E, symObjAddr: 0xC, symBinAddr: 0x2EA5EC, symSize: 0x3C }
  - { offset: 0x25981A, size: 0x8, addend: 0x0, symName: __ZN4core3mem4swap17h2d02ef3c4b22a957E, symObjAddr: 0x48, symBinAddr: 0x2EA628, symSize: 0x2C }
  - { offset: 0x25985C, size: 0x8, addend: 0x0, symName: __ZN4core3mem4swap17hca3b65a5484c7e2eE, symObjAddr: 0x74, symBinAddr: 0x2EA654, symSize: 0x34 }
  - { offset: 0x25989E, size: 0x8, addend: 0x0, symName: __ZN4core3mem4swap17hed734aee521113dfE, symObjAddr: 0xA8, symBinAddr: 0x2EA688, symSize: 0x2C }
  - { offset: 0x259C18, size: 0x8, addend: 0x0, symName: '__ZN112_$LT$num_complex..Complex$LT$T$GT$$u20$as$u20$core..ops..arith..Mul$LT$$RF$num_complex..Complex$LT$T$GT$$GT$$GT$3mul17ha77cdf0cd1338d74E', symObjAddr: 0x0, symBinAddr: 0x2EA6B4, symSize: 0xA4 }
  - { offset: 0x259C2F, size: 0x8, addend: 0x0, symName: '__ZN112_$LT$num_complex..Complex$LT$T$GT$$u20$as$u20$core..ops..arith..Mul$LT$$RF$num_complex..Complex$LT$T$GT$$GT$$GT$3mul17ha77cdf0cd1338d74E', symObjAddr: 0x0, symBinAddr: 0x2EA6B4, symSize: 0xA4 }
  - { offset: 0x259D74, size: 0x8, addend: 0x0, symName: '__ZN68_$LT$num_complex..Complex$LT$T$GT$$u20$as$u20$core..clone..Clone$GT$5clone17he52692b558966aa9E', symObjAddr: 0x35CC, symBinAddr: 0x2EDC80, symSize: 0x40 }
  - { offset: 0x259DE9, size: 0x8, addend: 0x0, symName: '__ZN71_$LT$num_complex..Complex$LT$T$GT$$u20$as$u20$core..ops..arith..Add$GT$3add17h72144e77a8e5580bE', symObjAddr: 0x360C, symBinAddr: 0x2EDCC0, symSize: 0x108 }
  - { offset: 0x259E35, size: 0x8, addend: 0x0, symName: '__ZN71_$LT$num_complex..Complex$LT$T$GT$$u20$as$u20$core..ops..arith..Mul$GT$3mul17hfe36d3f4e02f5116E', symObjAddr: 0x3714, symBinAddr: 0x2EDDC8, symSize: 0x2D4 }
  - { offset: 0x259F2F, size: 0x8, addend: 0x0, symName: '__ZN71_$LT$num_complex..Complex$LT$T$GT$$u20$as$u20$core..ops..arith..Neg$GT$3neg17hd1f604b03c804e28E', symObjAddr: 0x39E8, symBinAddr: 0x2EE09C, symSize: 0xCC }
  - { offset: 0x259F6C, size: 0x8, addend: 0x0, symName: '__ZN71_$LT$num_complex..Complex$LT$T$GT$$u20$as$u20$core..ops..arith..Sub$GT$3sub17hf5fbdcdf6fdccdffE', symObjAddr: 0x3AB4, symBinAddr: 0x2EE168, symSize: 0x108 }
  - { offset: 0x259FB8, size: 0x8, addend: 0x0, symName: '__ZN75_$LT$$RF$num_complex..Complex$LT$T$GT$$u20$as$u20$core..ops..arith..Mul$GT$3mul17hea9393555378730dE', symObjAddr: 0x3BBC, symBinAddr: 0x2EE270, symSize: 0xAC }
  - { offset: 0x25A004, size: 0x8, addend: 0x0, symName: '__ZN78_$LT$num_complex..Complex$LT$T$GT$$u20$as$u20$core..convert..From$LT$T$GT$$GT$4from17he75511726d1c07ffE', symObjAddr: 0x3C68, symBinAddr: 0x2EE31C, symSize: 0x88 }
  - { offset: 0x25A041, size: 0x8, addend: 0x0, symName: '__ZN78_$LT$num_complex..Complex$LT$T$GT$$u20$as$u20$num_traits..identities..Zero$GT$4zero17h1829295ecdb23066E', symObjAddr: 0x3CF0, symBinAddr: 0x2EE3A4, symSize: 0x88 }
  - { offset: 0x25A069, size: 0x8, addend: 0x0, symName: '__ZN78_$LT$num_complex..Complex$LT$T$GT$$u20$as$u20$num_traits..identities..Zero$GT$4zero17ha83349d27de8c21cE', symObjAddr: 0x3D78, symBinAddr: 0x2EE42C, symSize: 0x88 }
  - { offset: 0x25A097, size: 0x8, addend: 0x0, symName: '__ZN80_$LT$num_complex..Complex$LT$T$GT$$u20$as$u20$core..ops..arith..Mul$LT$T$GT$$GT$3mul17hde30293fbebb8246E', symObjAddr: 0x3E00, symBinAddr: 0x2EE4B4, symSize: 0x140 }
  - { offset: 0x25A104, size: 0x8, addend: 0x0, symName: '__ZN11num_complex16Complex$LT$T$GT$10from_polar17h8f3ae53c9facd888E', symObjAddr: 0xA4, symBinAddr: 0x2EA758, symSize: 0x78 }
  - { offset: 0x25A144, size: 0x8, addend: 0x0, symName: '__ZN11num_complex16Complex$LT$T$GT$3new17h00d86a50a5280ed6E', symObjAddr: 0x11C, symBinAddr: 0x2EA7D0, symSize: 0x14 }
  - { offset: 0x25A17D, size: 0x8, addend: 0x0, symName: '__ZN11num_complex16Complex$LT$T$GT$3new17he38a6720da3fbf94E', symObjAddr: 0x130, symBinAddr: 0x2EA7E4, symSize: 0x14 }
  - { offset: 0x25A219, size: 0x8, addend: 0x0, symName: '__ZN4core5array40_$LT$impl$u20$$u5b$T$u3b$$u20$N$u5d$$GT$3map17h2062e9c87916d72eE', symObjAddr: 0x2A4, symBinAddr: 0x2EA958, symSize: 0x3C }
  - { offset: 0x25A272, size: 0x8, addend: 0x0, symName: '__ZN4core5array40_$LT$impl$u20$$u5b$T$u3b$$u20$N$u5d$$GT$3map17h218dfec9fa37dd42E', symObjAddr: 0x2E0, symBinAddr: 0x2EA994, symSize: 0x3C }
  - { offset: 0x25A2CB, size: 0x8, addend: 0x0, symName: '__ZN4core5array40_$LT$impl$u20$$u5b$T$u3b$$u20$N$u5d$$GT$3map17h26db04861f473db7E', symObjAddr: 0x31C, symBinAddr: 0x2EA9D0, symSize: 0x3C }
  - { offset: 0x25A324, size: 0x8, addend: 0x0, symName: '__ZN4core5array40_$LT$impl$u20$$u5b$T$u3b$$u20$N$u5d$$GT$3map17h2738637e475bc024E', symObjAddr: 0x358, symBinAddr: 0x2EAA0C, symSize: 0x3C }
  - { offset: 0x25A37D, size: 0x8, addend: 0x0, symName: '__ZN4core5array40_$LT$impl$u20$$u5b$T$u3b$$u20$N$u5d$$GT$3map17h2b465a7608c5c90dE', symObjAddr: 0x394, symBinAddr: 0x2EAA48, symSize: 0x3C }
  - { offset: 0x25A3D6, size: 0x8, addend: 0x0, symName: '__ZN4core5array40_$LT$impl$u20$$u5b$T$u3b$$u20$N$u5d$$GT$3map17h2e2a183f41898057E', symObjAddr: 0x3D0, symBinAddr: 0x2EAA84, symSize: 0x3C }
  - { offset: 0x25A42F, size: 0x8, addend: 0x0, symName: '__ZN4core5array40_$LT$impl$u20$$u5b$T$u3b$$u20$N$u5d$$GT$3map17h3395acc226db7f45E', symObjAddr: 0x40C, symBinAddr: 0x2EAAC0, symSize: 0x3C }
  - { offset: 0x25A488, size: 0x8, addend: 0x0, symName: '__ZN4core5array40_$LT$impl$u20$$u5b$T$u3b$$u20$N$u5d$$GT$3map17h3899594cb3c557adE', symObjAddr: 0x448, symBinAddr: 0x2EAAFC, symSize: 0x3C }
  - { offset: 0x25A4E1, size: 0x8, addend: 0x0, symName: '__ZN4core5array40_$LT$impl$u20$$u5b$T$u3b$$u20$N$u5d$$GT$3map17h3f7f721aff1010c9E', symObjAddr: 0x484, symBinAddr: 0x2EAB38, symSize: 0x3C }
  - { offset: 0x25A53A, size: 0x8, addend: 0x0, symName: '__ZN4core5array40_$LT$impl$u20$$u5b$T$u3b$$u20$N$u5d$$GT$3map17h47337717d77ea4f0E', symObjAddr: 0x4C0, symBinAddr: 0x2EAB74, symSize: 0x44 }
  - { offset: 0x25A593, size: 0x8, addend: 0x0, symName: '__ZN4core5array40_$LT$impl$u20$$u5b$T$u3b$$u20$N$u5d$$GT$3map17h49c4d59af6027869E', symObjAddr: 0x504, symBinAddr: 0x2EABB8, symSize: 0x3C }
  - { offset: 0x25A5EC, size: 0x8, addend: 0x0, symName: '__ZN4core5array40_$LT$impl$u20$$u5b$T$u3b$$u20$N$u5d$$GT$3map17h5834c619250044caE', symObjAddr: 0x540, symBinAddr: 0x2EABF4, symSize: 0x44 }
  - { offset: 0x25A645, size: 0x8, addend: 0x0, symName: '__ZN4core5array40_$LT$impl$u20$$u5b$T$u3b$$u20$N$u5d$$GT$3map17h736ea9d6a044e4adE', symObjAddr: 0x584, symBinAddr: 0x2EAC38, symSize: 0x3C }
  - { offset: 0x25A69E, size: 0x8, addend: 0x0, symName: '__ZN4core5array40_$LT$impl$u20$$u5b$T$u3b$$u20$N$u5d$$GT$3map17h7b813d9def264db1E', symObjAddr: 0x5C0, symBinAddr: 0x2EAC74, symSize: 0x3C }
  - { offset: 0x25A6F7, size: 0x8, addend: 0x0, symName: '__ZN4core5array40_$LT$impl$u20$$u5b$T$u3b$$u20$N$u5d$$GT$3map17h86bf49098e0bbfb4E', symObjAddr: 0x5FC, symBinAddr: 0x2EACB0, symSize: 0x3C }
  - { offset: 0x25A750, size: 0x8, addend: 0x0, symName: '__ZN4core5array40_$LT$impl$u20$$u5b$T$u3b$$u20$N$u5d$$GT$3map17h8b905f754fc2a05bE', symObjAddr: 0x638, symBinAddr: 0x2EACEC, symSize: 0x44 }
  - { offset: 0x25A7A9, size: 0x8, addend: 0x0, symName: '__ZN4core5array40_$LT$impl$u20$$u5b$T$u3b$$u20$N$u5d$$GT$3map17h9e4b1083fa72ca8dE', symObjAddr: 0x67C, symBinAddr: 0x2EAD30, symSize: 0x3C }
  - { offset: 0x25A802, size: 0x8, addend: 0x0, symName: '__ZN4core5array40_$LT$impl$u20$$u5b$T$u3b$$u20$N$u5d$$GT$3map17hab658a15a6ef4d98E', symObjAddr: 0x6B8, symBinAddr: 0x2EAD6C, symSize: 0x3C }
  - { offset: 0x25A85B, size: 0x8, addend: 0x0, symName: '__ZN4core5array40_$LT$impl$u20$$u5b$T$u3b$$u20$N$u5d$$GT$3map17habc61220907844c3E', symObjAddr: 0x6F4, symBinAddr: 0x2EADA8, symSize: 0x44 }
  - { offset: 0x25A8B4, size: 0x8, addend: 0x0, symName: '__ZN4core5array40_$LT$impl$u20$$u5b$T$u3b$$u20$N$u5d$$GT$3map17haf7b250c4c4dafafE', symObjAddr: 0x738, symBinAddr: 0x2EADEC, symSize: 0x3C }
  - { offset: 0x25A90D, size: 0x8, addend: 0x0, symName: '__ZN4core5array40_$LT$impl$u20$$u5b$T$u3b$$u20$N$u5d$$GT$3map17hb031d9c6e5190248E', symObjAddr: 0x774, symBinAddr: 0x2EAE28, symSize: 0x44 }
  - { offset: 0x25A966, size: 0x8, addend: 0x0, symName: '__ZN4core5array40_$LT$impl$u20$$u5b$T$u3b$$u20$N$u5d$$GT$3map17hbef8b98f42b279c9E', symObjAddr: 0x7B8, symBinAddr: 0x2EAE6C, symSize: 0x44 }
  - { offset: 0x25A9BF, size: 0x8, addend: 0x0, symName: '__ZN4core5array40_$LT$impl$u20$$u5b$T$u3b$$u20$N$u5d$$GT$3map17hc010b7f055aa1464E', symObjAddr: 0x7FC, symBinAddr: 0x2EAEB0, symSize: 0x3C }
  - { offset: 0x25AA18, size: 0x8, addend: 0x0, symName: '__ZN4core5array40_$LT$impl$u20$$u5b$T$u3b$$u20$N$u5d$$GT$3map17hd59a3fbe14e78a8eE', symObjAddr: 0x838, symBinAddr: 0x2EAEEC, symSize: 0x44 }
  - { offset: 0x25AA71, size: 0x8, addend: 0x0, symName: '__ZN4core5array40_$LT$impl$u20$$u5b$T$u3b$$u20$N$u5d$$GT$3map17hd9004a503ad50d23E', symObjAddr: 0x87C, symBinAddr: 0x2EAF30, symSize: 0x3C }
  - { offset: 0x25AACA, size: 0x8, addend: 0x0, symName: '__ZN4core5array40_$LT$impl$u20$$u5b$T$u3b$$u20$N$u5d$$GT$3map17hde5a585ee6e86e36E', symObjAddr: 0x8B8, symBinAddr: 0x2EAF6C, symSize: 0x3C }
  - { offset: 0x25AB23, size: 0x8, addend: 0x0, symName: '__ZN4core5array40_$LT$impl$u20$$u5b$T$u3b$$u20$N$u5d$$GT$3map17heb9b156f521d5de0E', symObjAddr: 0x8F4, symBinAddr: 0x2EAFA8, symSize: 0x44 }
  - { offset: 0x25AB7C, size: 0x8, addend: 0x0, symName: '__ZN4core5array40_$LT$impl$u20$$u5b$T$u3b$$u20$N$u5d$$GT$3map17hed2948d26216371cE', symObjAddr: 0x938, symBinAddr: 0x2EAFEC, symSize: 0x3C }
  - { offset: 0x25ABD5, size: 0x8, addend: 0x0, symName: '__ZN4core5array40_$LT$impl$u20$$u5b$T$u3b$$u20$N$u5d$$GT$3map17hef7996c409969f03E', symObjAddr: 0x974, symBinAddr: 0x2EB028, symSize: 0x3C }
  - { offset: 0x25AC2E, size: 0x8, addend: 0x0, symName: '__ZN4core5array40_$LT$impl$u20$$u5b$T$u3b$$u20$N$u5d$$GT$3map17hf80172b951a6230aE', symObjAddr: 0x9B0, symBinAddr: 0x2EB064, symSize: 0x3C }
  - { offset: 0x25AC87, size: 0x8, addend: 0x0, symName: '__ZN4core5array40_$LT$impl$u20$$u5b$T$u3b$$u20$N$u5d$$GT$3map17hfb03f70d261350d2E', symObjAddr: 0x9EC, symBinAddr: 0x2EB0A0, symSize: 0x3C }
  - { offset: 0x25ACE0, size: 0x8, addend: 0x0, symName: '__ZN4core5array40_$LT$impl$u20$$u5b$T$u3b$$u20$N$u5d$$GT$3map17hfd22028f33373099E', symObjAddr: 0xA28, symBinAddr: 0x2EB0DC, symSize: 0x3C }
  - { offset: 0x25AD39, size: 0x8, addend: 0x0, symName: '__ZN4core5array40_$LT$impl$u20$$u5b$T$u3b$$u20$N$u5d$$GT$7try_map17h002ef8b3a9ae6512E', symObjAddr: 0xA64, symBinAddr: 0x2EB118, symSize: 0x104 }
  - { offset: 0x25AEA6, size: 0x8, addend: 0x0, symName: '__ZN4core5array40_$LT$impl$u20$$u5b$T$u3b$$u20$N$u5d$$GT$7try_map17h0ee3193df190bab6E', symObjAddr: 0xB68, symBinAddr: 0x2EB21C, symSize: 0x104 }
  - { offset: 0x25B013, size: 0x8, addend: 0x0, symName: '__ZN4core5array40_$LT$impl$u20$$u5b$T$u3b$$u20$N$u5d$$GT$7try_map17h1065a184b72fded0E', symObjAddr: 0xC6C, symBinAddr: 0x2EB320, symSize: 0x104 }
  - { offset: 0x25B180, size: 0x8, addend: 0x0, symName: '__ZN4core5array40_$LT$impl$u20$$u5b$T$u3b$$u20$N$u5d$$GT$7try_map17h146d8dcdd23c3501E', symObjAddr: 0xD70, symBinAddr: 0x2EB424, symSize: 0xF8 }
  - { offset: 0x25B2EB, size: 0x8, addend: 0x0, symName: '__ZN4core5array40_$LT$impl$u20$$u5b$T$u3b$$u20$N$u5d$$GT$7try_map17h1b02c8dcf78f94ebE', symObjAddr: 0xE68, symBinAddr: 0x2EB51C, symSize: 0x104 }
  - { offset: 0x25B458, size: 0x8, addend: 0x0, symName: '__ZN4core5array40_$LT$impl$u20$$u5b$T$u3b$$u20$N$u5d$$GT$7try_map17h1eaf1dafd6aa81ebE', symObjAddr: 0xF6C, symBinAddr: 0x2EB620, symSize: 0xDC }
  - { offset: 0x25B5C3, size: 0x8, addend: 0x0, symName: '__ZN4core5array40_$LT$impl$u20$$u5b$T$u3b$$u20$N$u5d$$GT$7try_map17h1f1ee1a2854cfaf9E', symObjAddr: 0x1048, symBinAddr: 0x2EB6FC, symSize: 0x104 }
  - { offset: 0x25B730, size: 0x8, addend: 0x0, symName: '__ZN4core5array40_$LT$impl$u20$$u5b$T$u3b$$u20$N$u5d$$GT$7try_map17h20aba14604b115b9E', symObjAddr: 0x114C, symBinAddr: 0x2EB800, symSize: 0xEC }
  - { offset: 0x25B89B, size: 0x8, addend: 0x0, symName: '__ZN4core5array40_$LT$impl$u20$$u5b$T$u3b$$u20$N$u5d$$GT$7try_map17h2a838c4215a0b8deE', symObjAddr: 0x1238, symBinAddr: 0x2EB8EC, symSize: 0xF8 }
  - { offset: 0x25BA06, size: 0x8, addend: 0x0, symName: '__ZN4core5array40_$LT$impl$u20$$u5b$T$u3b$$u20$N$u5d$$GT$7try_map17h2eddc22cf3b27171E', symObjAddr: 0x1330, symBinAddr: 0x2EB9E4, symSize: 0x104 }
  - { offset: 0x25BB73, size: 0x8, addend: 0x0, symName: '__ZN4core5array40_$LT$impl$u20$$u5b$T$u3b$$u20$N$u5d$$GT$7try_map17h31e7fe77a4a648c6E', symObjAddr: 0x1434, symBinAddr: 0x2EBAE8, symSize: 0x104 }
  - { offset: 0x25BCE0, size: 0x8, addend: 0x0, symName: '__ZN4core5array40_$LT$impl$u20$$u5b$T$u3b$$u20$N$u5d$$GT$7try_map17h3d44ee73583d7291E', symObjAddr: 0x1538, symBinAddr: 0x2EBBEC, symSize: 0x104 }
  - { offset: 0x25BE4D, size: 0x8, addend: 0x0, symName: '__ZN4core5array40_$LT$impl$u20$$u5b$T$u3b$$u20$N$u5d$$GT$7try_map17h602409ec7a0b5d0cE', symObjAddr: 0x163C, symBinAddr: 0x2EBCF0, symSize: 0xF8 }
  - { offset: 0x25BFB8, size: 0x8, addend: 0x0, symName: '__ZN4core5array40_$LT$impl$u20$$u5b$T$u3b$$u20$N$u5d$$GT$7try_map17h65df63e174841333E', symObjAddr: 0x1734, symBinAddr: 0x2EBDE8, symSize: 0xF8 }
  - { offset: 0x25C123, size: 0x8, addend: 0x0, symName: '__ZN4core5array40_$LT$impl$u20$$u5b$T$u3b$$u20$N$u5d$$GT$7try_map17h6645247f3d9cd1faE', symObjAddr: 0x182C, symBinAddr: 0x2EBEE0, symSize: 0x104 }
  - { offset: 0x25C290, size: 0x8, addend: 0x0, symName: '__ZN4core5array40_$LT$impl$u20$$u5b$T$u3b$$u20$N$u5d$$GT$7try_map17h7e038d8d8a49e86fE', symObjAddr: 0x1930, symBinAddr: 0x2EBFE4, symSize: 0xF8 }
  - { offset: 0x25C3FB, size: 0x8, addend: 0x0, symName: '__ZN4core5array40_$LT$impl$u20$$u5b$T$u3b$$u20$N$u5d$$GT$7try_map17h7ebc10f7c8eb780fE', symObjAddr: 0x1A28, symBinAddr: 0x2EC0DC, symSize: 0x104 }
  - { offset: 0x25C568, size: 0x8, addend: 0x0, symName: '__ZN4core5array40_$LT$impl$u20$$u5b$T$u3b$$u20$N$u5d$$GT$7try_map17h83e07fa5d5057afaE', symObjAddr: 0x1B2C, symBinAddr: 0x2EC1E0, symSize: 0x104 }
  - { offset: 0x25C6D5, size: 0x8, addend: 0x0, symName: '__ZN4core5array40_$LT$impl$u20$$u5b$T$u3b$$u20$N$u5d$$GT$7try_map17h8d8135c8098e71a4E', symObjAddr: 0x1C30, symBinAddr: 0x2EC2E4, symSize: 0xDC }
  - { offset: 0x25C840, size: 0x8, addend: 0x0, symName: '__ZN4core5array40_$LT$impl$u20$$u5b$T$u3b$$u20$N$u5d$$GT$7try_map17h9c3bfc3d30aab0e5E', symObjAddr: 0x1D0C, symBinAddr: 0x2EC3C0, symSize: 0xD4 }
  - { offset: 0x25C9AA, size: 0x8, addend: 0x0, symName: '__ZN4core5array40_$LT$impl$u20$$u5b$T$u3b$$u20$N$u5d$$GT$7try_map17ha48c7346f598c0d5E', symObjAddr: 0x1DE0, symBinAddr: 0x2EC494, symSize: 0xD4 }
  - { offset: 0x25CB14, size: 0x8, addend: 0x0, symName: '__ZN4core5array40_$LT$impl$u20$$u5b$T$u3b$$u20$N$u5d$$GT$7try_map17ha8124643a20f128fE', symObjAddr: 0x1EB4, symBinAddr: 0x2EC568, symSize: 0xF8 }
  - { offset: 0x25CC7F, size: 0x8, addend: 0x0, symName: '__ZN4core5array40_$LT$impl$u20$$u5b$T$u3b$$u20$N$u5d$$GT$7try_map17hb0607f9a6c6b8435E', symObjAddr: 0x1FAC, symBinAddr: 0x2EC660, symSize: 0xEC }
  - { offset: 0x25CDEA, size: 0x8, addend: 0x0, symName: '__ZN4core5array40_$LT$impl$u20$$u5b$T$u3b$$u20$N$u5d$$GT$7try_map17hb83b57cbd1d69afdE', symObjAddr: 0x2098, symBinAddr: 0x2EC74C, symSize: 0x104 }
  - { offset: 0x25CF57, size: 0x8, addend: 0x0, symName: '__ZN4core5array40_$LT$impl$u20$$u5b$T$u3b$$u20$N$u5d$$GT$7try_map17hbfc9330ce1dcde2aE', symObjAddr: 0x219C, symBinAddr: 0x2EC850, symSize: 0xF8 }
  - { offset: 0x25D0C2, size: 0x8, addend: 0x0, symName: '__ZN4core5array40_$LT$impl$u20$$u5b$T$u3b$$u20$N$u5d$$GT$7try_map17hc1c94e5aeb3fab68E', symObjAddr: 0x2294, symBinAddr: 0x2EC948, symSize: 0xEC }
  - { offset: 0x25D22D, size: 0x8, addend: 0x0, symName: '__ZN4core5array40_$LT$impl$u20$$u5b$T$u3b$$u20$N$u5d$$GT$7try_map17hc6b9cbe2f0e2a709E', symObjAddr: 0x2380, symBinAddr: 0x2ECA34, symSize: 0xEC }
  - { offset: 0x25D398, size: 0x8, addend: 0x0, symName: '__ZN4core5array40_$LT$impl$u20$$u5b$T$u3b$$u20$N$u5d$$GT$7try_map17hcb93ba17ae081c27E', symObjAddr: 0x246C, symBinAddr: 0x2ECB20, symSize: 0xF4 }
  - { offset: 0x25D503, size: 0x8, addend: 0x0, symName: '__ZN4core5array40_$LT$impl$u20$$u5b$T$u3b$$u20$N$u5d$$GT$7try_map17hd04046a10a87c147E', symObjAddr: 0x2560, symBinAddr: 0x2ECC14, symSize: 0x104 }
  - { offset: 0x25D670, size: 0x8, addend: 0x0, symName: '__ZN4core5array40_$LT$impl$u20$$u5b$T$u3b$$u20$N$u5d$$GT$7try_map17hd4514aa3829db7fcE', symObjAddr: 0x2664, symBinAddr: 0x2ECD18, symSize: 0x104 }
  - { offset: 0x25D7DD, size: 0x8, addend: 0x0, symName: '__ZN4core5array40_$LT$impl$u20$$u5b$T$u3b$$u20$N$u5d$$GT$7try_map17hda1b4d6946418eeaE', symObjAddr: 0x2768, symBinAddr: 0x2ECE1C, symSize: 0xF8 }
  - { offset: 0x25D948, size: 0x8, addend: 0x0, symName: '__ZN4core5array40_$LT$impl$u20$$u5b$T$u3b$$u20$N$u5d$$GT$7try_map17he44e870ee7788e63E', symObjAddr: 0x2860, symBinAddr: 0x2ECF14, symSize: 0xF4 }
  - { offset: 0x25DAB3, size: 0x8, addend: 0x0, symName: '__ZN4core5array40_$LT$impl$u20$$u5b$T$u3b$$u20$N$u5d$$GT$8as_slice17h06f771d0768e7150E', symObjAddr: 0x2954, symBinAddr: 0x2ED008, symSize: 0x1C }
  - { offset: 0x25DAEA, size: 0x8, addend: 0x0, symName: '__ZN4core5array40_$LT$impl$u20$$u5b$T$u3b$$u20$N$u5d$$GT$8as_slice17h918b4d538300dbe1E', symObjAddr: 0x2970, symBinAddr: 0x2ED024, symSize: 0x1C }
  - { offset: 0x260B67, size: 0x8, addend: 0x0, symName: '__ZN4core5slice29_$LT$impl$u20$$u5b$T$u5d$$GT$11split_first17h12748fc50acf132dE', symObjAddr: 0x298C, symBinAddr: 0x2ED040, symSize: 0x80 }
  - { offset: 0x260BC2, size: 0x8, addend: 0x0, symName: '__ZN4core5slice29_$LT$impl$u20$$u5b$T$u5d$$GT$12chunks_exact17h8adb2f4d4a5add41E', symObjAddr: 0x2A0C, symBinAddr: 0x2ED0C0, symSize: 0xF0 }
  - { offset: 0x260CB3, size: 0x8, addend: 0x0, symName: '__ZN4core5slice29_$LT$impl$u20$$u5b$T$u5d$$GT$12split_at_mut17hb139b1fa976a94e3E', symObjAddr: 0x2AFC, symBinAddr: 0x2ED1B0, symSize: 0xAC }
  - { offset: 0x260D4A, size: 0x8, addend: 0x0, symName: '__ZN4core5slice29_$LT$impl$u20$$u5b$T$u5d$$GT$12split_at_mut17hf17fcfdc79a90a27E', symObjAddr: 0x2BA8, symBinAddr: 0x2ED25C, symSize: 0xAC }
  - { offset: 0x260DAE, size: 0x8, addend: 0x0, symName: '__ZN4core5slice29_$LT$impl$u20$$u5b$T$u5d$$GT$13get_unchecked17ha90742923e74249fE', symObjAddr: 0x2C54, symBinAddr: 0x2ED308, symSize: 0x44 }
  - { offset: 0x260DFD, size: 0x8, addend: 0x0, symName: '__ZN4core5slice29_$LT$impl$u20$$u5b$T$u5d$$GT$15copy_from_slice17h832f43f23513805dE', symObjAddr: 0x2C98, symBinAddr: 0x2ED34C, symSize: 0x34 }
  - { offset: 0x260E3F, size: 0x8, addend: 0x0, symName: '__ZN4core5slice29_$LT$impl$u20$$u5b$T$u5d$$GT$15split_first_mut17h3b778056ea820d39E', symObjAddr: 0x2CCC, symBinAddr: 0x2ED380, symSize: 0x80 }
  - { offset: 0x260E9A, size: 0x8, addend: 0x0, symName: '__ZN4core5slice29_$LT$impl$u20$$u5b$T$u5d$$GT$16chunks_exact_mut17h0177c9393d2184c0E', symObjAddr: 0x2D4C, symBinAddr: 0x2ED400, symSize: 0xF0 }
  - { offset: 0x260F58, size: 0x8, addend: 0x0, symName: '__ZN4core5slice29_$LT$impl$u20$$u5b$T$u5d$$GT$17get_unchecked_mut17ha9735e4c855f73e1E', symObjAddr: 0x2E3C, symBinAddr: 0x2ED4F0, symSize: 0x44 }
  - { offset: 0x260FCE, size: 0x8, addend: 0x0, symName: '__ZN4core5slice29_$LT$impl$u20$$u5b$T$u5d$$GT$18split_at_unchecked17h2abadbb015826c35E', symObjAddr: 0x2E80, symBinAddr: 0x2ED534, symSize: 0xF0 }
  - { offset: 0x26114F, size: 0x8, addend: 0x0, symName: '__ZN4core5slice29_$LT$impl$u20$$u5b$T$u5d$$GT$18split_at_unchecked17h8f1907d1bd966157E', symObjAddr: 0x2F70, symBinAddr: 0x2ED624, symSize: 0xF0 }
  - { offset: 0x2612D0, size: 0x8, addend: 0x0, symName: '__ZN4core5slice29_$LT$impl$u20$$u5b$T$u5d$$GT$22split_at_mut_unchecked17h0e8e51fd366155abE', symObjAddr: 0x3060, symBinAddr: 0x2ED714, symSize: 0xFC }
  - { offset: 0x26144B, size: 0x8, addend: 0x0, symName: '__ZN4core5slice29_$LT$impl$u20$$u5b$T$u5d$$GT$22split_at_mut_unchecked17h554f92035c45901aE', symObjAddr: 0x315C, symBinAddr: 0x2ED810, symSize: 0xFC }
  - { offset: 0x26159F, size: 0x8, addend: 0x0, symName: '__ZN4core5slice29_$LT$impl$u20$$u5b$T$u5d$$GT$4iter17h8cf0b074914bba9bE', symObjAddr: 0x3258, symBinAddr: 0x2ED90C, symSize: 0x28 }
  - { offset: 0x2615D6, size: 0x8, addend: 0x0, symName: '__ZN4core5slice29_$LT$impl$u20$$u5b$T$u5d$$GT$7get_mut17h99e2d0c1c03301d3E', symObjAddr: 0x3280, symBinAddr: 0x2ED934, symSize: 0x44 }
  - { offset: 0x261625, size: 0x8, addend: 0x0, symName: '__ZN4core5slice29_$LT$impl$u20$$u5b$T$u5d$$GT$8iter_mut17hdfa73d0e9f7e7209E', symObjAddr: 0x32C4, symBinAddr: 0x2ED978, symSize: 0x28 }
  - { offset: 0x26168F, size: 0x8, addend: 0x0, symName: '__ZN4core5slice29_$LT$impl$u20$$u5b$T$u5d$$GT$8split_at17h3c956314ecaa6ccdE', symObjAddr: 0x32EC, symBinAddr: 0x2ED9A0, symSize: 0xAC }
  - { offset: 0x261726, size: 0x8, addend: 0x0, symName: '__ZN4core5slice29_$LT$impl$u20$$u5b$T$u5d$$GT$8split_at17h99feec74a3059721E', symObjAddr: 0x3398, symBinAddr: 0x2EDA4C, symSize: 0xAC }
  - { offset: 0x2618F7, size: 0x8, addend: 0x0, symName: '__ZN4core5slice4iter87_$LT$impl$u20$core..iter..traits..collect..IntoIterator$u20$for$u20$$RF$$u5b$T$u5d$$GT$9into_iter17h595c119d886cea18E', symObjAddr: 0x3444, symBinAddr: 0x2EDAF8, symSize: 0x50 }
  - { offset: 0x261A8E, size: 0x8, addend: 0x0, symName: '__ZN4core5slice4iter95_$LT$impl$u20$core..iter..traits..collect..IntoIterator$u20$for$u20$$RF$mut$u20$$u5b$T$u5d$$GT$9into_iter17h3704551bb9c1054bE', symObjAddr: 0x3494, symBinAddr: 0x2EDB48, symSize: 0x50 }
  - { offset: 0x261F7D, size: 0x8, addend: 0x0, symName: '__ZN11num_complex16Complex$LT$T$GT$4conj17h8b4f66fd37cbf897E', symObjAddr: 0x144, symBinAddr: 0x2EA7F8, symSize: 0xB0 }
  - { offset: 0x261FFC, size: 0x8, addend: 0x0, symName: '__ZN11num_complex16Complex$LT$T$GT$4conj17hc2d1faaaf4175fa4E', symObjAddr: 0x1F4, symBinAddr: 0x2EA8A8, symSize: 0xB0 }
  - { offset: 0x2645E0, size: 0x8, addend: 0x0, symName: '__ZN62_$LT$T$u20$as$u20$alloc..vec..spec_from_elem..SpecFromElem$GT$9from_elem17h87eb42e7c19efa04E', symObjAddr: 0x34E4, symBinAddr: 0x2EDB98, symSize: 0xE8 }
  - { offset: 0x264868, size: 0x8, addend: 0x0, symName: '__ZN7rustfft9fft_cache17FftCache$LT$T$GT$3get17hdfcbca211a3d0767E', symObjAddr: 0x0, symBinAddr: 0x2EE5F4, symSize: 0x6C }
  - { offset: 0x264CBD, size: 0x8, addend: 0x0, symName: '__ZN7rustfft9fft_cache17FftCache$LT$T$GT$3get17hdfcbca211a3d0767E', symObjAddr: 0x0, symBinAddr: 0x2EE5F4, symSize: 0x6C }
  - { offset: 0x264D04, size: 0x8, addend: 0x0, symName: '__ZN7rustfft9fft_cache17FftCache$LT$T$GT$3new17hf6cff01a63fc8d18E', symObjAddr: 0x6C, symBinAddr: 0x2EE660, symSize: 0x84 }
  - { offset: 0x264D3B, size: 0x8, addend: 0x0, symName: '__ZN7rustfft9fft_cache17FftCache$LT$T$GT$6insert17h85edeb68b5ac0e31E', symObjAddr: 0xF0, symBinAddr: 0x2EE6E4, symSize: 0x170 }
  - { offset: 0x264DC5, size: 0x8, addend: 0x0, symName: __ZN4core4iter6traits8iterator8Iterator3zip17h14c201ef33d46c78E, symObjAddr: 0x0, symBinAddr: 0x2EE854, symSize: 0xB4 }
  - { offset: 0x265669, size: 0x8, addend: 0x0, symName: __ZN4core4iter6traits8iterator8Iterator3zip17h14c201ef33d46c78E, symObjAddr: 0x0, symBinAddr: 0x2EE854, symSize: 0xB4 }
  - { offset: 0x26693F, size: 0x8, addend: 0x0, symName: '__ZN7rustfft3sse11sse_planner22FftPlannerSse$LT$T$GT$3new17h1ad5a1ef1a64c3a8E', symObjAddr: 0xB4, symBinAddr: 0x2EE908, symSize: 0xC }
  - { offset: 0x266A40, size: 0x8, addend: 0x0, symName: '__ZN7rustfft3sse11sse_planner22FftPlannerSse$LT$T$GT$8plan_fft17h2d11e95d752c2208E', symObjAddr: 0xC0, symBinAddr: 0x2EE914, symSize: 0x34 }
  - { offset: 0x266AA8, size: 0x8, addend: 0x0, symName: '__ZN5alloc3vec13in_place_drop20InPlaceDrop$LT$T$GT$3len17h244b10968f961937E', symObjAddr: 0x0, symBinAddr: 0x2EE948, symSize: 0x84 }
  - { offset: 0x266BFE, size: 0x8, addend: 0x0, symName: '__ZN5alloc3vec13in_place_drop20InPlaceDrop$LT$T$GT$3len17h244b10968f961937E', symObjAddr: 0x0, symBinAddr: 0x2EE948, symSize: 0x84 }
  - { offset: 0x266CC1, size: 0x8, addend: 0x0, symName: __ZN5nifti4util10is_gz_file17h1dff044f6d0d22c7E, symObjAddr: 0x0, symBinAddr: 0x2EE9CC, symSize: 0x98 }
  - { offset: 0x2673E1, size: 0x8, addend: 0x0, symName: __ZN5nifti4util10is_gz_file17h1dff044f6d0d22c7E, symObjAddr: 0x0, symBinAddr: 0x2EE9CC, symSize: 0x98 }
  - { offset: 0x267416, size: 0x8, addend: 0x0, symName: __ZN5nifti4util10is_gz_file17hf0149602fc8c5b6cE, symObjAddr: 0x98, symBinAddr: 0x2EEA64, symSize: 0x94 }
  - { offset: 0x267450, size: 0x8, addend: 0x0, symName: '__ZN5nifti4util10is_gz_file28_$u7b$$u7b$closure$u7d$$u7d$17h2a9f8d00a50cb438E', symObjAddr: 0x12C, symBinAddr: 0x2EEAF8, symSize: 0x9C }
  - { offset: 0x26748F, size: 0x8, addend: 0x0, symName: '__ZN5nifti4util10is_gz_file28_$u7b$$u7b$closure$u7d$$u7d$17h67ed19764c4527ccE', symObjAddr: 0x1C8, symBinAddr: 0x2EEB94, symSize: 0x9C }
  - { offset: 0x2674DD, size: 0x8, addend: 0x0, symName: __ZN5nifti4util16convert_bytes_to17h0e5a9328a9d37605E, symObjAddr: 0x264, symBinAddr: 0x2EEC30, symSize: 0x1DC }
  - { offset: 0x26757B, size: 0x8, addend: 0x0, symName: __ZN5nifti4util16convert_bytes_to17h56a0d0458a93d693E, symObjAddr: 0x440, symBinAddr: 0x2EEE0C, symSize: 0x1DC }
  - { offset: 0x267619, size: 0x8, addend: 0x0, symName: __ZN5nifti4util16convert_bytes_to17h5859e900c7ac6370E, symObjAddr: 0x61C, symBinAddr: 0x2EEFE8, symSize: 0x1DC }
  - { offset: 0x2676B7, size: 0x8, addend: 0x0, symName: __ZN5nifti4util16convert_bytes_to17h817cbd8b96c30305E, symObjAddr: 0x7F8, symBinAddr: 0x2EF1C4, symSize: 0x1DC }
  - { offset: 0x267755, size: 0x8, addend: 0x0, symName: __ZN5nifti4util16convert_bytes_to17ha7068eb32e1cf598E, symObjAddr: 0x9D4, symBinAddr: 0x2EF3A0, symSize: 0x1DC }
  - { offset: 0x2677F3, size: 0x8, addend: 0x0, symName: __ZN5nifti4util16convert_bytes_to17hc203a189cb02a017E, symObjAddr: 0xBB0, symBinAddr: 0x2EF57C, symSize: 0x1DC }
  - { offset: 0x267891, size: 0x8, addend: 0x0, symName: __ZN5nifti4util16convert_bytes_to17hd51222835e7aef02E, symObjAddr: 0xD8C, symBinAddr: 0x2EF758, symSize: 0x1DC }
  - { offset: 0x26792F, size: 0x8, addend: 0x0, symName: __ZN5nifti4util16convert_bytes_to17he3b3389f949dadd9E, symObjAddr: 0xF68, symBinAddr: 0x2EF934, symSize: 0x1DC }
  - { offset: 0x2679CD, size: 0x8, addend: 0x0, symName: __ZN5nifti4util18adapt_bytes_inline17h320f6746e66f5b67E, symObjAddr: 0x1144, symBinAddr: 0x2EFB10, symSize: 0x1C8 }
  - { offset: 0x267AFD, size: 0x8, addend: 0x0, symName: __ZN5nifti4util18adapt_bytes_inline17h3511ec46c02bb03dE, symObjAddr: 0x130C, symBinAddr: 0x2EFCD8, symSize: 0x1C8 }
  - { offset: 0x267C2D, size: 0x8, addend: 0x0, symName: __ZN5nifti4util18adapt_bytes_inline17h39cf6b2bccc78e12E, symObjAddr: 0x14D4, symBinAddr: 0x2EFEA0, symSize: 0x1C8 }
  - { offset: 0x267D5D, size: 0x8, addend: 0x0, symName: __ZN5nifti4util18adapt_bytes_inline17h4448204004394c78E, symObjAddr: 0x169C, symBinAddr: 0x2F0068, symSize: 0x1C8 }
  - { offset: 0x267E8D, size: 0x8, addend: 0x0, symName: __ZN5nifti4util18adapt_bytes_inline17h87da53aba7712ab2E, symObjAddr: 0x1864, symBinAddr: 0x2F0230, symSize: 0x1C8 }
  - { offset: 0x267FBD, size: 0x8, addend: 0x0, symName: __ZN5nifti4util18adapt_bytes_inline17h93ee9dfe069ed8b7E, symObjAddr: 0x1A2C, symBinAddr: 0x2F03F8, symSize: 0x1C8 }
  - { offset: 0x2680ED, size: 0x8, addend: 0x0, symName: __ZN5nifti4util18adapt_bytes_inline17ha4598efa9c599bf6E, symObjAddr: 0x1BF4, symBinAddr: 0x2F05C0, symSize: 0x1C8 }
  - { offset: 0x26821D, size: 0x8, addend: 0x0, symName: __ZN5nifti4util18adapt_bytes_inline17hb661c29d16a32b48E, symObjAddr: 0x1DBC, symBinAddr: 0x2F0788, symSize: 0x1C8 }
  - { offset: 0x26834D, size: 0x8, addend: 0x0, symName: __ZN5nifti4util18open_file_maybe_gz17h03f95eb7aac54ca8E, symObjAddr: 0x1F84, symBinAddr: 0x2F0950, symSize: 0x1EC }
  - { offset: 0x2683CB, size: 0x8, addend: 0x0, symName: __ZN5nifti4util18open_file_maybe_gz17h98b7f6e3121d2fe3E, symObjAddr: 0x2170, symBinAddr: 0x2F0B3C, symSize: 0x200 }
  - { offset: 0x2698ED, size: 0x8, addend: 0x0, symName: '__ZN101_$LT$rustfft..algorithm..raders_algorithm..RadersAlgorithm$LT$T$GT$$u20$as$u20$rustfft..Direction$GT$13fft_direction17hf2da3b5634f7d211E', symObjAddr: 0x0, symBinAddr: 0x2F0D3C, symSize: 0x1C }
  - { offset: 0x269946, size: 0x8, addend: 0x0, symName: '__ZN73_$LT$rustfft..algorithm..dft..Dft$LT$T$GT$$u20$as$u20$rustfft..Length$GT$3len17h43e1a1433aa1399dE', symObjAddr: 0x340, symBinAddr: 0x2F107C, symSize: 0x30 }
  - { offset: 0x269981, size: 0x8, addend: 0x0, symName: '__ZN76_$LT$rustfft..algorithm..dft..Dft$LT$T$GT$$u20$as$u20$rustfft..Direction$GT$13fft_direction17h2dfa3eb7afc43cfaE', symObjAddr: 0x370, symBinAddr: 0x2F10AC, symSize: 0x1C }
  - { offset: 0x2699BC, size: 0x8, addend: 0x0, symName: '__ZN79_$LT$rustfft..algorithm..dft..Dft$LT$T$GT$$u20$as$u20$rustfft..Fft$LT$T$GT$$GT$23get_inplace_scratch_len17h94445b901171413eE', symObjAddr: 0x38C, symBinAddr: 0x2F10C8, symSize: 0x24 }
  - { offset: 0x2699F1, size: 0x8, addend: 0x0, symName: '__ZN79_$LT$rustfft..algorithm..dft..Dft$LT$T$GT$$u20$as$u20$rustfft..Fft$LT$T$GT$$GT$25get_immutable_scratch_len17hc7c6e89d7e31754aE', symObjAddr: 0x3B0, symBinAddr: 0x2F10EC, symSize: 0x24 }
  - { offset: 0x269A26, size: 0x8, addend: 0x0, symName: '__ZN79_$LT$rustfft..algorithm..dft..Dft$LT$T$GT$$u20$as$u20$rustfft..Fft$LT$T$GT$$GT$26get_outofplace_scratch_len17h1b49e1629c769e25E', symObjAddr: 0x3D4, symBinAddr: 0x2F1110, symSize: 0x24 }
  - { offset: 0x269B3F, size: 0x8, addend: 0x0, symName: '__ZN88_$LT$rustfft..algorithm..mixed_radix..MixedRadix$LT$T$GT$$u20$as$u20$rustfft..Length$GT$3len17h3a3fd8d622396467E', symObjAddr: 0x3668, symBinAddr: 0x2F43A4, symSize: 0x30 }
  - { offset: 0x269B7A, size: 0x8, addend: 0x0, symName: '__ZN91_$LT$rustfft..algorithm..mixed_radix..MixedRadix$LT$T$GT$$u20$as$u20$rustfft..Direction$GT$13fft_direction17h1bfc937b2fb763c3E', symObjAddr: 0x3938, symBinAddr: 0x2F4674, symSize: 0x1C }
  - { offset: 0x269BB5, size: 0x8, addend: 0x0, symName: '__ZN93_$LT$rustfft..algorithm..mixed_radix..MixedRadixSmall$LT$T$GT$$u20$as$u20$rustfft..Length$GT$3len17he231273b65bd3308E', symObjAddr: 0x3B94, symBinAddr: 0x2F48D0, symSize: 0x30 }
  - { offset: 0x269BF0, size: 0x8, addend: 0x0, symName: '__ZN94_$LT$rustfft..algorithm..mixed_radix..MixedRadix$LT$T$GT$$u20$as$u20$rustfft..Fft$LT$T$GT$$GT$23get_inplace_scratch_len17h05d08e24630cf407E', symObjAddr: 0x3DA4, symBinAddr: 0x2F4AE0, symSize: 0x30 }
  - { offset: 0x269C25, size: 0x8, addend: 0x0, symName: '__ZN94_$LT$rustfft..algorithm..mixed_radix..MixedRadix$LT$T$GT$$u20$as$u20$rustfft..Fft$LT$T$GT$$GT$25get_immutable_scratch_len17hf2867cfa1f7b796cE', symObjAddr: 0x3DD4, symBinAddr: 0x2F4B10, symSize: 0x30 }
  - { offset: 0x269C5A, size: 0x8, addend: 0x0, symName: '__ZN94_$LT$rustfft..algorithm..mixed_radix..MixedRadix$LT$T$GT$$u20$as$u20$rustfft..Fft$LT$T$GT$$GT$26get_outofplace_scratch_len17h4d6c5124974e2b12E', symObjAddr: 0x3E04, symBinAddr: 0x2F4B40, symSize: 0x30 }
  - { offset: 0x269C95, size: 0x8, addend: 0x0, symName: '__ZN96_$LT$rustfft..algorithm..mixed_radix..MixedRadixSmall$LT$T$GT$$u20$as$u20$rustfft..Direction$GT$13fft_direction17h4addd4318efe6a41E', symObjAddr: 0x4104, symBinAddr: 0x2F4E40, symSize: 0x1C }
  - { offset: 0x269CD0, size: 0x8, addend: 0x0, symName: '__ZN99_$LT$rustfft..algorithm..mixed_radix..MixedRadixSmall$LT$T$GT$$u20$as$u20$rustfft..Fft$LT$T$GT$$GT$23get_inplace_scratch_len17h26a0c534ec4b068cE', symObjAddr: 0x4150, symBinAddr: 0x2F4E8C, symSize: 0x30 }
  - { offset: 0x269D05, size: 0x8, addend: 0x0, symName: '__ZN99_$LT$rustfft..algorithm..mixed_radix..MixedRadixSmall$LT$T$GT$$u20$as$u20$rustfft..Fft$LT$T$GT$$GT$25get_immutable_scratch_len17ha990f74bf72b5876E', symObjAddr: 0x4180, symBinAddr: 0x2F4EBC, symSize: 0x30 }
  - { offset: 0x269D3A, size: 0x8, addend: 0x0, symName: '__ZN99_$LT$rustfft..algorithm..mixed_radix..MixedRadixSmall$LT$T$GT$$u20$as$u20$rustfft..Fft$LT$T$GT$$GT$26get_outofplace_scratch_len17ha330533a523a60c4E', symObjAddr: 0x41B0, symBinAddr: 0x2F4EEC, symSize: 0x30 }
  - { offset: 0x269E6B, size: 0x8, addend: 0x0, symName: '__ZN107_$LT$rustfft..algorithm..good_thomas_algorithm..GoodThomasAlgorithm$LT$T$GT$$u20$as$u20$rustfft..Length$GT$3len17h39a1ba40be0296afE', symObjAddr: 0xDC, symBinAddr: 0x2F0E18, symSize: 0x30 }
  - { offset: 0x269EA6, size: 0x8, addend: 0x0, symName: '__ZN110_$LT$rustfft..algorithm..good_thomas_algorithm..GoodThomasAlgorithm$LT$T$GT$$u20$as$u20$rustfft..Direction$GT$13fft_direction17hec282aa12f8893bdE', symObjAddr: 0x128, symBinAddr: 0x2F0E64, symSize: 0x1C }
  - { offset: 0x269EE1, size: 0x8, addend: 0x0, symName: '__ZN112_$LT$rustfft..algorithm..good_thomas_algorithm..GoodThomasAlgorithmSmall$LT$T$GT$$u20$as$u20$rustfft..Length$GT$3len17h571ac828e0dacc21E', symObjAddr: 0x1D4, symBinAddr: 0x2F0F10, symSize: 0x30 }
  - { offset: 0x269F1C, size: 0x8, addend: 0x0, symName: '__ZN113_$LT$rustfft..algorithm..good_thomas_algorithm..GoodThomasAlgorithm$LT$T$GT$$u20$as$u20$rustfft..Fft$LT$T$GT$$GT$23get_inplace_scratch_len17h7de9e11ea3153fb1E', symObjAddr: 0x204, symBinAddr: 0x2F0F40, symSize: 0x30 }
  - { offset: 0x269F51, size: 0x8, addend: 0x0, symName: '__ZN113_$LT$rustfft..algorithm..good_thomas_algorithm..GoodThomasAlgorithm$LT$T$GT$$u20$as$u20$rustfft..Fft$LT$T$GT$$GT$25get_immutable_scratch_len17hb0e8847ac4363229E', symObjAddr: 0x234, symBinAddr: 0x2F0F70, symSize: 0x30 }
  - { offset: 0x269F86, size: 0x8, addend: 0x0, symName: '__ZN113_$LT$rustfft..algorithm..good_thomas_algorithm..GoodThomasAlgorithm$LT$T$GT$$u20$as$u20$rustfft..Fft$LT$T$GT$$GT$26get_outofplace_scratch_len17hda5a6076c4b54064E', symObjAddr: 0x264, symBinAddr: 0x2F0FA0, symSize: 0x30 }
  - { offset: 0x269FC1, size: 0x8, addend: 0x0, symName: '__ZN115_$LT$rustfft..algorithm..good_thomas_algorithm..GoodThomasAlgorithmSmall$LT$T$GT$$u20$as$u20$rustfft..Direction$GT$13fft_direction17habdfff91f485fec3E', symObjAddr: 0x294, symBinAddr: 0x2F0FD0, symSize: 0x1C }
  - { offset: 0x269FFC, size: 0x8, addend: 0x0, symName: '__ZN118_$LT$rustfft..algorithm..good_thomas_algorithm..GoodThomasAlgorithmSmall$LT$T$GT$$u20$as$u20$rustfft..Fft$LT$T$GT$$GT$23get_inplace_scratch_len17hb21bd1d61e0f6887E', symObjAddr: 0x2B0, symBinAddr: 0x2F0FEC, symSize: 0x30 }
  - { offset: 0x26A031, size: 0x8, addend: 0x0, symName: '__ZN118_$LT$rustfft..algorithm..good_thomas_algorithm..GoodThomasAlgorithmSmall$LT$T$GT$$u20$as$u20$rustfft..Fft$LT$T$GT$$GT$25get_immutable_scratch_len17h3179fc8c06fe0628E', symObjAddr: 0x2E0, symBinAddr: 0x2F101C, symSize: 0x30 }
  - { offset: 0x26A066, size: 0x8, addend: 0x0, symName: '__ZN118_$LT$rustfft..algorithm..good_thomas_algorithm..GoodThomasAlgorithmSmall$LT$T$GT$$u20$as$u20$rustfft..Fft$LT$T$GT$$GT$26get_outofplace_scratch_len17h15446cd002e8dc43E', symObjAddr: 0x310, symBinAddr: 0x2F104C, symSize: 0x30 }
  - { offset: 0x26A125, size: 0x8, addend: 0x0, symName: '__ZN101_$LT$rustfft..algorithm..raders_algorithm..RadersAlgorithm$LT$T$GT$$u20$as$u20$rustfft..Direction$GT$13fft_direction17hf2da3b5634f7d211E', symObjAddr: 0x0, symBinAddr: 0x2F0D3C, symSize: 0x1C }
  - { offset: 0x26A160, size: 0x8, addend: 0x0, symName: '__ZN104_$LT$rustfft..algorithm..raders_algorithm..RadersAlgorithm$LT$T$GT$$u20$as$u20$rustfft..Fft$LT$T$GT$$GT$23get_inplace_scratch_len17hd33a131c2937d2bfE', symObjAddr: 0x1C, symBinAddr: 0x2F0D58, symSize: 0x30 }
  - { offset: 0x26A195, size: 0x8, addend: 0x0, symName: '__ZN104_$LT$rustfft..algorithm..raders_algorithm..RadersAlgorithm$LT$T$GT$$u20$as$u20$rustfft..Fft$LT$T$GT$$GT$25get_immutable_scratch_len17hd9e5341d8b90b712E', symObjAddr: 0x4C, symBinAddr: 0x2F0D88, symSize: 0x30 }
  - { offset: 0x26A1CA, size: 0x8, addend: 0x0, symName: '__ZN104_$LT$rustfft..algorithm..raders_algorithm..RadersAlgorithm$LT$T$GT$$u20$as$u20$rustfft..Fft$LT$T$GT$$GT$26get_outofplace_scratch_len17h608a3a2d33924d61E', symObjAddr: 0x7C, symBinAddr: 0x2F0DB8, symSize: 0x30 }
  - { offset: 0x26A205, size: 0x8, addend: 0x0, symName: '__ZN98_$LT$rustfft..algorithm..raders_algorithm..RadersAlgorithm$LT$T$GT$$u20$as$u20$rustfft..Length$GT$3len17h3b6d0f71dd0df62cE', symObjAddr: 0x4120, symBinAddr: 0x2F4E5C, symSize: 0x30 }
  - { offset: 0x26A294, size: 0x8, addend: 0x0, symName: '__ZN106_$LT$rustfft..algorithm..bluesteins_algorithm..BluesteinsAlgorithm$LT$T$GT$$u20$as$u20$rustfft..Length$GT$3len17h27ca29b717494cc6E', symObjAddr: 0xAC, symBinAddr: 0x2F0DE8, symSize: 0x30 }
  - { offset: 0x26A2CF, size: 0x8, addend: 0x0, symName: '__ZN109_$LT$rustfft..algorithm..bluesteins_algorithm..BluesteinsAlgorithm$LT$T$GT$$u20$as$u20$rustfft..Direction$GT$13fft_direction17h57845df4d3219708E', symObjAddr: 0x10C, symBinAddr: 0x2F0E48, symSize: 0x1C }
  - { offset: 0x26A30A, size: 0x8, addend: 0x0, symName: '__ZN112_$LT$rustfft..algorithm..bluesteins_algorithm..BluesteinsAlgorithm$LT$T$GT$$u20$as$u20$rustfft..Fft$LT$T$GT$$GT$23get_inplace_scratch_len17h9dfe8dbcdec65421E', symObjAddr: 0x144, symBinAddr: 0x2F0E80, symSize: 0x30 }
  - { offset: 0x26A33F, size: 0x8, addend: 0x0, symName: '__ZN112_$LT$rustfft..algorithm..bluesteins_algorithm..BluesteinsAlgorithm$LT$T$GT$$u20$as$u20$rustfft..Fft$LT$T$GT$$GT$25get_immutable_scratch_len17hb7ef84a2de319eeaE', symObjAddr: 0x174, symBinAddr: 0x2F0EB0, symSize: 0x30 }
  - { offset: 0x26A374, size: 0x8, addend: 0x0, symName: '__ZN112_$LT$rustfft..algorithm..bluesteins_algorithm..BluesteinsAlgorithm$LT$T$GT$$u20$as$u20$rustfft..Fft$LT$T$GT$$GT$26get_outofplace_scratch_len17h7ce4e859a6dc3a91E', symObjAddr: 0x1A4, symBinAddr: 0x2F0EE0, symSize: 0x30 }
  - { offset: 0x26A55D, size: 0x8, addend: 0x0, symName: '__ZN79_$LT$rustfft..algorithm..radixn..RadixN$LT$T$GT$$u20$as$u20$rustfft..Length$GT$3len17hb251dcc92a654684E', symObjAddr: 0x428, symBinAddr: 0x2F1164, symSize: 0x30 }
  - { offset: 0x26A598, size: 0x8, addend: 0x0, symName: '__ZN82_$LT$rustfft..algorithm..radixn..RadixN$LT$T$GT$$u20$as$u20$rustfft..Direction$GT$13fft_direction17h3cd6fc07aeefd127E', symObjAddr: 0x34B4, symBinAddr: 0x2F41F0, symSize: 0x1C }
  - { offset: 0x26A5D3, size: 0x8, addend: 0x0, symName: '__ZN85_$LT$rustfft..algorithm..radixn..RadixN$LT$T$GT$$u20$as$u20$rustfft..Fft$LT$T$GT$$GT$23get_inplace_scratch_len17h0988588fa4c44727E', symObjAddr: 0x353C, symBinAddr: 0x2F4278, symSize: 0x24 }
  - { offset: 0x26A608, size: 0x8, addend: 0x0, symName: '__ZN85_$LT$rustfft..algorithm..radixn..RadixN$LT$T$GT$$u20$as$u20$rustfft..Fft$LT$T$GT$$GT$25get_immutable_scratch_len17h35e61cb997471fdaE', symObjAddr: 0x3560, symBinAddr: 0x2F429C, symSize: 0x24 }
  - { offset: 0x26A63D, size: 0x8, addend: 0x0, symName: '__ZN85_$LT$rustfft..algorithm..radixn..RadixN$LT$T$GT$$u20$as$u20$rustfft..Fft$LT$T$GT$$GT$26get_outofplace_scratch_len17h09643da9436131a9E', symObjAddr: 0x3584, symBinAddr: 0x2F42C0, symSize: 0x24 }
  - { offset: 0x26AE42, size: 0x8, addend: 0x0, symName: '__ZN88_$LT$rustfft..algorithm..butterflies..Butterfly2$LT$T$GT$$u20$as$u20$rustfft..Length$GT$3len17h458df8f867805d6bE', symObjAddr: 0x35A8, symBinAddr: 0x2F42E4, symSize: 0x18 }
  - { offset: 0x26AE7D, size: 0x8, addend: 0x0, symName: '__ZN88_$LT$rustfft..algorithm..butterflies..Butterfly3$LT$T$GT$$u20$as$u20$rustfft..Length$GT$3len17h814b1cdb872af671E', symObjAddr: 0x35C0, symBinAddr: 0x2F42FC, symSize: 0x18 }
  - { offset: 0x26AEB8, size: 0x8, addend: 0x0, symName: '__ZN88_$LT$rustfft..algorithm..butterflies..Butterfly4$LT$T$GT$$u20$as$u20$rustfft..Length$GT$3len17hbb95625b72cfd097E', symObjAddr: 0x35D8, symBinAddr: 0x2F4314, symSize: 0x18 }
  - { offset: 0x26AEF3, size: 0x8, addend: 0x0, symName: '__ZN88_$LT$rustfft..algorithm..butterflies..Butterfly5$LT$T$GT$$u20$as$u20$rustfft..Length$GT$3len17h43a3a50a33df20f4E', symObjAddr: 0x35F0, symBinAddr: 0x2F432C, symSize: 0x18 }
  - { offset: 0x26AF2E, size: 0x8, addend: 0x0, symName: '__ZN88_$LT$rustfft..algorithm..butterflies..Butterfly6$LT$T$GT$$u20$as$u20$rustfft..Length$GT$3len17h650751b2977904d2E', symObjAddr: 0x3608, symBinAddr: 0x2F4344, symSize: 0x18 }
  - { offset: 0x26AF69, size: 0x8, addend: 0x0, symName: '__ZN88_$LT$rustfft..algorithm..butterflies..Butterfly7$LT$T$GT$$u20$as$u20$rustfft..Length$GT$3len17hbc8c74a586446e09E', symObjAddr: 0x3620, symBinAddr: 0x2F435C, symSize: 0x18 }
  - { offset: 0x26AFA4, size: 0x8, addend: 0x0, symName: '__ZN88_$LT$rustfft..algorithm..butterflies..Butterfly8$LT$T$GT$$u20$as$u20$rustfft..Length$GT$3len17ha6cbf8d726cef80eE', symObjAddr: 0x3638, symBinAddr: 0x2F4374, symSize: 0x18 }
  - { offset: 0x26AFDF, size: 0x8, addend: 0x0, symName: '__ZN88_$LT$rustfft..algorithm..butterflies..Butterfly9$LT$T$GT$$u20$as$u20$rustfft..Length$GT$3len17hcd2b2b4fa5607cd6E', symObjAddr: 0x3650, symBinAddr: 0x2F438C, symSize: 0x18 }
  - { offset: 0x26B01A, size: 0x8, addend: 0x0, symName: '__ZN89_$LT$rustfft..algorithm..butterflies..Butterfly11$LT$T$GT$$u20$as$u20$rustfft..Length$GT$3len17hd05c0881d352314fE', symObjAddr: 0x3698, symBinAddr: 0x2F43D4, symSize: 0x18 }
  - { offset: 0x26B055, size: 0x8, addend: 0x0, symName: '__ZN89_$LT$rustfft..algorithm..butterflies..Butterfly12$LT$T$GT$$u20$as$u20$rustfft..Length$GT$3len17hac7e03f51ef339b0E', symObjAddr: 0x36B0, symBinAddr: 0x2F43EC, symSize: 0x18 }
  - { offset: 0x26B090, size: 0x8, addend: 0x0, symName: '__ZN89_$LT$rustfft..algorithm..butterflies..Butterfly13$LT$T$GT$$u20$as$u20$rustfft..Length$GT$3len17hf83cd613b4c477d4E', symObjAddr: 0x36C8, symBinAddr: 0x2F4404, symSize: 0x18 }
  - { offset: 0x26B0CB, size: 0x8, addend: 0x0, symName: '__ZN89_$LT$rustfft..algorithm..butterflies..Butterfly16$LT$T$GT$$u20$as$u20$rustfft..Length$GT$3len17h7e8a482d9c9866b0E', symObjAddr: 0x36E0, symBinAddr: 0x2F441C, symSize: 0x18 }
  - { offset: 0x26B106, size: 0x8, addend: 0x0, symName: '__ZN89_$LT$rustfft..algorithm..butterflies..Butterfly17$LT$T$GT$$u20$as$u20$rustfft..Length$GT$3len17h21d01b56cd3ce22fE', symObjAddr: 0x36F8, symBinAddr: 0x2F4434, symSize: 0x18 }
  - { offset: 0x26B141, size: 0x8, addend: 0x0, symName: '__ZN89_$LT$rustfft..algorithm..butterflies..Butterfly19$LT$T$GT$$u20$as$u20$rustfft..Length$GT$3len17h82a7f8d692b77b51E', symObjAddr: 0x3710, symBinAddr: 0x2F444C, symSize: 0x18 }
  - { offset: 0x26B17C, size: 0x8, addend: 0x0, symName: '__ZN89_$LT$rustfft..algorithm..butterflies..Butterfly23$LT$T$GT$$u20$as$u20$rustfft..Length$GT$3len17he297a688000f4cd7E', symObjAddr: 0x3728, symBinAddr: 0x2F4464, symSize: 0x18 }
  - { offset: 0x26B1B7, size: 0x8, addend: 0x0, symName: '__ZN89_$LT$rustfft..algorithm..butterflies..Butterfly24$LT$T$GT$$u20$as$u20$rustfft..Length$GT$3len17h9a2678491b6c3065E', symObjAddr: 0x3740, symBinAddr: 0x2F447C, symSize: 0x18 }
  - { offset: 0x26B1F2, size: 0x8, addend: 0x0, symName: '__ZN89_$LT$rustfft..algorithm..butterflies..Butterfly27$LT$T$GT$$u20$as$u20$rustfft..Length$GT$3len17h551d217ed6699483E', symObjAddr: 0x3758, symBinAddr: 0x2F4494, symSize: 0x18 }
  - { offset: 0x26B22D, size: 0x8, addend: 0x0, symName: '__ZN89_$LT$rustfft..algorithm..butterflies..Butterfly29$LT$T$GT$$u20$as$u20$rustfft..Length$GT$3len17h81bb7b3bae69b58fE', symObjAddr: 0x3770, symBinAddr: 0x2F44AC, symSize: 0x18 }
  - { offset: 0x26B268, size: 0x8, addend: 0x0, symName: '__ZN89_$LT$rustfft..algorithm..butterflies..Butterfly31$LT$T$GT$$u20$as$u20$rustfft..Length$GT$3len17h984abc653c3270d2E', symObjAddr: 0x3788, symBinAddr: 0x2F44C4, symSize: 0x18 }
  - { offset: 0x26B2A3, size: 0x8, addend: 0x0, symName: '__ZN89_$LT$rustfft..algorithm..butterflies..Butterfly32$LT$T$GT$$u20$as$u20$rustfft..Length$GT$3len17hacec661966701128E', symObjAddr: 0x37A0, symBinAddr: 0x2F44DC, symSize: 0x18 }
  - { offset: 0x26B2DE, size: 0x8, addend: 0x0, symName: '__ZN91_$LT$rustfft..algorithm..butterflies..Butterfly2$LT$T$GT$$u20$as$u20$rustfft..Direction$GT$13fft_direction17h94845e017d8814e9E', symObjAddr: 0x37B8, symBinAddr: 0x2F44F4, symSize: 0x30 }
  - { offset: 0x26B319, size: 0x8, addend: 0x0, symName: '__ZN91_$LT$rustfft..algorithm..butterflies..Butterfly3$LT$T$GT$$u20$as$u20$rustfft..Direction$GT$13fft_direction17h107ff52a017deb0fE', symObjAddr: 0x37E8, symBinAddr: 0x2F4524, symSize: 0x30 }
  - { offset: 0x26B354, size: 0x8, addend: 0x0, symName: '__ZN91_$LT$rustfft..algorithm..butterflies..Butterfly4$LT$T$GT$$u20$as$u20$rustfft..Direction$GT$13fft_direction17h257828e4f1f7fac8E', symObjAddr: 0x3818, symBinAddr: 0x2F4554, symSize: 0x30 }
  - { offset: 0x26B38F, size: 0x8, addend: 0x0, symName: '__ZN91_$LT$rustfft..algorithm..butterflies..Butterfly5$LT$T$GT$$u20$as$u20$rustfft..Direction$GT$13fft_direction17haf26991eca4ea204E', symObjAddr: 0x3848, symBinAddr: 0x2F4584, symSize: 0x30 }
  - { offset: 0x26B3CA, size: 0x8, addend: 0x0, symName: '__ZN91_$LT$rustfft..algorithm..butterflies..Butterfly6$LT$T$GT$$u20$as$u20$rustfft..Direction$GT$13fft_direction17h738cbc1bf4519eafE', symObjAddr: 0x3878, symBinAddr: 0x2F45B4, symSize: 0x30 }
  - { offset: 0x26B405, size: 0x8, addend: 0x0, symName: '__ZN91_$LT$rustfft..algorithm..butterflies..Butterfly7$LT$T$GT$$u20$as$u20$rustfft..Direction$GT$13fft_direction17h239857bb8a88c998E', symObjAddr: 0x38A8, symBinAddr: 0x2F45E4, symSize: 0x30 }
  - { offset: 0x26B440, size: 0x8, addend: 0x0, symName: '__ZN91_$LT$rustfft..algorithm..butterflies..Butterfly8$LT$T$GT$$u20$as$u20$rustfft..Direction$GT$13fft_direction17h8a53354f0a393021E', symObjAddr: 0x38D8, symBinAddr: 0x2F4614, symSize: 0x30 }
  - { offset: 0x26B47B, size: 0x8, addend: 0x0, symName: '__ZN91_$LT$rustfft..algorithm..butterflies..Butterfly9$LT$T$GT$$u20$as$u20$rustfft..Direction$GT$13fft_direction17hcd74fbb3ac86767eE', symObjAddr: 0x3908, symBinAddr: 0x2F4644, symSize: 0x30 }
  - { offset: 0x26B4B6, size: 0x8, addend: 0x0, symName: '__ZN92_$LT$rustfft..algorithm..butterflies..Butterfly11$LT$T$GT$$u20$as$u20$rustfft..Direction$GT$13fft_direction17hb295248debd055afE', symObjAddr: 0x3954, symBinAddr: 0x2F4690, symSize: 0x30 }
  - { offset: 0x26B4F1, size: 0x8, addend: 0x0, symName: '__ZN92_$LT$rustfft..algorithm..butterflies..Butterfly12$LT$T$GT$$u20$as$u20$rustfft..Direction$GT$13fft_direction17h5237ce065333bcf7E', symObjAddr: 0x3984, symBinAddr: 0x2F46C0, symSize: 0x30 }
  - { offset: 0x26B52C, size: 0x8, addend: 0x0, symName: '__ZN92_$LT$rustfft..algorithm..butterflies..Butterfly13$LT$T$GT$$u20$as$u20$rustfft..Direction$GT$13fft_direction17h892ef3e9de297281E', symObjAddr: 0x39B4, symBinAddr: 0x2F46F0, symSize: 0x30 }
  - { offset: 0x26B567, size: 0x8, addend: 0x0, symName: '__ZN92_$LT$rustfft..algorithm..butterflies..Butterfly16$LT$T$GT$$u20$as$u20$rustfft..Direction$GT$13fft_direction17h26e18e7b4938965bE', symObjAddr: 0x39E4, symBinAddr: 0x2F4720, symSize: 0x30 }
  - { offset: 0x26B5A2, size: 0x8, addend: 0x0, symName: '__ZN92_$LT$rustfft..algorithm..butterflies..Butterfly17$LT$T$GT$$u20$as$u20$rustfft..Direction$GT$13fft_direction17h2b5288b254f56478E', symObjAddr: 0x3A14, symBinAddr: 0x2F4750, symSize: 0x30 }
  - { offset: 0x26B5DD, size: 0x8, addend: 0x0, symName: '__ZN92_$LT$rustfft..algorithm..butterflies..Butterfly19$LT$T$GT$$u20$as$u20$rustfft..Direction$GT$13fft_direction17h75112625dc52fd63E', symObjAddr: 0x3A44, symBinAddr: 0x2F4780, symSize: 0x30 }
  - { offset: 0x26B618, size: 0x8, addend: 0x0, symName: '__ZN92_$LT$rustfft..algorithm..butterflies..Butterfly23$LT$T$GT$$u20$as$u20$rustfft..Direction$GT$13fft_direction17h4af5c4465466f65eE', symObjAddr: 0x3A74, symBinAddr: 0x2F47B0, symSize: 0x30 }
  - { offset: 0x26B653, size: 0x8, addend: 0x0, symName: '__ZN92_$LT$rustfft..algorithm..butterflies..Butterfly24$LT$T$GT$$u20$as$u20$rustfft..Direction$GT$13fft_direction17h5bffbb27afc296cfE', symObjAddr: 0x3AA4, symBinAddr: 0x2F47E0, symSize: 0x30 }
  - { offset: 0x26B68E, size: 0x8, addend: 0x0, symName: '__ZN92_$LT$rustfft..algorithm..butterflies..Butterfly27$LT$T$GT$$u20$as$u20$rustfft..Direction$GT$13fft_direction17h0d2afd5982e9ca88E', symObjAddr: 0x3AD4, symBinAddr: 0x2F4810, symSize: 0x30 }
  - { offset: 0x26B6C9, size: 0x8, addend: 0x0, symName: '__ZN92_$LT$rustfft..algorithm..butterflies..Butterfly29$LT$T$GT$$u20$as$u20$rustfft..Direction$GT$13fft_direction17hfd1ba2a2df975087E', symObjAddr: 0x3B04, symBinAddr: 0x2F4840, symSize: 0x30 }
  - { offset: 0x26B704, size: 0x8, addend: 0x0, symName: '__ZN92_$LT$rustfft..algorithm..butterflies..Butterfly31$LT$T$GT$$u20$as$u20$rustfft..Direction$GT$13fft_direction17h57011a8ae6b1727fE', symObjAddr: 0x3B34, symBinAddr: 0x2F4870, symSize: 0x30 }
  - { offset: 0x26B73F, size: 0x8, addend: 0x0, symName: '__ZN92_$LT$rustfft..algorithm..butterflies..Butterfly32$LT$T$GT$$u20$as$u20$rustfft..Direction$GT$13fft_direction17h5992fe13f3064323E', symObjAddr: 0x3B64, symBinAddr: 0x2F48A0, symSize: 0x30 }
  - { offset: 0x26B77A, size: 0x8, addend: 0x0, symName: '__ZN94_$LT$rustfft..algorithm..butterflies..Butterfly2$LT$T$GT$$u20$as$u20$rustfft..Fft$LT$T$GT$$GT$23get_inplace_scratch_len17hea0611ec00820782E', symObjAddr: 0x3BC4, symBinAddr: 0x2F4900, symSize: 0x14 }
  - { offset: 0x26B7AF, size: 0x8, addend: 0x0, symName: '__ZN94_$LT$rustfft..algorithm..butterflies..Butterfly2$LT$T$GT$$u20$as$u20$rustfft..Fft$LT$T$GT$$GT$25get_immutable_scratch_len17h7a0915198f62cfe3E', symObjAddr: 0x3BD8, symBinAddr: 0x2F4914, symSize: 0x14 }
  - { offset: 0x26B7E4, size: 0x8, addend: 0x0, symName: '__ZN94_$LT$rustfft..algorithm..butterflies..Butterfly2$LT$T$GT$$u20$as$u20$rustfft..Fft$LT$T$GT$$GT$26get_outofplace_scratch_len17h3b6d07664bb04d4fE', symObjAddr: 0x3BEC, symBinAddr: 0x2F4928, symSize: 0x14 }
  - { offset: 0x26B81F, size: 0x8, addend: 0x0, symName: '__ZN94_$LT$rustfft..algorithm..butterflies..Butterfly3$LT$T$GT$$u20$as$u20$rustfft..Fft$LT$T$GT$$GT$23get_inplace_scratch_len17h335d5756ba77afeeE', symObjAddr: 0x3C00, symBinAddr: 0x2F493C, symSize: 0x14 }
  - { offset: 0x26B854, size: 0x8, addend: 0x0, symName: '__ZN94_$LT$rustfft..algorithm..butterflies..Butterfly3$LT$T$GT$$u20$as$u20$rustfft..Fft$LT$T$GT$$GT$25get_immutable_scratch_len17h7da2517f6466e6d2E', symObjAddr: 0x3C14, symBinAddr: 0x2F4950, symSize: 0x14 }
  - { offset: 0x26B889, size: 0x8, addend: 0x0, symName: '__ZN94_$LT$rustfft..algorithm..butterflies..Butterfly3$LT$T$GT$$u20$as$u20$rustfft..Fft$LT$T$GT$$GT$26get_outofplace_scratch_len17h3b60b1bfb29df5c5E', symObjAddr: 0x3C28, symBinAddr: 0x2F4964, symSize: 0x14 }
  - { offset: 0x26B8C4, size: 0x8, addend: 0x0, symName: '__ZN94_$LT$rustfft..algorithm..butterflies..Butterfly4$LT$T$GT$$u20$as$u20$rustfft..Fft$LT$T$GT$$GT$23get_inplace_scratch_len17he30160d433cf4489E', symObjAddr: 0x3C3C, symBinAddr: 0x2F4978, symSize: 0x14 }
  - { offset: 0x26B8F9, size: 0x8, addend: 0x0, symName: '__ZN94_$LT$rustfft..algorithm..butterflies..Butterfly4$LT$T$GT$$u20$as$u20$rustfft..Fft$LT$T$GT$$GT$25get_immutable_scratch_len17he92139605ed2cd80E', symObjAddr: 0x3C50, symBinAddr: 0x2F498C, symSize: 0x14 }
  - { offset: 0x26B92E, size: 0x8, addend: 0x0, symName: '__ZN94_$LT$rustfft..algorithm..butterflies..Butterfly4$LT$T$GT$$u20$as$u20$rustfft..Fft$LT$T$GT$$GT$26get_outofplace_scratch_len17hb3fc47d5154052ecE', symObjAddr: 0x3C64, symBinAddr: 0x2F49A0, symSize: 0x14 }
  - { offset: 0x26B969, size: 0x8, addend: 0x0, symName: '__ZN94_$LT$rustfft..algorithm..butterflies..Butterfly5$LT$T$GT$$u20$as$u20$rustfft..Fft$LT$T$GT$$GT$23get_inplace_scratch_len17h0163fbb37fd03c55E', symObjAddr: 0x3C78, symBinAddr: 0x2F49B4, symSize: 0x14 }
  - { offset: 0x26B99E, size: 0x8, addend: 0x0, symName: '__ZN94_$LT$rustfft..algorithm..butterflies..Butterfly5$LT$T$GT$$u20$as$u20$rustfft..Fft$LT$T$GT$$GT$25get_immutable_scratch_len17hdaeddd76d981f912E', symObjAddr: 0x3C8C, symBinAddr: 0x2F49C8, symSize: 0x14 }
  - { offset: 0x26B9D3, size: 0x8, addend: 0x0, symName: '__ZN94_$LT$rustfft..algorithm..butterflies..Butterfly5$LT$T$GT$$u20$as$u20$rustfft..Fft$LT$T$GT$$GT$26get_outofplace_scratch_len17hb1710d27f02c4e52E', symObjAddr: 0x3CA0, symBinAddr: 0x2F49DC, symSize: 0x14 }
  - { offset: 0x26BA0E, size: 0x8, addend: 0x0, symName: '__ZN94_$LT$rustfft..algorithm..butterflies..Butterfly6$LT$T$GT$$u20$as$u20$rustfft..Fft$LT$T$GT$$GT$23get_inplace_scratch_len17h015fb2e16f04754cE', symObjAddr: 0x3CB4, symBinAddr: 0x2F49F0, symSize: 0x14 }
  - { offset: 0x26BA43, size: 0x8, addend: 0x0, symName: '__ZN94_$LT$rustfft..algorithm..butterflies..Butterfly6$LT$T$GT$$u20$as$u20$rustfft..Fft$LT$T$GT$$GT$25get_immutable_scratch_len17h2f25d0b089d3fc25E', symObjAddr: 0x3CC8, symBinAddr: 0x2F4A04, symSize: 0x14 }
  - { offset: 0x26BA78, size: 0x8, addend: 0x0, symName: '__ZN94_$LT$rustfft..algorithm..butterflies..Butterfly6$LT$T$GT$$u20$as$u20$rustfft..Fft$LT$T$GT$$GT$26get_outofplace_scratch_len17h9a6ed3d8542aad30E', symObjAddr: 0x3CDC, symBinAddr: 0x2F4A18, symSize: 0x14 }
  - { offset: 0x26BAB3, size: 0x8, addend: 0x0, symName: '__ZN94_$LT$rustfft..algorithm..butterflies..Butterfly7$LT$T$GT$$u20$as$u20$rustfft..Fft$LT$T$GT$$GT$23get_inplace_scratch_len17h9fdc2fe92edabf35E', symObjAddr: 0x3CF0, symBinAddr: 0x2F4A2C, symSize: 0x14 }
  - { offset: 0x26BAE8, size: 0x8, addend: 0x0, symName: '__ZN94_$LT$rustfft..algorithm..butterflies..Butterfly7$LT$T$GT$$u20$as$u20$rustfft..Fft$LT$T$GT$$GT$25get_immutable_scratch_len17h881402d718a91482E', symObjAddr: 0x3D04, symBinAddr: 0x2F4A40, symSize: 0x14 }
  - { offset: 0x26BB1D, size: 0x8, addend: 0x0, symName: '__ZN94_$LT$rustfft..algorithm..butterflies..Butterfly7$LT$T$GT$$u20$as$u20$rustfft..Fft$LT$T$GT$$GT$26get_outofplace_scratch_len17h58164a7d59a2d37bE', symObjAddr: 0x3D18, symBinAddr: 0x2F4A54, symSize: 0x14 }
  - { offset: 0x26BB58, size: 0x8, addend: 0x0, symName: '__ZN94_$LT$rustfft..algorithm..butterflies..Butterfly8$LT$T$GT$$u20$as$u20$rustfft..Fft$LT$T$GT$$GT$23get_inplace_scratch_len17h2512e4cd8e93ca69E', symObjAddr: 0x3D2C, symBinAddr: 0x2F4A68, symSize: 0x14 }
  - { offset: 0x26BB8D, size: 0x8, addend: 0x0, symName: '__ZN94_$LT$rustfft..algorithm..butterflies..Butterfly8$LT$T$GT$$u20$as$u20$rustfft..Fft$LT$T$GT$$GT$25get_immutable_scratch_len17h16ea211255b76d3bE', symObjAddr: 0x3D40, symBinAddr: 0x2F4A7C, symSize: 0x14 }
  - { offset: 0x26BBC2, size: 0x8, addend: 0x0, symName: '__ZN94_$LT$rustfft..algorithm..butterflies..Butterfly8$LT$T$GT$$u20$as$u20$rustfft..Fft$LT$T$GT$$GT$26get_outofplace_scratch_len17h68f7cec9e770c5c5E', symObjAddr: 0x3D54, symBinAddr: 0x2F4A90, symSize: 0x14 }
  - { offset: 0x26BBFD, size: 0x8, addend: 0x0, symName: '__ZN94_$LT$rustfft..algorithm..butterflies..Butterfly9$LT$T$GT$$u20$as$u20$rustfft..Fft$LT$T$GT$$GT$23get_inplace_scratch_len17hcd359cec29710b70E', symObjAddr: 0x3D68, symBinAddr: 0x2F4AA4, symSize: 0x14 }
  - { offset: 0x26BC32, size: 0x8, addend: 0x0, symName: '__ZN94_$LT$rustfft..algorithm..butterflies..Butterfly9$LT$T$GT$$u20$as$u20$rustfft..Fft$LT$T$GT$$GT$25get_immutable_scratch_len17h620ff93f51f38272E', symObjAddr: 0x3D7C, symBinAddr: 0x2F4AB8, symSize: 0x14 }
  - { offset: 0x26BC67, size: 0x8, addend: 0x0, symName: '__ZN94_$LT$rustfft..algorithm..butterflies..Butterfly9$LT$T$GT$$u20$as$u20$rustfft..Fft$LT$T$GT$$GT$26get_outofplace_scratch_len17hf997926767a6920fE', symObjAddr: 0x3D90, symBinAddr: 0x2F4ACC, symSize: 0x14 }
  - { offset: 0x26BCA2, size: 0x8, addend: 0x0, symName: '__ZN95_$LT$rustfft..algorithm..butterflies..Butterfly11$LT$T$GT$$u20$as$u20$rustfft..Fft$LT$T$GT$$GT$23get_inplace_scratch_len17hb945d99ee759770eE', symObjAddr: 0x3E34, symBinAddr: 0x2F4B70, symSize: 0x14 }
  - { offset: 0x26BCD7, size: 0x8, addend: 0x0, symName: '__ZN95_$LT$rustfft..algorithm..butterflies..Butterfly11$LT$T$GT$$u20$as$u20$rustfft..Fft$LT$T$GT$$GT$25get_immutable_scratch_len17hd7d3eeeea175de7bE', symObjAddr: 0x3E48, symBinAddr: 0x2F4B84, symSize: 0x14 }
  - { offset: 0x26BD0C, size: 0x8, addend: 0x0, symName: '__ZN95_$LT$rustfft..algorithm..butterflies..Butterfly11$LT$T$GT$$u20$as$u20$rustfft..Fft$LT$T$GT$$GT$26get_outofplace_scratch_len17h1dc82e16446c10baE', symObjAddr: 0x3E5C, symBinAddr: 0x2F4B98, symSize: 0x14 }
  - { offset: 0x26BD47, size: 0x8, addend: 0x0, symName: '__ZN95_$LT$rustfft..algorithm..butterflies..Butterfly12$LT$T$GT$$u20$as$u20$rustfft..Fft$LT$T$GT$$GT$23get_inplace_scratch_len17h594a4befdd7427a5E', symObjAddr: 0x3E70, symBinAddr: 0x2F4BAC, symSize: 0x14 }
  - { offset: 0x26BD7C, size: 0x8, addend: 0x0, symName: '__ZN95_$LT$rustfft..algorithm..butterflies..Butterfly12$LT$T$GT$$u20$as$u20$rustfft..Fft$LT$T$GT$$GT$25get_immutable_scratch_len17h6eaeaee38de64ff8E', symObjAddr: 0x3E84, symBinAddr: 0x2F4BC0, symSize: 0x14 }
  - { offset: 0x26BDB1, size: 0x8, addend: 0x0, symName: '__ZN95_$LT$rustfft..algorithm..butterflies..Butterfly12$LT$T$GT$$u20$as$u20$rustfft..Fft$LT$T$GT$$GT$26get_outofplace_scratch_len17h3ba36e3b912a3361E', symObjAddr: 0x3E98, symBinAddr: 0x2F4BD4, symSize: 0x14 }
  - { offset: 0x26BDEC, size: 0x8, addend: 0x0, symName: '__ZN95_$LT$rustfft..algorithm..butterflies..Butterfly13$LT$T$GT$$u20$as$u20$rustfft..Fft$LT$T$GT$$GT$23get_inplace_scratch_len17h6655d365a4ca39e3E', symObjAddr: 0x3EAC, symBinAddr: 0x2F4BE8, symSize: 0x14 }
  - { offset: 0x26BE21, size: 0x8, addend: 0x0, symName: '__ZN95_$LT$rustfft..algorithm..butterflies..Butterfly13$LT$T$GT$$u20$as$u20$rustfft..Fft$LT$T$GT$$GT$25get_immutable_scratch_len17h3b8a5f65b67879e7E', symObjAddr: 0x3EC0, symBinAddr: 0x2F4BFC, symSize: 0x14 }
  - { offset: 0x26BE56, size: 0x8, addend: 0x0, symName: '__ZN95_$LT$rustfft..algorithm..butterflies..Butterfly13$LT$T$GT$$u20$as$u20$rustfft..Fft$LT$T$GT$$GT$26get_outofplace_scratch_len17h045b959c1e32c9d8E', symObjAddr: 0x3ED4, symBinAddr: 0x2F4C10, symSize: 0x14 }
  - { offset: 0x26BE91, size: 0x8, addend: 0x0, symName: '__ZN95_$LT$rustfft..algorithm..butterflies..Butterfly16$LT$T$GT$$u20$as$u20$rustfft..Fft$LT$T$GT$$GT$23get_inplace_scratch_len17he378524128c128a7E', symObjAddr: 0x3EE8, symBinAddr: 0x2F4C24, symSize: 0x14 }
  - { offset: 0x26BEC6, size: 0x8, addend: 0x0, symName: '__ZN95_$LT$rustfft..algorithm..butterflies..Butterfly16$LT$T$GT$$u20$as$u20$rustfft..Fft$LT$T$GT$$GT$25get_immutable_scratch_len17he65a2c45612a8c3bE', symObjAddr: 0x3EFC, symBinAddr: 0x2F4C38, symSize: 0x14 }
  - { offset: 0x26BEFB, size: 0x8, addend: 0x0, symName: '__ZN95_$LT$rustfft..algorithm..butterflies..Butterfly16$LT$T$GT$$u20$as$u20$rustfft..Fft$LT$T$GT$$GT$26get_outofplace_scratch_len17h164bbb4d1f8d6ff6E', symObjAddr: 0x3F10, symBinAddr: 0x2F4C4C, symSize: 0x14 }
  - { offset: 0x26BF36, size: 0x8, addend: 0x0, symName: '__ZN95_$LT$rustfft..algorithm..butterflies..Butterfly17$LT$T$GT$$u20$as$u20$rustfft..Fft$LT$T$GT$$GT$23get_inplace_scratch_len17hbd7b21f069c7b096E', symObjAddr: 0x3F24, symBinAddr: 0x2F4C60, symSize: 0x14 }
  - { offset: 0x26BF6B, size: 0x8, addend: 0x0, symName: '__ZN95_$LT$rustfft..algorithm..butterflies..Butterfly17$LT$T$GT$$u20$as$u20$rustfft..Fft$LT$T$GT$$GT$25get_immutable_scratch_len17h3ae97db5a15690b1E', symObjAddr: 0x3F38, symBinAddr: 0x2F4C74, symSize: 0x14 }
  - { offset: 0x26BFA0, size: 0x8, addend: 0x0, symName: '__ZN95_$LT$rustfft..algorithm..butterflies..Butterfly17$LT$T$GT$$u20$as$u20$rustfft..Fft$LT$T$GT$$GT$26get_outofplace_scratch_len17h4cf92a229c4130b3E', symObjAddr: 0x3F4C, symBinAddr: 0x2F4C88, symSize: 0x14 }
  - { offset: 0x26BFDB, size: 0x8, addend: 0x0, symName: '__ZN95_$LT$rustfft..algorithm..butterflies..Butterfly19$LT$T$GT$$u20$as$u20$rustfft..Fft$LT$T$GT$$GT$23get_inplace_scratch_len17hf73e71ec6ef98f53E', symObjAddr: 0x3F60, symBinAddr: 0x2F4C9C, symSize: 0x14 }
  - { offset: 0x26C010, size: 0x8, addend: 0x0, symName: '__ZN95_$LT$rustfft..algorithm..butterflies..Butterfly19$LT$T$GT$$u20$as$u20$rustfft..Fft$LT$T$GT$$GT$25get_immutable_scratch_len17h0d0a100af50d7773E', symObjAddr: 0x3F74, symBinAddr: 0x2F4CB0, symSize: 0x14 }
  - { offset: 0x26C045, size: 0x8, addend: 0x0, symName: '__ZN95_$LT$rustfft..algorithm..butterflies..Butterfly19$LT$T$GT$$u20$as$u20$rustfft..Fft$LT$T$GT$$GT$26get_outofplace_scratch_len17hc2719e32de01a2f3E', symObjAddr: 0x3F88, symBinAddr: 0x2F4CC4, symSize: 0x14 }
  - { offset: 0x26C080, size: 0x8, addend: 0x0, symName: '__ZN95_$LT$rustfft..algorithm..butterflies..Butterfly23$LT$T$GT$$u20$as$u20$rustfft..Fft$LT$T$GT$$GT$23get_inplace_scratch_len17hfbdebe50ff5875e8E', symObjAddr: 0x3F9C, symBinAddr: 0x2F4CD8, symSize: 0x14 }
  - { offset: 0x26C0B5, size: 0x8, addend: 0x0, symName: '__ZN95_$LT$rustfft..algorithm..butterflies..Butterfly23$LT$T$GT$$u20$as$u20$rustfft..Fft$LT$T$GT$$GT$25get_immutable_scratch_len17h49bbff0559d782cdE', symObjAddr: 0x3FB0, symBinAddr: 0x2F4CEC, symSize: 0x14 }
  - { offset: 0x26C0EA, size: 0x8, addend: 0x0, symName: '__ZN95_$LT$rustfft..algorithm..butterflies..Butterfly23$LT$T$GT$$u20$as$u20$rustfft..Fft$LT$T$GT$$GT$26get_outofplace_scratch_len17hfa1912b7e7ee72ecE', symObjAddr: 0x3FC4, symBinAddr: 0x2F4D00, symSize: 0x14 }
  - { offset: 0x26C125, size: 0x8, addend: 0x0, symName: '__ZN95_$LT$rustfft..algorithm..butterflies..Butterfly24$LT$T$GT$$u20$as$u20$rustfft..Fft$LT$T$GT$$GT$23get_inplace_scratch_len17h4723091e8ca78a84E', symObjAddr: 0x3FD8, symBinAddr: 0x2F4D14, symSize: 0x14 }
  - { offset: 0x26C15A, size: 0x8, addend: 0x0, symName: '__ZN95_$LT$rustfft..algorithm..butterflies..Butterfly24$LT$T$GT$$u20$as$u20$rustfft..Fft$LT$T$GT$$GT$25get_immutable_scratch_len17h4c4cd0a27f20ee60E', symObjAddr: 0x3FEC, symBinAddr: 0x2F4D28, symSize: 0x14 }
  - { offset: 0x26C18F, size: 0x8, addend: 0x0, symName: '__ZN95_$LT$rustfft..algorithm..butterflies..Butterfly24$LT$T$GT$$u20$as$u20$rustfft..Fft$LT$T$GT$$GT$26get_outofplace_scratch_len17h1f77213075b264e9E', symObjAddr: 0x4000, symBinAddr: 0x2F4D3C, symSize: 0x14 }
  - { offset: 0x26C1CA, size: 0x8, addend: 0x0, symName: '__ZN95_$LT$rustfft..algorithm..butterflies..Butterfly27$LT$T$GT$$u20$as$u20$rustfft..Fft$LT$T$GT$$GT$23get_inplace_scratch_len17h3f725e58fc5fc7d2E', symObjAddr: 0x4014, symBinAddr: 0x2F4D50, symSize: 0x14 }
  - { offset: 0x26C1FF, size: 0x8, addend: 0x0, symName: '__ZN95_$LT$rustfft..algorithm..butterflies..Butterfly27$LT$T$GT$$u20$as$u20$rustfft..Fft$LT$T$GT$$GT$25get_immutable_scratch_len17hff8285228a162b2eE', symObjAddr: 0x4028, symBinAddr: 0x2F4D64, symSize: 0x14 }
  - { offset: 0x26C234, size: 0x8, addend: 0x0, symName: '__ZN95_$LT$rustfft..algorithm..butterflies..Butterfly27$LT$T$GT$$u20$as$u20$rustfft..Fft$LT$T$GT$$GT$26get_outofplace_scratch_len17h6f4e170ceff7f92eE', symObjAddr: 0x403C, symBinAddr: 0x2F4D78, symSize: 0x14 }
  - { offset: 0x26C26F, size: 0x8, addend: 0x0, symName: '__ZN95_$LT$rustfft..algorithm..butterflies..Butterfly29$LT$T$GT$$u20$as$u20$rustfft..Fft$LT$T$GT$$GT$23get_inplace_scratch_len17h1da20ddc85462d3fE', symObjAddr: 0x4050, symBinAddr: 0x2F4D8C, symSize: 0x14 }
  - { offset: 0x26C2A4, size: 0x8, addend: 0x0, symName: '__ZN95_$LT$rustfft..algorithm..butterflies..Butterfly29$LT$T$GT$$u20$as$u20$rustfft..Fft$LT$T$GT$$GT$25get_immutable_scratch_len17h29f9461a42bbe745E', symObjAddr: 0x4064, symBinAddr: 0x2F4DA0, symSize: 0x14 }
  - { offset: 0x26C2D9, size: 0x8, addend: 0x0, symName: '__ZN95_$LT$rustfft..algorithm..butterflies..Butterfly29$LT$T$GT$$u20$as$u20$rustfft..Fft$LT$T$GT$$GT$26get_outofplace_scratch_len17hf8c6e43927eb06e4E', symObjAddr: 0x4078, symBinAddr: 0x2F4DB4, symSize: 0x14 }
  - { offset: 0x26C314, size: 0x8, addend: 0x0, symName: '__ZN95_$LT$rustfft..algorithm..butterflies..Butterfly31$LT$T$GT$$u20$as$u20$rustfft..Fft$LT$T$GT$$GT$23get_inplace_scratch_len17h97c8e9c4ed580983E', symObjAddr: 0x408C, symBinAddr: 0x2F4DC8, symSize: 0x14 }
  - { offset: 0x26C349, size: 0x8, addend: 0x0, symName: '__ZN95_$LT$rustfft..algorithm..butterflies..Butterfly31$LT$T$GT$$u20$as$u20$rustfft..Fft$LT$T$GT$$GT$25get_immutable_scratch_len17he183a4356d175077E', symObjAddr: 0x40A0, symBinAddr: 0x2F4DDC, symSize: 0x14 }
  - { offset: 0x26C37E, size: 0x8, addend: 0x0, symName: '__ZN95_$LT$rustfft..algorithm..butterflies..Butterfly31$LT$T$GT$$u20$as$u20$rustfft..Fft$LT$T$GT$$GT$26get_outofplace_scratch_len17ha9db246a7a309e86E', symObjAddr: 0x40B4, symBinAddr: 0x2F4DF0, symSize: 0x14 }
  - { offset: 0x26C3B9, size: 0x8, addend: 0x0, symName: '__ZN95_$LT$rustfft..algorithm..butterflies..Butterfly32$LT$T$GT$$u20$as$u20$rustfft..Fft$LT$T$GT$$GT$23get_inplace_scratch_len17h0ba13a6e3fd481ddE', symObjAddr: 0x40C8, symBinAddr: 0x2F4E04, symSize: 0x14 }
  - { offset: 0x26C3EE, size: 0x8, addend: 0x0, symName: '__ZN95_$LT$rustfft..algorithm..butterflies..Butterfly32$LT$T$GT$$u20$as$u20$rustfft..Fft$LT$T$GT$$GT$25get_immutable_scratch_len17h2e568c7bd6c152bfE', symObjAddr: 0x40DC, symBinAddr: 0x2F4E18, symSize: 0x14 }
  - { offset: 0x26C423, size: 0x8, addend: 0x0, symName: '__ZN95_$LT$rustfft..algorithm..butterflies..Butterfly32$LT$T$GT$$u20$as$u20$rustfft..Fft$LT$T$GT$$GT$26get_outofplace_scratch_len17h66b883090bf1a38cE', symObjAddr: 0x40F0, symBinAddr: 0x2F4E2C, symSize: 0x14 }
  - { offset: 0x26C4D6, size: 0x8, addend: 0x0, symName: '__ZN79_$LT$rustfft..algorithm..radix4..Radix4$LT$T$GT$$u20$as$u20$rustfft..Length$GT$3len17h77a9fa5129f36d22E', symObjAddr: 0x3F8, symBinAddr: 0x2F1134, symSize: 0x30 }
  - { offset: 0x26C511, size: 0x8, addend: 0x0, symName: '__ZN82_$LT$rustfft..algorithm..radix4..Radix4$LT$T$GT$$u20$as$u20$rustfft..Direction$GT$13fft_direction17h139f349b7d695d7aE', symObjAddr: 0x3498, symBinAddr: 0x2F41D4, symSize: 0x1C }
  - { offset: 0x26C54C, size: 0x8, addend: 0x0, symName: '__ZN85_$LT$rustfft..algorithm..radix4..Radix4$LT$T$GT$$u20$as$u20$rustfft..Fft$LT$T$GT$$GT$23get_inplace_scratch_len17h3e22629d2432f307E', symObjAddr: 0x34D0, symBinAddr: 0x2F420C, symSize: 0x24 }
  - { offset: 0x26C581, size: 0x8, addend: 0x0, symName: '__ZN85_$LT$rustfft..algorithm..radix4..Radix4$LT$T$GT$$u20$as$u20$rustfft..Fft$LT$T$GT$$GT$25get_immutable_scratch_len17hd8e282f0d42a9271E', symObjAddr: 0x34F4, symBinAddr: 0x2F4230, symSize: 0x24 }
  - { offset: 0x26C5B6, size: 0x8, addend: 0x0, symName: '__ZN85_$LT$rustfft..algorithm..radix4..Radix4$LT$T$GT$$u20$as$u20$rustfft..Fft$LT$T$GT$$GT$26get_outofplace_scratch_len17h64670086b661ba6aE', symObjAddr: 0x3518, symBinAddr: 0x2F4254, symSize: 0x24 }
  - { offset: 0x26CD08, size: 0x8, addend: 0x0, symName: '__ZN7rustfft4plan25FftPlannerScalar$LT$T$GT$12design_prime28_$u7b$$u7b$closure$u7d$$u7d$17h0a533c45eef1b6b2E', symObjAddr: 0xA30, symBinAddr: 0x2F176C, symSize: 0x24 }
  - { offset: 0x26CD57, size: 0x8, addend: 0x0, symName: '__ZN7rustfft4plan25FftPlannerScalar$LT$T$GT$13design_radixn28_$u7b$$u7b$closure$u7d$$u7d$17h1a427b11b20e8981E', symObjAddr: 0x23CC, symBinAddr: 0x2F3108, symSize: 0x54 }
  - { offset: 0x26CD99, size: 0x8, addend: 0x0, symName: '__ZN7rustfft4plan25FftPlannerScalar$LT$T$GT$13design_radixn28_$u7b$$u7b$closure$u7d$$u7d$17heb0d39a8a9c9dd9cE', symObjAddr: 0x2420, symBinAddr: 0x2F315C, symSize: 0x54 }
  - { offset: 0x26CDEF, size: 0x8, addend: 0x0, symName: '__ZN7rustfft4plan25FftPlannerScalar$LT$T$GT$24design_butterfly_product28_$u7b$$u7b$closure$u7d$$u7d$17h624e54d789d2c49cE', symObjAddr: 0x2E30, symBinAddr: 0x2F3B6C, symSize: 0x34 }
  - { offset: 0x26CE38, size: 0x8, addend: 0x0, symName: '__ZN7rustfft4plan25FftPlannerScalar$LT$T$GT$24design_butterfly_product28_$u7b$$u7b$closure$u7d$$u7d$17h7a65b42977bb2830E', symObjAddr: 0x2E64, symBinAddr: 0x2F3BA0, symSize: 0x1D0 }
  - { offset: 0x26E11B, size: 0x8, addend: 0x0, symName: '__ZN7rustfft4plan19FftPlanner$LT$T$GT$16plan_fft_forward17hcdf209e6d154b477E', symObjAddr: 0x458, symBinAddr: 0x2F1194, symSize: 0x30 }
  - { offset: 0x26E154, size: 0x8, addend: 0x0, symName: '__ZN7rustfft4plan19FftPlanner$LT$T$GT$3new17h7119ef6c53ac823eE', symObjAddr: 0x488, symBinAddr: 0x2F11C4, symSize: 0x164 }
  - { offset: 0x26E1C6, size: 0x8, addend: 0x0, symName: '__ZN7rustfft4plan19FftPlanner$LT$T$GT$8plan_fft17h1ea9e5a0e5890299E', symObjAddr: 0x5EC, symBinAddr: 0x2F1328, symSize: 0x148 }
  - { offset: 0x26E328, size: 0x8, addend: 0x0, symName: '__ZN7rustfft4plan25FftPlannerScalar$LT$T$GT$12design_prime17h158cd69c0a2b1e64E', symObjAddr: 0x734, symBinAddr: 0x2F1470, symSize: 0x2FC }
  - { offset: 0x26E56F, size: 0x8, addend: 0x0, symName: '__ZN7rustfft4plan25FftPlannerScalar$LT$T$GT$13build_new_fft17ha6df264483d38e3aE', symObjAddr: 0xA54, symBinAddr: 0x2F1790, symSize: 0x1088 }
  - { offset: 0x26EACF, size: 0x8, addend: 0x0, symName: '__ZN7rustfft4plan25FftPlannerScalar$LT$T$GT$13design_radixn17h03d0083713cac305E', symObjAddr: 0x1ADC, symBinAddr: 0x2F2818, symSize: 0x8F0 }
  - { offset: 0x26ED15, size: 0x8, addend: 0x0, symName: '__ZN7rustfft4plan25FftPlannerScalar$LT$T$GT$18design_fft_for_len17h2a8041a653cd358bE', symObjAddr: 0x2474, symBinAddr: 0x2F31B0, symSize: 0x160 }
  - { offset: 0x26EDCF, size: 0x8, addend: 0x0, symName: '__ZN7rustfft4plan25FftPlannerScalar$LT$T$GT$18design_mixed_radix17h403b62b84e5984b9E', symObjAddr: 0x25D4, symBinAddr: 0x2F3310, symSize: 0x2F0 }
  - { offset: 0x26EE9C, size: 0x8, addend: 0x0, symName: '__ZN7rustfft4plan25FftPlannerScalar$LT$T$GT$23design_fft_with_factors17hd0811ff26eab4b67E', symObjAddr: 0x28C4, symBinAddr: 0x2F3600, symSize: 0x2C4 }
  - { offset: 0x26EF3B, size: 0x8, addend: 0x0, symName: '__ZN7rustfft4plan25FftPlannerScalar$LT$T$GT$24design_butterfly_product17hbb8597810327d1d8E', symObjAddr: 0x2B88, symBinAddr: 0x2F38C4, symSize: 0x2A8 }
  - { offset: 0x26F070, size: 0x8, addend: 0x0, symName: '__ZN7rustfft4plan25FftPlannerScalar$LT$T$GT$26design_butterfly_algorithm17h3a49f3f1448193b4E', symObjAddr: 0x3034, symBinAddr: 0x2F3D70, symSize: 0x240 }
  - { offset: 0x26F0AB, size: 0x8, addend: 0x0, symName: '__ZN7rustfft4plan25FftPlannerScalar$LT$T$GT$3new17he032a3470dc8dbafE', symObjAddr: 0x3274, symBinAddr: 0x2F3FB0, symSize: 0x84 }
  - { offset: 0x26F0C8, size: 0x8, addend: 0x0, symName: '__ZN7rustfft4plan25FftPlannerScalar$LT$T$GT$8plan_fft17hfe2b3bbd317339f1E', symObjAddr: 0x32F8, symBinAddr: 0x2F4034, symSize: 0xA0 }
  - { offset: 0x26F128, size: 0x8, addend: 0x0, symName: '__ZN7rustfft4plan25FftPlannerScalar$LT$T$GT$9build_fft17h5d42925f10018f2eE', symObjAddr: 0x3398, symBinAddr: 0x2F40D4, symSize: 0x100 }
  - { offset: 0x26F435, size: 0x8, addend: 0x0, symName: __ZN5nifti6object13ReaderOptions9read_file17ha13062903cea1a8dE, symObjAddr: 0x0, symBinAddr: 0x2F4F1C, symSize: 0x3C0 }
  - { offset: 0x26F728, size: 0x8, addend: 0x0, symName: '__ZN5nifti6object27GenericNiftiObject$LT$V$GT$14from_file_impl28_$u7b$$u7b$closure$u7d$$u7d$17h135d2d345f1ab22eE', symObjAddr: 0x1368, symBinAddr: 0x2F6284, symSize: 0xAC }
  - { offset: 0x26F79B, size: 0x8, addend: 0x0, symName: '__ZN5nifti6object27GenericNiftiObject$LT$V$GT$14from_file_impl28_$u7b$$u7b$closure$u7d$$u7d$17h29066381dab93f88E', symObjAddr: 0x1414, symBinAddr: 0x2F6330, symSize: 0x234 }
  - { offset: 0x26F894, size: 0x8, addend: 0x0, symName: '__ZN5nifti6object27GenericNiftiObject$LT$V$GT$14from_file_impl28_$u7b$$u7b$closure$u7d$$u7d$17h6f60b660315e6121E', symObjAddr: 0x1648, symBinAddr: 0x2F6564, symSize: 0x234 }
  - { offset: 0x26F98D, size: 0x8, addend: 0x0, symName: '__ZN5nifti6object27GenericNiftiObject$LT$V$GT$14from_file_impl28_$u7b$$u7b$closure$u7d$$u7d$17h8fc2b7510ef48e18E', symObjAddr: 0x187C, symBinAddr: 0x2F6798, symSize: 0xAC }
  - { offset: 0x26FA15, size: 0x8, addend: 0x0, symName: '__ZN89_$LT$nifti..object..GenericNiftiObject$LT$V$GT$$u20$as$u20$nifti..object..NiftiObject$GT$11into_volume17h1776acdc02a63c78E', symObjAddr: 0x1FA8, symBinAddr: 0x2F6EC4, symSize: 0x7C }
  - { offset: 0x26FA4D, size: 0x8, addend: 0x0, symName: '__ZN89_$LT$nifti..object..GenericNiftiObject$LT$V$GT$$u20$as$u20$nifti..object..NiftiObject$GT$6header17h11587d2fb842c864E', symObjAddr: 0x2024, symBinAddr: 0x2F6F40, symSize: 0x14 }
  - { offset: 0x2711D9, size: 0x8, addend: 0x0, symName: __ZN5nifti6object13ReaderOptions9read_file17ha13062903cea1a8dE, symObjAddr: 0x0, symBinAddr: 0x2F4F1C, symSize: 0x3C0 }
  - { offset: 0x2712D8, size: 0x8, addend: 0x0, symName: '__ZN5nifti6object27GenericNiftiObject$LT$V$GT$14from_file_impl17h319abb99a332f445E', symObjAddr: 0x3C0, symBinAddr: 0x2F52DC, symSize: 0x7D4 }
  - { offset: 0x271A99, size: 0x8, addend: 0x0, symName: '__ZN5nifti6object27GenericNiftiObject$LT$V$GT$14from_file_impl17hf0f7f9504117f6c7E', symObjAddr: 0xB94, symBinAddr: 0x2F5AB0, symSize: 0x7D4 }
  - { offset: 0x271D45, size: 0x8, addend: 0x0, symName: '__ZN5nifti6object27GenericNiftiObject$LT$V$GT$25from_file_with_extensions17ha6c0053758ae52c9E', symObjAddr: 0x1928, symBinAddr: 0x2F6844, symSize: 0x188 }
  - { offset: 0x271E02, size: 0x8, addend: 0x0, symName: '__ZN5nifti6object27GenericNiftiObject$LT$V$GT$25from_file_with_extensions17hb9ca51b30630cb78E', symObjAddr: 0x1AB0, symBinAddr: 0x2F69CC, symSize: 0x198 }
  - { offset: 0x271F4D, size: 0x8, addend: 0x0, symName: '__ZN5nifti6object27GenericNiftiObject$LT$V$GT$27from_reader_with_extensions17hfbbaa02e6a4c763dE', symObjAddr: 0x1C48, symBinAddr: 0x2F6B64, symSize: 0x360 }
  - { offset: 0x2720D0, size: 0x8, addend: 0x0, symName: __ZN4core5slice20copy_from_slice_impl17h1953f2c123397eb1E, symObjAddr: 0x0, symBinAddr: 0x2F6F54, symSize: 0xB0 }
  - { offset: 0x27295F, size: 0x8, addend: 0x0, symName: '__ZN4core5slice29_$LT$impl$u20$$u5b$T$u5d$$GT$10chunks_mut17h93eec32ccee33e6dE', symObjAddr: 0x15C, symBinAddr: 0x2F70B0, symSize: 0x84 }
  - { offset: 0x2729CB, size: 0x8, addend: 0x0, symName: '__ZN4core5slice29_$LT$impl$u20$$u5b$T$u5d$$GT$12chunks_exact17haa04ee5afd23b370E', symObjAddr: 0x1E0, symBinAddr: 0x2F7134, symSize: 0xF0 }
  - { offset: 0x272ABC, size: 0x8, addend: 0x0, symName: '__ZN4core5slice29_$LT$impl$u20$$u5b$T$u5d$$GT$12split_at_mut17h455993903a17c1c6E', symObjAddr: 0x2D0, symBinAddr: 0x2F7224, symSize: 0xAC }
  - { offset: 0x272B53, size: 0x8, addend: 0x0, symName: '__ZN4core5slice29_$LT$impl$u20$$u5b$T$u5d$$GT$12split_at_mut17h482bd6ba62b33126E', symObjAddr: 0x37C, symBinAddr: 0x2F72D0, symSize: 0xAC }
  - { offset: 0x272BEA, size: 0x8, addend: 0x0, symName: '__ZN4core5slice29_$LT$impl$u20$$u5b$T$u5d$$GT$12split_at_mut17hd56fbe5d8dc9b127E', symObjAddr: 0x428, symBinAddr: 0x2F737C, symSize: 0xAC }
  - { offset: 0x272C81, size: 0x8, addend: 0x0, symName: '__ZN4core5slice29_$LT$impl$u20$$u5b$T$u5d$$GT$12split_at_mut17heb7f9d95dc0c310aE', symObjAddr: 0x4D4, symBinAddr: 0x2F7428, symSize: 0xAC }
  - { offset: 0x272CE5, size: 0x8, addend: 0x0, symName: '__ZN4core5slice29_$LT$impl$u20$$u5b$T$u5d$$GT$13get_unchecked17hfd749d07841138deE', symObjAddr: 0x580, symBinAddr: 0x2F74D4, symSize: 0x44 }
  - { offset: 0x272D34, size: 0x8, addend: 0x0, symName: '__ZN4core5slice29_$LT$impl$u20$$u5b$T$u5d$$GT$17get_unchecked_mut17h64d471ae06f57fa9E', symObjAddr: 0x5C4, symBinAddr: 0x2F7518, symSize: 0x44 }
  - { offset: 0x272DAA, size: 0x8, addend: 0x0, symName: '__ZN4core5slice29_$LT$impl$u20$$u5b$T$u5d$$GT$18split_at_unchecked17h76b2fe16a0d82401E', symObjAddr: 0x608, symBinAddr: 0x2F755C, symSize: 0xE8 }
  - { offset: 0x272F2B, size: 0x8, addend: 0x0, symName: '__ZN4core5slice29_$LT$impl$u20$$u5b$T$u5d$$GT$22split_at_mut_unchecked17h05276997e8a37a4cE', symObjAddr: 0x6F0, symBinAddr: 0x2F7644, symSize: 0xF4 }
  - { offset: 0x2730A6, size: 0x8, addend: 0x0, symName: '__ZN4core5slice29_$LT$impl$u20$$u5b$T$u5d$$GT$22split_at_mut_unchecked17ha5d49bd297af5c9eE', symObjAddr: 0x7E4, symBinAddr: 0x2F7738, symSize: 0xF4 }
  - { offset: 0x273221, size: 0x8, addend: 0x0, symName: '__ZN4core5slice29_$LT$impl$u20$$u5b$T$u5d$$GT$22split_at_mut_unchecked17haecea02c5124a95cE', symObjAddr: 0x8D8, symBinAddr: 0x2F782C, symSize: 0x104 }
  - { offset: 0x27339C, size: 0x8, addend: 0x0, symName: '__ZN4core5slice29_$LT$impl$u20$$u5b$T$u5d$$GT$22split_at_mut_unchecked17hbe998b0e57ac8a1bE', symObjAddr: 0x9DC, symBinAddr: 0x2F7930, symSize: 0xF4 }
  - { offset: 0x2734F0, size: 0x8, addend: 0x0, symName: '__ZN4core5slice29_$LT$impl$u20$$u5b$T$u5d$$GT$4iter17h188be4b83a0fdc09E', symObjAddr: 0xAD0, symBinAddr: 0x2F7A24, symSize: 0x28 }
  - { offset: 0x273527, size: 0x8, addend: 0x0, symName: '__ZN4core5slice29_$LT$impl$u20$$u5b$T$u5d$$GT$4iter17ha2b9a231ca4993a1E', symObjAddr: 0xAF8, symBinAddr: 0x2F7A4C, symSize: 0x28 }
  - { offset: 0x27355E, size: 0x8, addend: 0x0, symName: '__ZN4core5slice29_$LT$impl$u20$$u5b$T$u5d$$GT$4iter17hc8479ae984c4d008E', symObjAddr: 0xB20, symBinAddr: 0x2F7A74, symSize: 0x28 }
  - { offset: 0x273595, size: 0x8, addend: 0x0, symName: '__ZN4core5slice29_$LT$impl$u20$$u5b$T$u5d$$GT$4iter17hd11f188992ada180E', symObjAddr: 0xB48, symBinAddr: 0x2F7A9C, symSize: 0x28 }
  - { offset: 0x2735CC, size: 0x8, addend: 0x0, symName: '__ZN4core5slice29_$LT$impl$u20$$u5b$T$u5d$$GT$4swap17he7553817584d3d7aE', symObjAddr: 0xB70, symBinAddr: 0x2F7AC4, symSize: 0xA8 }
  - { offset: 0x273651, size: 0x8, addend: 0x0, symName: '__ZN4core5slice29_$LT$impl$u20$$u5b$T$u5d$$GT$7get_mut17h0a55454016de26b4E', symObjAddr: 0xC18, symBinAddr: 0x2F7B6C, symSize: 0x48 }
  - { offset: 0x2736EE, size: 0x8, addend: 0x0, symName: '__ZN4core5slice29_$LT$impl$u20$$u5b$T$u5d$$GT$7reverse17h97ffe90a5efbeecbE', symObjAddr: 0xC60, symBinAddr: 0x2F7BB4, symSize: 0x10C }
  - { offset: 0x2738CC, size: 0x8, addend: 0x0, symName: '__ZN4core5slice29_$LT$impl$u20$$u5b$T$u5d$$GT$7reverse17hc83d2d6caefb1209E', symObjAddr: 0xD6C, symBinAddr: 0x2F7CC0, symSize: 0x10C }
  - { offset: 0x273AAA, size: 0x8, addend: 0x0, symName: '__ZN4core5slice29_$LT$impl$u20$$u5b$T$u5d$$GT$7reverse17hd9ebb539d84c318dE', symObjAddr: 0xE78, symBinAddr: 0x2F7DCC, symSize: 0x118 }
  - { offset: 0x273C3F, size: 0x8, addend: 0x0, symName: '__ZN4core5slice29_$LT$impl$u20$$u5b$T$u5d$$GT$7reverse7revswap17h1e3f67139f972afbE', symObjAddr: 0xF90, symBinAddr: 0x2F7EE4, symSize: 0x17C }
  - { offset: 0x273CFC, size: 0x8, addend: 0x0, symName: '__ZN4core5slice29_$LT$impl$u20$$u5b$T$u5d$$GT$7reverse7revswap17had105d84bedde787E', symObjAddr: 0x110C, symBinAddr: 0x2F8060, symSize: 0x17C }
  - { offset: 0x273DB9, size: 0x8, addend: 0x0, symName: '__ZN4core5slice29_$LT$impl$u20$$u5b$T$u5d$$GT$7reverse7revswap17hf3e88186143ae59bE', symObjAddr: 0x1288, symBinAddr: 0x2F81DC, symSize: 0x1AC }
  - { offset: 0x273E79, size: 0x8, addend: 0x0, symName: '__ZN4core5slice29_$LT$impl$u20$$u5b$T$u5d$$GT$7windows17hfc475ae2e7232795E', symObjAddr: 0x1434, symBinAddr: 0x2F8388, symSize: 0x98 }
  - { offset: 0x273F3F, size: 0x8, addend: 0x0, symName: '__ZN4core5slice29_$LT$impl$u20$$u5b$T$u5d$$GT$8contains17h2354947f73b0cd70E', symObjAddr: 0x14CC, symBinAddr: 0x2F8420, symSize: 0x48 }
  - { offset: 0x273F85, size: 0x8, addend: 0x0, symName: '__ZN4core5slice29_$LT$impl$u20$$u5b$T$u5d$$GT$8is_empty17h3e51a3bb15d09269E', symObjAddr: 0x1514, symBinAddr: 0x2F8468, symSize: 0x1C }
  - { offset: 0x273FBA, size: 0x8, addend: 0x0, symName: '__ZN4core5slice29_$LT$impl$u20$$u5b$T$u5d$$GT$8iter_mut17h98e2d35217c9a59aE', symObjAddr: 0x1530, symBinAddr: 0x2F8484, symSize: 0x28 }
  - { offset: 0x273FF1, size: 0x8, addend: 0x0, symName: '__ZN4core5slice29_$LT$impl$u20$$u5b$T$u5d$$GT$8iter_mut17hcbd30366609ba938E', symObjAddr: 0x1558, symBinAddr: 0x2F84AC, symSize: 0x28 }
  - { offset: 0x274028, size: 0x8, addend: 0x0, symName: '__ZN4core5slice29_$LT$impl$u20$$u5b$T$u5d$$GT$8iter_mut17hed93f8e47c637965E', symObjAddr: 0x1580, symBinAddr: 0x2F84D4, symSize: 0x28 }
  - { offset: 0x274092, size: 0x8, addend: 0x0, symName: '__ZN4core5slice29_$LT$impl$u20$$u5b$T$u5d$$GT$8split_at17h199ad8ff6f27006eE', symObjAddr: 0x15A8, symBinAddr: 0x2F84FC, symSize: 0xAC }
  - { offset: 0x2740F7, size: 0x8, addend: 0x0, symName: __ZN4core5slice20copy_from_slice_impl17h1953f2c123397eb1E, symObjAddr: 0x0, symBinAddr: 0x2F6F54, symSize: 0xB0 }
  - { offset: 0x27419B, size: 0x8, addend: 0x0, symName: __ZN4core5slice20copy_from_slice_impl17h98ad37e7642d382eE, symObjAddr: 0xB0, symBinAddr: 0x2F7004, symSize: 0xAC }
  - { offset: 0x276743, size: 0x8, addend: 0x0, symName: '__ZN9jvol_rust6python16read_nifti_array28_$u7b$$u7b$closure$u7d$$u7d$17h09d9b0cd6bfa8226E', symObjAddr: 0x0, symBinAddr: 0x2F85A8, symSize: 0x78 }
  - { offset: 0x277F7C, size: 0x8, addend: 0x0, symName: '__ZN9jvol_rust6python16read_nifti_array28_$u7b$$u7b$closure$u7d$$u7d$17h09d9b0cd6bfa8226E', symObjAddr: 0x0, symBinAddr: 0x2F85A8, symSize: 0x78 }
  - { offset: 0x277FB2, size: 0x8, addend: 0x0, symName: '__ZN9jvol_rust6python16read_nifti_array28_$u7b$$u7b$closure$u7d$$u7d$17h6f74b89dc57c07daE', symObjAddr: 0x78, symBinAddr: 0x2F8620, symSize: 0x40 }
  - { offset: 0x277FFC, size: 0x8, addend: 0x0, symName: '__ZN9jvol_rust6python19__pyfunction_encode28_$u7b$$u7b$closure$u7d$$u7d$17h0f14d25374bcd271E', symObjAddr: 0xB8, symBinAddr: 0x2F8660, symSize: 0x14 }
  - { offset: 0x278024, size: 0x8, addend: 0x0, symName: '__ZN9jvol_rust6python19__pyfunction_encode28_$u7b$$u7b$closure$u7d$$u7d$17h12f5260b6f6fe7baE', symObjAddr: 0xCC, symBinAddr: 0x2F8674, symSize: 0x18 }
  - { offset: 0x278060, size: 0x8, addend: 0x0, symName: '__ZN9jvol_rust6python21decode_bytes_to_array28_$u7b$$u7b$closure$u7d$$u7d$17ha022025864dfb4f2E', symObjAddr: 0xE4, symBinAddr: 0x2F868C, symSize: 0x74 }
  - { offset: 0x278096, size: 0x8, addend: 0x0, symName: '__ZN9jvol_rust6python21decode_bytes_to_array28_$u7b$$u7b$closure$u7d$$u7d$17hba96b04e361bc104E', symObjAddr: 0x158, symBinAddr: 0x2F8700, symSize: 0x74 }
  - { offset: 0x2780CC, size: 0x8, addend: 0x0, symName: '__ZN9jvol_rust6python21decode_bytes_to_array28_$u7b$$u7b$closure$u7d$$u7d$17hcf6dacb898b27e84E', symObjAddr: 0x1CC, symBinAddr: 0x2F8774, symSize: 0x40 }
  - { offset: 0x27811D, size: 0x8, addend: 0x0, symName: '__ZN9jvol_rust6python21encode_array_to_bytes28_$u7b$$u7b$closure$u7d$$u7d$17h15176cd85b161655E', symObjAddr: 0x20C, symBinAddr: 0x2F87B4, symSize: 0x74 }
  - { offset: 0x278153, size: 0x8, addend: 0x0, symName: '__ZN9jvol_rust6python21encode_array_to_bytes28_$u7b$$u7b$closure$u7d$$u7d$17h97d130cb0c250988E', symObjAddr: 0x280, symBinAddr: 0x2F8828, symSize: 0x74 }
  - { offset: 0x278189, size: 0x8, addend: 0x0, symName: '__ZN9jvol_rust6python21encode_array_to_bytes28_$u7b$$u7b$closure$u7d$$u7d$17hff09544cc96855eeE', symObjAddr: 0x2F4, symBinAddr: 0x2F889C, symSize: 0x74 }
  - { offset: 0x2781DA, size: 0x8, addend: 0x0, symName: '__ZN9jvol_rust6python34__pyfunction_encode_array_to_bytes28_$u7b$$u7b$closure$u7d$$u7d$17h20c5026e7b4d7d1bE', symObjAddr: 0x368, symBinAddr: 0x2F8910, symSize: 0x18 }
  - { offset: 0x278202, size: 0x8, addend: 0x0, symName: '__ZN9jvol_rust6python34__pyfunction_encode_array_to_bytes28_$u7b$$u7b$closure$u7d$$u7d$17hbb13082614b68e44E', symObjAddr: 0x380, symBinAddr: 0x2F8928, symSize: 0x14 }
  - { offset: 0x27823E, size: 0x8, addend: 0x0, symName: '__ZN9jvol_rust6python6decode28_$u7b$$u7b$closure$u7d$$u7d$17h3ec03434dce064faE', symObjAddr: 0x394, symBinAddr: 0x2F893C, symSize: 0x78 }
  - { offset: 0x278281, size: 0x8, addend: 0x0, symName: '__ZN9jvol_rust6python6encode28_$u7b$$u7b$closure$u7d$$u7d$17hbf169e73814ea2c7E', symObjAddr: 0x40C, symBinAddr: 0x2F89B4, symSize: 0x78 }
  - { offset: 0x278C73, size: 0x8, addend: 0x0, symName: __ZN7ndarray9itertools3zip17h18fbb0cf4cb1bbd9E, symObjAddr: 0x0, symBinAddr: 0x2F8A2C, symSize: 0x9C }
  - { offset: 0x27A1B4, size: 0x8, addend: 0x0, symName: __ZN7ndarray9itertools3zip17h18fbb0cf4cb1bbd9E, symObjAddr: 0x0, symBinAddr: 0x2F8A2C, symSize: 0x9C }
  - { offset: 0x27A200, size: 0x8, addend: 0x0, symName: __ZN7ndarray9itertools9enumerate17h2a58956177041c71E, symObjAddr: 0x9C, symBinAddr: 0x2F8AC8, symSize: 0x34 }
  - { offset: 0x27A24B, size: 0x8, addend: 0x0, symName: '__ZN9jvol_rust6python10_jvol_rust11__pyo3_init28_$u7b$$u7b$closure$u7d$$u7d$17h5ef8c54fcb6780a2E', symObjAddr: 0xD0, symBinAddr: 0x2F8AFC, symSize: 0x30 }
  - { offset: 0x27ABCA, size: 0x8, addend: 0x0, symName: __ZN4core9ub_checks23maybe_is_nonoverlapping7runtime17heaf87c12ea77da8fE, symObjAddr: 0x0, symBinAddr: 0x2F8B2C, symSize: 0xD8 }
  - { offset: 0x27AD4F, size: 0x8, addend: 0x0, symName: __ZN4core9ub_checks23maybe_is_nonoverlapping7runtime17heaf87c12ea77da8fE, symObjAddr: 0x0, symBinAddr: 0x2F8B2C, symSize: 0xD8 }
  - { offset: 0x27AF62, size: 0x8, addend: 0x0, symName: '__ZN61_$LT$nifti..error..NiftiError$u20$as$u20$core..fmt..Debug$GT$3fmt17h0773b7f0ab42a4f3E', symObjAddr: 0x0, symBinAddr: 0x2F8C04, symSize: 0x3EC }
  - { offset: 0x27B920, size: 0x8, addend: 0x0, symName: '__ZN61_$LT$nifti..error..NiftiError$u20$as$u20$core..fmt..Debug$GT$3fmt17h0773b7f0ab42a4f3E', symObjAddr: 0x0, symBinAddr: 0x2F8C04, symSize: 0x3EC }
  - { offset: 0x27BE49, size: 0x8, addend: 0x0, symName: '__ZN102_$LT$rayon..iter..extend..ListVecFolder$LT$T$GT$$u20$as$u20$rayon..iter..plumbing..Folder$LT$T$GT$$GT$12consume_iter17h49cddce15e766e32E', symObjAddr: 0x0, symBinAddr: 0x2F8FF0, symSize: 0x80 }
  - { offset: 0x27BE6A, size: 0x8, addend: 0x0, symName: '__ZN102_$LT$rayon..iter..extend..ListVecFolder$LT$T$GT$$u20$as$u20$rayon..iter..plumbing..Folder$LT$T$GT$$GT$12consume_iter17h49cddce15e766e32E', symObjAddr: 0x0, symBinAddr: 0x2F8FF0, symSize: 0x80 }
  - { offset: 0x27BEB8, size: 0x8, addend: 0x0, symName: '__ZN102_$LT$rayon..iter..extend..ListVecFolder$LT$T$GT$$u20$as$u20$rayon..iter..plumbing..Folder$LT$T$GT$$GT$12consume_iter17had364f8958528ea1E', symObjAddr: 0x80, symBinAddr: 0x2F9070, symSize: 0x80 }
  - { offset: 0x27BF06, size: 0x8, addend: 0x0, symName: '__ZN102_$LT$rayon..iter..extend..ListVecFolder$LT$T$GT$$u20$as$u20$rayon..iter..plumbing..Folder$LT$T$GT$$GT$8complete17h209e3efe47ac6e0bE', symObjAddr: 0x100, symBinAddr: 0x2F90F0, symSize: 0xFC }
  - { offset: 0x27BF51, size: 0x8, addend: 0x0, symName: '__ZN102_$LT$rayon..iter..extend..ListVecFolder$LT$T$GT$$u20$as$u20$rayon..iter..plumbing..Folder$LT$T$GT$$GT$8complete17h3161364133534decE', symObjAddr: 0x1FC, symBinAddr: 0x2F91EC, symSize: 0xFC }
  - { offset: 0x27BFA2, size: 0x8, addend: 0x0, symName: '__ZN143_$LT$rayon..iter..extend..ListReducer$u20$as$u20$rayon..iter..plumbing..Reducer$LT$alloc..collections..linked_list..LinkedList$LT$T$GT$$GT$$GT$6reduce17h8766c0829310e574E', symObjAddr: 0x2F8, symBinAddr: 0x2F92E8, symSize: 0xB0 }
  - { offset: 0x27C005, size: 0x8, addend: 0x0, symName: '__ZN143_$LT$rayon..iter..extend..ListReducer$u20$as$u20$rayon..iter..plumbing..Reducer$LT$alloc..collections..linked_list..LinkedList$LT$T$GT$$GT$$GT$6reduce17hd9582f4c1406d7deE', symObjAddr: 0x3A8, symBinAddr: 0x2F9398, symSize: 0xB0 }
  - { offset: 0x27C06E, size: 0x8, addend: 0x0, symName: '__ZN97_$LT$rayon..iter..extend..ListVecConsumer$u20$as$u20$rayon..iter..plumbing..Consumer$LT$T$GT$$GT$11into_folder17haafb19a4900b3bd1E', symObjAddr: 0x458, symBinAddr: 0x2F9448, symSize: 0x38 }
  - { offset: 0x27C0AE, size: 0x8, addend: 0x0, symName: '__ZN97_$LT$rayon..iter..extend..ListVecConsumer$u20$as$u20$rayon..iter..plumbing..Consumer$LT$T$GT$$GT$11into_folder17hbc89e0db94ed5248E', symObjAddr: 0x490, symBinAddr: 0x2F9480, symSize: 0x38 }
  - { offset: 0x27C0EE, size: 0x8, addend: 0x0, symName: '__ZN97_$LT$rayon..iter..extend..ListVecConsumer$u20$as$u20$rayon..iter..plumbing..Consumer$LT$T$GT$$GT$4full17h825d250b93cc22beE', symObjAddr: 0x4C8, symBinAddr: 0x2F94B8, symSize: 0x18 }
  - { offset: 0x27C123, size: 0x8, addend: 0x0, symName: '__ZN97_$LT$rayon..iter..extend..ListVecConsumer$u20$as$u20$rayon..iter..plumbing..Consumer$LT$T$GT$$GT$4full17ha3725f5639e7ffb6E', symObjAddr: 0x4E0, symBinAddr: 0x2F94D0, symSize: 0x18 }
  - { offset: 0x27C158, size: 0x8, addend: 0x0, symName: '__ZN97_$LT$rayon..iter..extend..ListVecConsumer$u20$as$u20$rayon..iter..plumbing..Consumer$LT$T$GT$$GT$8split_at17h9fe33a87eaf7e55eE', symObjAddr: 0x4F8, symBinAddr: 0x2F94E8, symSize: 0x10 }
  - { offset: 0x27C1A2, size: 0x8, addend: 0x0, symName: '__ZN97_$LT$rayon..iter..extend..ListVecConsumer$u20$as$u20$rayon..iter..plumbing..Consumer$LT$T$GT$$GT$8split_at17hf97d4595c01cde3eE', symObjAddr: 0x508, symBinAddr: 0x2F94F8, symSize: 0x10 }
  - { offset: 0x27CD98, size: 0x8, addend: 0x0, symName: __ZN3std4path4Path6to_str17h0c406814a9c73679E, symObjAddr: 0x0, symBinAddr: 0x2F9508, symSize: 0x78 }
  - { offset: 0x27CF1D, size: 0x8, addend: 0x0, symName: '__ZN82_$LT$std..path..PathBuf$u20$as$u20$core..convert..AsRef$LT$std..path..Path$GT$$GT$6as_ref17h87627e7b0ce3bef8E', symObjAddr: 0x78, symBinAddr: 0x2F9580, symSize: 0x34 }
  - { offset: 0x27D30E, size: 0x8, addend: 0x0, symName: __ZN3std4path4Path6to_str17h0c406814a9c73679E, symObjAddr: 0x0, symBinAddr: 0x2F9508, symSize: 0x78 }
  - { offset: 0x27D4C2, size: 0x8, addend: 0x0, symName: __ZN10serde_core2de5Error13invalid_value17h84b553d5b542da84E, symObjAddr: 0x0, symBinAddr: 0x6B3420, symSize: 0x68 }
  - { offset: 0x27D51E, size: 0x8, addend: 0x0, symName: '__ZN45_$LT$T$u20$as$u20$alloc..string..ToString$GT$9to_string17h23241bc9c4f17919E', symObjAddr: 0xE0, symBinAddr: 0x2F95B4, symSize: 0x24 }
  - { offset: 0x27D555, size: 0x8, addend: 0x0, symName: '__ZN45_$LT$T$u20$as$u20$alloc..string..ToString$GT$9to_string17hc31b90685521349eE', symObjAddr: 0x104, symBinAddr: 0x2F95D8, symSize: 0x24 }
  - { offset: 0x27D592, size: 0x8, addend: 0x0, symName: '__ZN49_$LT$T$u20$as$u20$alloc..string..SpecToString$GT$14spec_to_string17h8ae46b2c51bf2ea1E', symObjAddr: 0x128, symBinAddr: 0x2F95FC, symSize: 0xF4 }
  - { offset: 0x27D65C, size: 0x8, addend: 0x0, symName: '__ZN49_$LT$T$u20$as$u20$alloc..string..SpecToString$GT$14spec_to_string17hfd0979f2fbbcc6a5E', symObjAddr: 0x21C, symBinAddr: 0x2F96F0, symSize: 0xF4 }
  - { offset: 0x27DAE7, size: 0x8, addend: 0x0, symName: '__ZN5alloc5boxed16Box$LT$T$C$A$GT$13new_uninit_in17hbc0248d904fe482dE', symObjAddr: 0x350, symBinAddr: 0x2F9824, symSize: 0x78 }
  - { offset: 0x27DB45, size: 0x8, addend: 0x0, symName: '__ZN5alloc5boxed16Box$LT$T$C$A$GT$13new_uninit_in17hdace741d7581ec62E', symObjAddr: 0x3C8, symBinAddr: 0x2F989C, symSize: 0x78 }
  - { offset: 0x27DBA3, size: 0x8, addend: 0x0, symName: '__ZN5alloc5boxed16Box$LT$T$C$A$GT$17try_new_uninit_in17h030f2a9608389ef6E', symObjAddr: 0x440, symBinAddr: 0x2F9914, symSize: 0x114 }
  - { offset: 0x27DD40, size: 0x8, addend: 0x0, symName: '__ZN5alloc5boxed16Box$LT$T$C$A$GT$17try_new_uninit_in17ha79a50a375e0dd1dE', symObjAddr: 0x554, symBinAddr: 0x2F9A28, symSize: 0x114 }
  - { offset: 0x27DEDD, size: 0x8, addend: 0x0, symName: '__ZN5alloc5boxed16Box$LT$T$C$A$GT$6new_in17h57326c9be880e83aE', symObjAddr: 0x668, symBinAddr: 0x2F9B3C, symSize: 0x114 }
  - { offset: 0x27E071, size: 0x8, addend: 0x0, symName: '__ZN5alloc5boxed16Box$LT$T$C$A$GT$6new_in17hb6a7da2cc46febd5E', symObjAddr: 0x77C, symBinAddr: 0x2F9C50, symSize: 0x114 }
  - { offset: 0x27E4D4, size: 0x8, addend: 0x0, symName: '__ZN5alloc5boxed4iter117_$LT$impl$u20$core..iter..traits..collect..FromIterator$LT$I$GT$$u20$for$u20$alloc..boxed..Box$LT$$u5b$I$u5d$$GT$$GT$9from_iter17hcea99138c08c2a6aE', symObjAddr: 0x890, symBinAddr: 0x2F9D64, symSize: 0x3C }
  - { offset: 0x27E59A, size: 0x8, addend: 0x0, symName: '__ZN5alloc5boxed7convert110_$LT$impl$u20$core..convert..From$LT$E$GT$$u20$for$u20$alloc..boxed..Box$LT$dyn$u20$core..error..Error$GT$$GT$4from17h4fdcdf38b3104bf6E', symObjAddr: 0x8CC, symBinAddr: 0x2F9DA0, symSize: 0x74 }
  - { offset: 0x27E5EF, size: 0x8, addend: 0x0, symName: '__ZN5alloc5boxed7convert110_$LT$impl$u20$core..convert..From$LT$E$GT$$u20$for$u20$alloc..boxed..Box$LT$dyn$u20$core..error..Error$GT$$GT$4from17hb503250afb51a8dcE', symObjAddr: 0x940, symBinAddr: 0x2F9E14, symSize: 0x74 }
  - { offset: 0x27E644, size: 0x8, addend: 0x0, symName: '__ZN5alloc5boxed7convert110_$LT$impl$u20$core..convert..From$LT$E$GT$$u20$for$u20$alloc..boxed..Box$LT$dyn$u20$core..error..Error$GT$$GT$4from17hdb082535ba12b735E', symObjAddr: 0x9B4, symBinAddr: 0x2F9E88, symSize: 0x80 }
  - { offset: 0x27E6A2, size: 0x8, addend: 0x0, symName: '__ZN65_$LT$alloc..boxed..Box$LT$E$GT$$u20$as$u20$core..error..Error$GT$5cause17hbab1bcd69b6d57c9E', symObjAddr: 0xA34, symBinAddr: 0x2F9F08, symSize: 0x28 }
  - { offset: 0x27E6D9, size: 0x8, addend: 0x0, symName: '__ZN65_$LT$alloc..boxed..Box$LT$E$GT$$u20$as$u20$core..error..Error$GT$6source17h6c8cd738b6c6bcfbE', symObjAddr: 0xA5C, symBinAddr: 0x2F9F30, symSize: 0x28 }
  - { offset: 0x27E710, size: 0x8, addend: 0x0, symName: '__ZN65_$LT$alloc..boxed..Box$LT$E$GT$$u20$as$u20$core..error..Error$GT$7provide17h40a05ddd9fb3875aE', symObjAddr: 0xA84, symBinAddr: 0x2F9F58, symSize: 0x38 }
  - { offset: 0x27E758, size: 0x8, addend: 0x0, symName: '__ZN67_$LT$alloc..boxed..Box$LT$T$C$A$GT$$u20$as$u20$core..fmt..Debug$GT$3fmt17hff2c9fe174051341E', symObjAddr: 0xABC, symBinAddr: 0x2F9F90, symSize: 0x30 }
  - { offset: 0x27E7AD, size: 0x8, addend: 0x0, symName: '__ZN69_$LT$alloc..boxed..Box$LT$T$C$A$GT$$u20$as$u20$core..fmt..Display$GT$3fmt17h007145a11dfffd01E', symObjAddr: 0xAEC, symBinAddr: 0x2F9FC0, symSize: 0x30 }
  - { offset: 0x27E7FC, size: 0x8, addend: 0x0, symName: '__ZN69_$LT$alloc..boxed..Box$LT$T$C$A$GT$$u20$as$u20$core..fmt..Display$GT$3fmt17h1b10a0a769b39a8cE', symObjAddr: 0xB1C, symBinAddr: 0x2F9FF0, symSize: 0x3C }
  - { offset: 0x27F359, size: 0x8, addend: 0x0, symName: __ZN4core5error5Error11description17h259ea51e1f1ea7d6E, symObjAddr: 0x310, symBinAddr: 0x2F97E4, symSize: 0x20 }
  - { offset: 0x27F38E, size: 0x8, addend: 0x0, symName: __ZN4core5error5Error7type_id17hbdb7e9617b2c2e4eE, symObjAddr: 0x330, symBinAddr: 0x2F9804, symSize: 0x20 }
  - { offset: 0x27FF71, size: 0x8, addend: 0x0, symName: '__ZN7bincode5error102_$LT$impl$u20$serde_core..de..Error$u20$for$u20$alloc..boxed..Box$LT$bincode..error..ErrorKind$GT$$GT$6custom17h0e7afcdbf9c4bd81E', symObjAddr: 0xB58, symBinAddr: 0x2FA02C, symSize: 0x78 }
  - { offset: 0x280299, size: 0x8, addend: 0x0, symName: __ZN10serde_core2de5Error13invalid_value17h84b553d5b542da84E, symObjAddr: 0x0, symBinAddr: 0x6B3420, symSize: 0x68 }
  - { offset: 0x280317, size: 0x8, addend: 0x0, symName: __ZN10serde_core2de5Error14invalid_length17h9af4de12616407c0E, symObjAddr: 0x68, symBinAddr: 0x6B3488, symSize: 0x78 }
  - { offset: 0x280C10, size: 0x8, addend: 0x0, symName: __ZN7rustfft3Fft7process17h5610892038b38134E, symObjAddr: 0x0, symBinAddr: 0x2FA0A4, symSize: 0xC8 }
